ARM GAS  /tmp/ccu8nWO0.s 			page 1


   1              		.cpu cortex-m4
   2              		.arch armv7e-m
   3              		.fpu fpv4-sp-d16
   4              		.eabi_attribute 27, 1
   5              		.eabi_attribute 28, 1
   6              		.eabi_attribute 20, 1
   7              		.eabi_attribute 21, 1
   8              		.eabi_attribute 23, 3
   9              		.eabi_attribute 24, 1
  10              		.eabi_attribute 25, 1
  11              		.eabi_attribute 26, 1
  12              		.eabi_attribute 30, 1
  13              		.eabi_attribute 34, 1
  14              		.eabi_attribute 18, 4
  15              		.file	"init.c"
  16              		.text
  17              	.Ltext0:
  18              		.cfi_sections	.debug_frame
  19              		.file 1 "Src/init.c"
  20              		.section	.text.MX_GPIO_Init,"ax",%progbits
  21              		.align	1
  22              		.syntax unified
  23              		.thumb
  24              		.thumb_func
  26              	MX_GPIO_Init:
  27              	.LFB140:
   1:Src/init.c    **** #include "init.h"
   2:Src/init.c    **** 
   3:Src/init.c    **** CAN_HandleTypeDef hcan1;
   4:Src/init.c    **** 
   5:Src/init.c    **** TIM_HandleTypeDef htim2;
   6:Src/init.c    **** 
   7:Src/init.c    **** UART_HandleTypeDef huart3;
   8:Src/init.c    **** 
   9:Src/init.c    **** PCD_HandleTypeDef hpcd_USB_OTG_FS;
  10:Src/init.c    **** 
  11:Src/init.c    **** CAN_TxHeaderTypeDef   TxHeader;
  12:Src/init.c    **** CAN_RxHeaderTypeDef   RxHeader;
  13:Src/init.c    **** uint8_t               TxData[8];
  14:Src/init.c    **** uint8_t               RxData[8];
  15:Src/init.c    **** uint32_t              TxMailbox;
  16:Src/init.c    **** 
  17:Src/init.c    **** 
  18:Src/init.c    **** /* Private function prototypes -----------------------------------------------*/
  19:Src/init.c    **** void SystemClock_Config(void);
  20:Src/init.c    **** static void MX_GPIO_Init(void);
  21:Src/init.c    **** static void MX_CAN1_Init(void);
  22:Src/init.c    **** static void MX_USART3_UART_Init(void);
  23:Src/init.c    **** static void MX_USB_OTG_FS_PCD_Init(void);
  24:Src/init.c    **** static void MX_TIM2_Init(void);
  25:Src/init.c    **** 
  26:Src/init.c    **** void init(CAN_TxHeaderTypeDef TxHeader, CAN_HandleTypeDef hcan1){
  27:Src/init.c    **** 
  28:Src/init.c    ****   /* USER CODE BEGIN 1 */
  29:Src/init.c    **** 
  30:Src/init.c    ****   /* USER CODE END 1 */
  31:Src/init.c    **** 
ARM GAS  /tmp/ccu8nWO0.s 			page 2


  32:Src/init.c    ****   /* MCU Configuration--------------------------------------------------------*/
  33:Src/init.c    **** 
  34:Src/init.c    ****   /* Reset of all peripherals, Initializes the Flash interface and the Systick. */
  35:Src/init.c    ****   HAL_Init();
  36:Src/init.c    **** 
  37:Src/init.c    ****   /* USER CODE BEGIN Init */
  38:Src/init.c    **** 
  39:Src/init.c    ****   /* USER CODE END Init */
  40:Src/init.c    **** 
  41:Src/init.c    ****   /* Configure the system clock */
  42:Src/init.c    ****   SystemClock_Config();
  43:Src/init.c    **** 
  44:Src/init.c    ****   /* USER CODE BEGIN SysInit */
  45:Src/init.c    **** 
  46:Src/init.c    ****   /* USER CODE END SysInit */
  47:Src/init.c    **** 
  48:Src/init.c    ****   /* Initialize all configured peripherals */
  49:Src/init.c    ****   MX_GPIO_Init();
  50:Src/init.c    ****   MX_CAN1_Init();
  51:Src/init.c    ****   MX_USART3_UART_Init();
  52:Src/init.c    ****   MX_USB_OTG_FS_PCD_Init();
  53:Src/init.c    ****   MX_TIM2_Init();
  54:Src/init.c    ****   /* USER CODE BEGIN 2 */
  55:Src/init.c    ****   // --- STEP 1: CAN Filter Configuration ---
  56:Src/init.c    ****   // Setting all IDs and Masks to 0 accepts EVERY incoming message for testing purposes.
  57:Src/init.c    ****   CAN_FilterTypeDef sFilterConfig;
  58:Src/init.c    **** 
  59:Src/init.c    ****   sFilterConfig.FilterBank = 0;
  60:Src/init.c    ****   sFilterConfig.FilterMode = CAN_FILTERMODE_IDMASK;
  61:Src/init.c    ****   sFilterConfig.FilterScale = CAN_FILTERSCALE_32BIT;
  62:Src/init.c    ****   sFilterConfig.FilterIdHigh = 0x0000;
  63:Src/init.c    ****   sFilterConfig.FilterIdLow = 0x0000;
  64:Src/init.c    ****   sFilterConfig.FilterMaskIdHigh = 0x0000;
  65:Src/init.c    ****   sFilterConfig.FilterMaskIdLow = 0x0000;
  66:Src/init.c    ****   sFilterConfig.FilterFIFOAssignment = CAN_RX_FIFO0;
  67:Src/init.c    ****   sFilterConfig.FilterActivation = ENABLE;
  68:Src/init.c    ****   sFilterConfig.SlaveStartFilterBank = 14;
  69:Src/init.c    **** 
  70:Src/init.c    ****   if (HAL_CAN_ConfigFilter(&hcan1, &sFilterConfig) != HAL_OK)
  71:Src/init.c    ****   {
  72:Src/init.c    ****       Error_Handler();
  73:Src/init.c    ****   }
  74:Src/init.c    **** 
  75:Src/init.c    ****   // --- STEP 2: Start the CAN Peripheral ---
  76:Src/init.c    ****   if (HAL_CAN_Start(&hcan1) != HAL_OK)
  77:Src/init.c    ****   {
  78:Src/init.c    ****       Error_Handler();
  79:Src/init.c    ****   }
  80:Src/init.c    **** 
  81:Src/init.c    ****   // --- STEP 3: Activate RX Interrupt Notifications ---
  82:Src/init.c    ****   if (HAL_CAN_ActivateNotification(&hcan1, CAN_IT_RX_FIFO0_MSG_PENDING) != HAL_OK)
  83:Src/init.c    ****   {
  84:Src/init.c    ****       Error_Handler();
  85:Src/init.c    ****   }
  86:Src/init.c    **** 
  87:Src/init.c    ****   // --- STEP 4: Prepare Tx Message Header Attributes ---
  88:Src/init.c    ****   TxHeader.StdId = 0x102;          // Example Message Identifier (Standard ID)
ARM GAS  /tmp/ccu8nWO0.s 			page 3


  89:Src/init.c    ****   TxHeader.RTR = CAN_RTR_DATA;     // We are sending data frames, not remote requests
  90:Src/init.c    ****   TxHeader.IDE = CAN_ID_STD;       // Standard 11-bit identifier format
  91:Src/init.c    ****   TxHeader.DLC = 4;                // Sending 4 bytes of data payload
  92:Src/init.c    ****   TxHeader.TransmitGlobalTime = DISABLE;
  93:Src/init.c    **** 
  94:Src/init.c    ****   HAL_TIM_PWM_Start(&htim2, TIM_CHANNEL_3);
  95:Src/init.c    **** 
  96:Src/init.c    ****   HAL_GPIO_WritePin(GPIOF, GPIO_PIN_14, GPIO_PIN_SET); //SLEEP PIN HIGH
  97:Src/init.c    ****   /* USER CODE END 2 */
  98:Src/init.c    **** }
  99:Src/init.c    **** 
 100:Src/init.c    **** 
 101:Src/init.c    **** /**
 102:Src/init.c    ****   * @brief System Clock Configuration
 103:Src/init.c    ****   * @retval None
 104:Src/init.c    ****   */
 105:Src/init.c    **** void SystemClock_Config(void)
 106:Src/init.c    **** {
 107:Src/init.c    ****   RCC_OscInitTypeDef RCC_OscInitStruct = {0};
 108:Src/init.c    ****   RCC_ClkInitTypeDef RCC_ClkInitStruct = {0};
 109:Src/init.c    **** 
 110:Src/init.c    ****   /** Configure the main internal regulator output voltage
 111:Src/init.c    ****   */
 112:Src/init.c    ****   __HAL_RCC_PWR_CLK_ENABLE();
 113:Src/init.c    ****   __HAL_PWR_VOLTAGESCALING_CONFIG(PWR_REGULATOR_VOLTAGE_SCALE1);
 114:Src/init.c    **** 
 115:Src/init.c    ****   /** Initializes the RCC Oscillators according to the specified parameters
 116:Src/init.c    ****   * in the RCC_OscInitTypeDef structure.
 117:Src/init.c    ****   */
 118:Src/init.c    ****   RCC_OscInitStruct.OscillatorType = RCC_OSCILLATORTYPE_HSE;
 119:Src/init.c    ****   RCC_OscInitStruct.HSEState = RCC_HSE_BYPASS;
 120:Src/init.c    ****   RCC_OscInitStruct.PLL.PLLState = RCC_PLL_ON;
 121:Src/init.c    ****   RCC_OscInitStruct.PLL.PLLSource = RCC_PLLSOURCE_HSE;
 122:Src/init.c    ****   RCC_OscInitStruct.PLL.PLLM = 8;
 123:Src/init.c    ****   RCC_OscInitStruct.PLL.PLLN = 384;
 124:Src/init.c    ****   RCC_OscInitStruct.PLL.PLLP = RCC_PLLP_DIV4;
 125:Src/init.c    ****   RCC_OscInitStruct.PLL.PLLQ = 8;
 126:Src/init.c    ****   RCC_OscInitStruct.PLL.PLLR = 2;
 127:Src/init.c    ****   if (HAL_RCC_OscConfig(&RCC_OscInitStruct) != HAL_OK)
 128:Src/init.c    ****   {
 129:Src/init.c    ****     Error_Handler();
 130:Src/init.c    ****   }
 131:Src/init.c    **** 
 132:Src/init.c    ****   /** Initializes the CPU, AHB and APB buses clocks
 133:Src/init.c    ****   */
 134:Src/init.c    ****   RCC_ClkInitStruct.ClockType = RCC_CLOCKTYPE_HCLK|RCC_CLOCKTYPE_SYSCLK
 135:Src/init.c    ****                               |RCC_CLOCKTYPE_PCLK1|RCC_CLOCKTYPE_PCLK2;
 136:Src/init.c    ****   RCC_ClkInitStruct.SYSCLKSource = RCC_SYSCLKSOURCE_PLLCLK;
 137:Src/init.c    ****   RCC_ClkInitStruct.AHBCLKDivider = RCC_SYSCLK_DIV1;
 138:Src/init.c    ****   RCC_ClkInitStruct.APB1CLKDivider = RCC_HCLK_DIV2;
 139:Src/init.c    ****   RCC_ClkInitStruct.APB2CLKDivider = RCC_HCLK_DIV1;
 140:Src/init.c    **** 
 141:Src/init.c    ****   if (HAL_RCC_ClockConfig(&RCC_ClkInitStruct, FLASH_LATENCY_3) != HAL_OK)
 142:Src/init.c    ****   {
 143:Src/init.c    ****     Error_Handler();
 144:Src/init.c    ****   }
 145:Src/init.c    **** }
ARM GAS  /tmp/ccu8nWO0.s 			page 4


 146:Src/init.c    **** 
 147:Src/init.c    **** /**
 148:Src/init.c    ****   * @brief CAN1 Initialization Function
 149:Src/init.c    ****   * @param None
 150:Src/init.c    ****   * @retval None
 151:Src/init.c    ****   */
 152:Src/init.c    **** static void MX_CAN1_Init(void)
 153:Src/init.c    **** {
 154:Src/init.c    **** 
 155:Src/init.c    ****   /* USER CODE BEGIN CAN1_Init 0 */
 156:Src/init.c    **** 
 157:Src/init.c    ****   /* USER CODE END CAN1_Init 0 */
 158:Src/init.c    **** 
 159:Src/init.c    ****   /* USER CODE BEGIN CAN1_Init 1 */
 160:Src/init.c    **** 
 161:Src/init.c    ****   /* USER CODE END CAN1_Init 1 */
 162:Src/init.c    ****   hcan1.Instance = CAN1;
 163:Src/init.c    ****   hcan1.Init.Prescaler = 16;
 164:Src/init.c    ****   hcan1.Init.Mode = CAN_MODE_NORMAL;
 165:Src/init.c    ****   hcan1.Init.SyncJumpWidth = CAN_SJW_1TQ;
 166:Src/init.c    ****   hcan1.Init.TimeSeg1 = CAN_BS1_8TQ;
 167:Src/init.c    ****   hcan1.Init.TimeSeg2 = CAN_BS2_3TQ;
 168:Src/init.c    ****   hcan1.Init.TimeTriggeredMode = DISABLE;
 169:Src/init.c    ****   hcan1.Init.AutoBusOff = DISABLE;
 170:Src/init.c    ****   hcan1.Init.AutoWakeUp = DISABLE;
 171:Src/init.c    ****   hcan1.Init.AutoRetransmission = DISABLE;
 172:Src/init.c    ****   hcan1.Init.ReceiveFifoLocked = DISABLE;
 173:Src/init.c    ****   hcan1.Init.TransmitFifoPriority = DISABLE;
 174:Src/init.c    ****   if (HAL_CAN_Init(&hcan1) != HAL_OK)
 175:Src/init.c    ****   {
 176:Src/init.c    ****     Error_Handler();
 177:Src/init.c    ****   }
 178:Src/init.c    ****   /* USER CODE BEGIN CAN1_Init 2 */
 179:Src/init.c    **** 
 180:Src/init.c    ****   /* USER CODE END CAN1_Init 2 */
 181:Src/init.c    **** 
 182:Src/init.c    **** }
 183:Src/init.c    **** 
 184:Src/init.c    **** /**
 185:Src/init.c    ****   * @brief TIM2 Initialization Function
 186:Src/init.c    ****   * @param None
 187:Src/init.c    ****   * @retval None
 188:Src/init.c    ****   */
 189:Src/init.c    **** static void MX_TIM2_Init(void)
 190:Src/init.c    **** {
 191:Src/init.c    **** 
 192:Src/init.c    ****   /* USER CODE BEGIN TIM2_Init 0 */
 193:Src/init.c    **** 
 194:Src/init.c    ****   /* USER CODE END TIM2_Init 0 */
 195:Src/init.c    **** 
 196:Src/init.c    ****   TIM_ClockConfigTypeDef sClockSourceConfig = {0};
 197:Src/init.c    ****   TIM_MasterConfigTypeDef sMasterConfig = {0};
 198:Src/init.c    ****   TIM_OC_InitTypeDef sConfigOC = {0};
 199:Src/init.c    **** 
 200:Src/init.c    ****   /* USER CODE BEGIN TIM2_Init 1 */
 201:Src/init.c    **** 
 202:Src/init.c    ****   /* USER CODE END TIM2_Init 1 */
ARM GAS  /tmp/ccu8nWO0.s 			page 5


 203:Src/init.c    ****   htim2.Instance = TIM2;
 204:Src/init.c    ****   htim2.Init.Prescaler = 96;
 205:Src/init.c    ****   htim2.Init.CounterMode = TIM_COUNTERMODE_UP;
 206:Src/init.c    ****   htim2.Init.Period = 19999;
 207:Src/init.c    ****   htim2.Init.ClockDivision = TIM_CLOCKDIVISION_DIV1;
 208:Src/init.c    ****   htim2.Init.AutoReloadPreload = TIM_AUTORELOAD_PRELOAD_DISABLE;
 209:Src/init.c    ****   if (HAL_TIM_Base_Init(&htim2) != HAL_OK)
 210:Src/init.c    ****   {
 211:Src/init.c    ****     Error_Handler();
 212:Src/init.c    ****   }
 213:Src/init.c    ****   sClockSourceConfig.ClockSource = TIM_CLOCKSOURCE_INTERNAL;
 214:Src/init.c    ****   if (HAL_TIM_ConfigClockSource(&htim2, &sClockSourceConfig) != HAL_OK)
 215:Src/init.c    ****   {
 216:Src/init.c    ****     Error_Handler();
 217:Src/init.c    ****   }
 218:Src/init.c    ****   if (HAL_TIM_PWM_Init(&htim2) != HAL_OK)
 219:Src/init.c    ****   {
 220:Src/init.c    ****     Error_Handler();
 221:Src/init.c    ****   }
 222:Src/init.c    ****   sMasterConfig.MasterOutputTrigger = TIM_TRGO_RESET;
 223:Src/init.c    ****   sMasterConfig.MasterSlaveMode = TIM_MASTERSLAVEMODE_DISABLE;
 224:Src/init.c    ****   if (HAL_TIMEx_MasterConfigSynchronization(&htim2, &sMasterConfig) != HAL_OK)
 225:Src/init.c    ****   {
 226:Src/init.c    ****     Error_Handler();
 227:Src/init.c    ****   }
 228:Src/init.c    ****   sConfigOC.OCMode = TIM_OCMODE_PWM1;
 229:Src/init.c    ****   sConfigOC.Pulse = 0;
 230:Src/init.c    ****   sConfigOC.OCPolarity = TIM_OCPOLARITY_HIGH;
 231:Src/init.c    ****   sConfigOC.OCFastMode = TIM_OCFAST_DISABLE;
 232:Src/init.c    ****   if (HAL_TIM_PWM_ConfigChannel(&htim2, &sConfigOC, TIM_CHANNEL_3) != HAL_OK)
 233:Src/init.c    ****   {
 234:Src/init.c    ****     Error_Handler();
 235:Src/init.c    ****   }
 236:Src/init.c    ****   /* USER CODE BEGIN TIM2_Init 2 */
 237:Src/init.c    **** 
 238:Src/init.c    ****   /* USER CODE END TIM2_Init 2 */
 239:Src/init.c    ****   HAL_TIM_MspPostInit(&htim2);
 240:Src/init.c    **** 
 241:Src/init.c    **** }
 242:Src/init.c    **** 
 243:Src/init.c    **** /**
 244:Src/init.c    ****   * @brief USART3 Initialization Function
 245:Src/init.c    ****   * @param None
 246:Src/init.c    ****   * @retval None
 247:Src/init.c    ****   */
 248:Src/init.c    **** static void MX_USART3_UART_Init(void)
 249:Src/init.c    **** {
 250:Src/init.c    **** 
 251:Src/init.c    ****   /* USER CODE BEGIN USART3_Init 0 */
 252:Src/init.c    **** 
 253:Src/init.c    ****   /* USER CODE END USART3_Init 0 */
 254:Src/init.c    **** 
 255:Src/init.c    ****   /* USER CODE BEGIN USART3_Init 1 */
 256:Src/init.c    **** 
 257:Src/init.c    ****   /* USER CODE END USART3_Init 1 */
 258:Src/init.c    ****   huart3.Instance = USART3;
 259:Src/init.c    ****   huart3.Init.BaudRate = 115200;
ARM GAS  /tmp/ccu8nWO0.s 			page 6


 260:Src/init.c    ****   huart3.Init.WordLength = UART_WORDLENGTH_8B;
 261:Src/init.c    ****   huart3.Init.StopBits = UART_STOPBITS_1;
 262:Src/init.c    ****   huart3.Init.Parity = UART_PARITY_NONE;
 263:Src/init.c    ****   huart3.Init.Mode = UART_MODE_TX_RX;
 264:Src/init.c    ****   huart3.Init.HwFlowCtl = UART_HWCONTROL_NONE;
 265:Src/init.c    ****   huart3.Init.OverSampling = UART_OVERSAMPLING_16;
 266:Src/init.c    ****   if (HAL_UART_Init(&huart3) != HAL_OK)
 267:Src/init.c    ****   {
 268:Src/init.c    ****     Error_Handler();
 269:Src/init.c    ****   }
 270:Src/init.c    ****   /* USER CODE BEGIN USART3_Init 2 */
 271:Src/init.c    **** 
 272:Src/init.c    ****   /* USER CODE END USART3_Init 2 */
 273:Src/init.c    **** 
 274:Src/init.c    **** }
 275:Src/init.c    **** 
 276:Src/init.c    **** /**
 277:Src/init.c    ****   * @brief USB_OTG_FS Initialization Function
 278:Src/init.c    ****   * @param None
 279:Src/init.c    ****   * @retval None
 280:Src/init.c    ****   */
 281:Src/init.c    **** static void MX_USB_OTG_FS_PCD_Init(void)
 282:Src/init.c    **** {
 283:Src/init.c    **** 
 284:Src/init.c    ****   /* USER CODE BEGIN USB_OTG_FS_Init 0 */
 285:Src/init.c    **** 
 286:Src/init.c    ****   /* USER CODE END USB_OTG_FS_Init 0 */
 287:Src/init.c    **** 
 288:Src/init.c    ****   /* USER CODE BEGIN USB_OTG_FS_Init 1 */
 289:Src/init.c    **** 
 290:Src/init.c    ****   /* USER CODE END USB_OTG_FS_Init 1 */
 291:Src/init.c    ****   hpcd_USB_OTG_FS.Instance = USB_OTG_FS;
 292:Src/init.c    ****   hpcd_USB_OTG_FS.Init.dev_endpoints = 6;
 293:Src/init.c    ****   hpcd_USB_OTG_FS.Init.speed = PCD_SPEED_FULL;
 294:Src/init.c    ****   hpcd_USB_OTG_FS.Init.dma_enable = DISABLE;
 295:Src/init.c    ****   hpcd_USB_OTG_FS.Init.phy_itface = PCD_PHY_EMBEDDED;
 296:Src/init.c    ****   hpcd_USB_OTG_FS.Init.Sof_enable = ENABLE;
 297:Src/init.c    ****   hpcd_USB_OTG_FS.Init.low_power_enable = DISABLE;
 298:Src/init.c    ****   hpcd_USB_OTG_FS.Init.lpm_enable = DISABLE;
 299:Src/init.c    ****   hpcd_USB_OTG_FS.Init.battery_charging_enable = ENABLE;
 300:Src/init.c    ****   hpcd_USB_OTG_FS.Init.vbus_sensing_enable = ENABLE;
 301:Src/init.c    ****   hpcd_USB_OTG_FS.Init.use_dedicated_ep1 = DISABLE;
 302:Src/init.c    ****   if (HAL_PCD_Init(&hpcd_USB_OTG_FS) != HAL_OK)
 303:Src/init.c    ****   {
 304:Src/init.c    ****     Error_Handler();
 305:Src/init.c    ****   }
 306:Src/init.c    ****   /* USER CODE BEGIN USB_OTG_FS_Init 2 */
 307:Src/init.c    **** 
 308:Src/init.c    ****   /* USER CODE END USB_OTG_FS_Init 2 */
 309:Src/init.c    **** 
 310:Src/init.c    **** }
 311:Src/init.c    **** 
 312:Src/init.c    **** /**
 313:Src/init.c    ****   * @brief GPIO Initialization Function
 314:Src/init.c    ****   * @param None
 315:Src/init.c    ****   * @retval None
 316:Src/init.c    ****   */
ARM GAS  /tmp/ccu8nWO0.s 			page 7


 317:Src/init.c    **** static void MX_GPIO_Init(void)
 318:Src/init.c    **** {
  28              		.loc 1 318 1 view -0
  29              		.cfi_startproc
  30              		@ args = 0, pretend = 0, frame = 56
  31              		@ frame_needed = 0, uses_anonymous_args = 0
  32 0000 2DE9F04F 		push	{r4, r5, r6, r7, r8, r9, r10, fp, lr}
  33              	.LCFI0:
  34              		.cfi_def_cfa_offset 36
  35              		.cfi_offset 4, -36
  36              		.cfi_offset 5, -32
  37              		.cfi_offset 6, -28
  38              		.cfi_offset 7, -24
  39              		.cfi_offset 8, -20
  40              		.cfi_offset 9, -16
  41              		.cfi_offset 10, -12
  42              		.cfi_offset 11, -8
  43              		.cfi_offset 14, -4
  44 0004 8FB0     		sub	sp, sp, #60
  45              	.LCFI1:
  46              		.cfi_def_cfa_offset 96
 319:Src/init.c    ****   GPIO_InitTypeDef GPIO_InitStruct = {0};
  47              		.loc 1 319 3 view .LVU1
  48              		.loc 1 319 20 is_stmt 0 view .LVU2
  49 0006 09AD     		add	r5, sp, #36
  50 0008 0024     		movs	r4, #0
  51 000a 0994     		str	r4, [sp, #36]
  52 000c 0A94     		str	r4, [sp, #40]
  53 000e 0B94     		str	r4, [sp, #44]
  54 0010 0C94     		str	r4, [sp, #48]
  55 0012 0D94     		str	r4, [sp, #52]
 320:Src/init.c    ****   /* USER CODE BEGIN MX_GPIO_Init_1 */
 321:Src/init.c    **** 
 322:Src/init.c    ****   /* USER CODE END MX_GPIO_Init_1 */
 323:Src/init.c    **** 
 324:Src/init.c    ****   /* GPIO Ports Clock Enable */
 325:Src/init.c    ****   __HAL_RCC_GPIOC_CLK_ENABLE();
  56              		.loc 1 325 3 is_stmt 1 view .LVU3
  57              	.LBB4:
  58              		.loc 1 325 3 view .LVU4
  59 0014 0194     		str	r4, [sp, #4]
  60              		.loc 1 325 3 view .LVU5
  61 0016 604B     		ldr	r3, .L3
  62 0018 1A6B     		ldr	r2, [r3, #48]
  63 001a 42F00402 		orr	r2, r2, #4
  64 001e 1A63     		str	r2, [r3, #48]
  65              		.loc 1 325 3 view .LVU6
  66 0020 1A6B     		ldr	r2, [r3, #48]
  67 0022 02F00402 		and	r2, r2, #4
  68 0026 0192     		str	r2, [sp, #4]
  69              		.loc 1 325 3 view .LVU7
  70 0028 019A     		ldr	r2, [sp, #4]
  71              	.LBE4:
  72              		.loc 1 325 3 view .LVU8
 326:Src/init.c    ****   __HAL_RCC_GPIOF_CLK_ENABLE();
  73              		.loc 1 326 3 view .LVU9
  74              	.LBB5:
ARM GAS  /tmp/ccu8nWO0.s 			page 8


  75              		.loc 1 326 3 view .LVU10
  76 002a 0294     		str	r4, [sp, #8]
  77              		.loc 1 326 3 view .LVU11
  78 002c 1A6B     		ldr	r2, [r3, #48]
  79 002e 42F02002 		orr	r2, r2, #32
  80 0032 1A63     		str	r2, [r3, #48]
  81              		.loc 1 326 3 view .LVU12
  82 0034 1A6B     		ldr	r2, [r3, #48]
  83 0036 02F02002 		and	r2, r2, #32
  84 003a 0292     		str	r2, [sp, #8]
  85              		.loc 1 326 3 view .LVU13
  86 003c 029A     		ldr	r2, [sp, #8]
  87              	.LBE5:
  88              		.loc 1 326 3 view .LVU14
 327:Src/init.c    ****   __HAL_RCC_GPIOH_CLK_ENABLE();
  89              		.loc 1 327 3 view .LVU15
  90              	.LBB6:
  91              		.loc 1 327 3 view .LVU16
  92 003e 0394     		str	r4, [sp, #12]
  93              		.loc 1 327 3 view .LVU17
  94 0040 1A6B     		ldr	r2, [r3, #48]
  95 0042 42F08002 		orr	r2, r2, #128
  96 0046 1A63     		str	r2, [r3, #48]
  97              		.loc 1 327 3 view .LVU18
  98 0048 1A6B     		ldr	r2, [r3, #48]
  99 004a 02F08002 		and	r2, r2, #128
 100 004e 0392     		str	r2, [sp, #12]
 101              		.loc 1 327 3 view .LVU19
 102 0050 039A     		ldr	r2, [sp, #12]
 103              	.LBE6:
 104              		.loc 1 327 3 view .LVU20
 328:Src/init.c    ****   __HAL_RCC_GPIOB_CLK_ENABLE();
 105              		.loc 1 328 3 view .LVU21
 106              	.LBB7:
 107              		.loc 1 328 3 view .LVU22
 108 0052 0494     		str	r4, [sp, #16]
 109              		.loc 1 328 3 view .LVU23
 110 0054 1A6B     		ldr	r2, [r3, #48]
 111 0056 42F00202 		orr	r2, r2, #2
 112 005a 1A63     		str	r2, [r3, #48]
 113              		.loc 1 328 3 view .LVU24
 114 005c 1A6B     		ldr	r2, [r3, #48]
 115 005e 02F00202 		and	r2, r2, #2
 116 0062 0492     		str	r2, [sp, #16]
 117              		.loc 1 328 3 view .LVU25
 118 0064 049A     		ldr	r2, [sp, #16]
 119              	.LBE7:
 120              		.loc 1 328 3 view .LVU26
 329:Src/init.c    ****   __HAL_RCC_GPIOG_CLK_ENABLE();
 121              		.loc 1 329 3 view .LVU27
 122              	.LBB8:
 123              		.loc 1 329 3 view .LVU28
 124 0066 0594     		str	r4, [sp, #20]
 125              		.loc 1 329 3 view .LVU29
 126 0068 1A6B     		ldr	r2, [r3, #48]
 127 006a 42F04002 		orr	r2, r2, #64
 128 006e 1A63     		str	r2, [r3, #48]
ARM GAS  /tmp/ccu8nWO0.s 			page 9


 129              		.loc 1 329 3 view .LVU30
 130 0070 1A6B     		ldr	r2, [r3, #48]
 131 0072 02F04002 		and	r2, r2, #64
 132 0076 0592     		str	r2, [sp, #20]
 133              		.loc 1 329 3 view .LVU31
 134 0078 059A     		ldr	r2, [sp, #20]
 135              	.LBE8:
 136              		.loc 1 329 3 view .LVU32
 330:Src/init.c    ****   __HAL_RCC_GPIOE_CLK_ENABLE();
 137              		.loc 1 330 3 view .LVU33
 138              	.LBB9:
 139              		.loc 1 330 3 view .LVU34
 140 007a 0694     		str	r4, [sp, #24]
 141              		.loc 1 330 3 view .LVU35
 142 007c 1A6B     		ldr	r2, [r3, #48]
 143 007e 42F01002 		orr	r2, r2, #16
 144 0082 1A63     		str	r2, [r3, #48]
 145              		.loc 1 330 3 view .LVU36
 146 0084 1A6B     		ldr	r2, [r3, #48]
 147 0086 02F01002 		and	r2, r2, #16
 148 008a 0692     		str	r2, [sp, #24]
 149              		.loc 1 330 3 view .LVU37
 150 008c 069A     		ldr	r2, [sp, #24]
 151              	.LBE9:
 152              		.loc 1 330 3 view .LVU38
 331:Src/init.c    ****   __HAL_RCC_GPIOD_CLK_ENABLE();
 153              		.loc 1 331 3 view .LVU39
 154              	.LBB10:
 155              		.loc 1 331 3 view .LVU40
 156 008e 0794     		str	r4, [sp, #28]
 157              		.loc 1 331 3 view .LVU41
 158 0090 1A6B     		ldr	r2, [r3, #48]
 159 0092 42F00802 		orr	r2, r2, #8
 160 0096 1A63     		str	r2, [r3, #48]
 161              		.loc 1 331 3 view .LVU42
 162 0098 1A6B     		ldr	r2, [r3, #48]
 163 009a 02F00802 		and	r2, r2, #8
 164 009e 0792     		str	r2, [sp, #28]
 165              		.loc 1 331 3 view .LVU43
 166 00a0 079A     		ldr	r2, [sp, #28]
 167              	.LBE10:
 168              		.loc 1 331 3 view .LVU44
 332:Src/init.c    ****   __HAL_RCC_GPIOA_CLK_ENABLE();
 169              		.loc 1 332 3 view .LVU45
 170              	.LBB11:
 171              		.loc 1 332 3 view .LVU46
 172 00a2 0894     		str	r4, [sp, #32]
 173              		.loc 1 332 3 view .LVU47
 174 00a4 1A6B     		ldr	r2, [r3, #48]
 175 00a6 42F00102 		orr	r2, r2, #1
 176 00aa 1A63     		str	r2, [r3, #48]
 177              		.loc 1 332 3 view .LVU48
 178 00ac 1B6B     		ldr	r3, [r3, #48]
 179 00ae 03F00103 		and	r3, r3, #1
 180 00b2 0893     		str	r3, [sp, #32]
 181              		.loc 1 332 3 view .LVU49
 182 00b4 089B     		ldr	r3, [sp, #32]
ARM GAS  /tmp/ccu8nWO0.s 			page 10


 183              	.LBE11:
 184              		.loc 1 332 3 view .LVU50
 333:Src/init.c    **** 
 334:Src/init.c    ****   /*Configure GPIO pin Output Level */
 335:Src/init.c    ****   HAL_GPIO_WritePin(GPIOF, HEAD_LED_Pin|TEST_Pin|MOTOR_SLEEP_Pin, GPIO_PIN_RESET);
 185              		.loc 1 335 3 view .LVU51
 186 00b6 394F     		ldr	r7, .L3+4
 187 00b8 2246     		mov	r2, r4
 188 00ba 4FF4A441 		mov	r1, #20992
 189 00be 3846     		mov	r0, r7
 190 00c0 FFF7FEFF 		bl	HAL_GPIO_WritePin
 191              	.LVL0:
 336:Src/init.c    **** 
 337:Src/init.c    ****   /*Configure GPIO pin Output Level */
 338:Src/init.c    ****   HAL_GPIO_WritePin(GPIOB, LD1_Pin|LD3_Pin|LD2_Pin, GPIO_PIN_RESET);
 192              		.loc 1 338 3 view .LVU52
 193 00c4 DFF8DCB0 		ldr	fp, .L3+12
 194 00c8 2246     		mov	r2, r4
 195 00ca 44F28101 		movw	r1, #16513
 196 00ce 5846     		mov	r0, fp
 197 00d0 FFF7FEFF 		bl	HAL_GPIO_WritePin
 198              	.LVL1:
 339:Src/init.c    **** 
 340:Src/init.c    ****   /*Configure GPIO pin Output Level */
 341:Src/init.c    ****   HAL_GPIO_WritePin(GPIOG, GPIO_PIN_1|USB_PowerSwitchOn_Pin|GPIO_PIN_13, GPIO_PIN_RESET);
 199              		.loc 1 341 3 view .LVU53
 200 00d4 DFF8D080 		ldr	r8, .L3+16
 201 00d8 2246     		mov	r2, r4
 202 00da 42F24201 		movw	r1, #8258
 203 00de 4046     		mov	r0, r8
 204 00e0 FFF7FEFF 		bl	HAL_GPIO_WritePin
 205              	.LVL2:
 342:Src/init.c    **** 
 343:Src/init.c    ****   /*Configure GPIO pin Output Level */
 344:Src/init.c    ****   HAL_GPIO_WritePin(GPIOE, GPIO_PIN_9|MOTOR_2_Pin, GPIO_PIN_RESET);
 206              		.loc 1 344 3 view .LVU54
 207 00e4 DFF8C490 		ldr	r9, .L3+20
 208 00e8 2246     		mov	r2, r4
 209 00ea 4FF42061 		mov	r1, #2560
 210 00ee 4846     		mov	r0, r9
 211 00f0 FFF7FEFF 		bl	HAL_GPIO_WritePin
 212              	.LVL3:
 345:Src/init.c    **** 
 346:Src/init.c    ****   /*Configure GPIO pin : USER_Btn_Pin */
 347:Src/init.c    ****   GPIO_InitStruct.Pin = USER_Btn_Pin;
 213              		.loc 1 347 3 view .LVU55
 214              		.loc 1 347 23 is_stmt 0 view .LVU56
 215 00f4 4FF4005A 		mov	r10, #8192
 216 00f8 CDF824A0 		str	r10, [sp, #36]
 348:Src/init.c    ****   GPIO_InitStruct.Mode = GPIO_MODE_IT_RISING;
 217              		.loc 1 348 3 is_stmt 1 view .LVU57
 218              		.loc 1 348 24 is_stmt 0 view .LVU58
 219 00fc 4FF48813 		mov	r3, #1114112
 220 0100 0A93     		str	r3, [sp, #40]
 349:Src/init.c    ****   GPIO_InitStruct.Pull = GPIO_NOPULL;
 221              		.loc 1 349 3 is_stmt 1 view .LVU59
 222              		.loc 1 349 24 is_stmt 0 view .LVU60
ARM GAS  /tmp/ccu8nWO0.s 			page 11


 223 0102 0B94     		str	r4, [sp, #44]
 350:Src/init.c    ****   HAL_GPIO_Init(USER_Btn_GPIO_Port, &GPIO_InitStruct);
 224              		.loc 1 350 3 is_stmt 1 view .LVU61
 225 0104 2946     		mov	r1, r5
 226 0106 2648     		ldr	r0, .L3+8
 227 0108 FFF7FEFF 		bl	HAL_GPIO_Init
 228              	.LVL4:
 351:Src/init.c    **** 
 352:Src/init.c    ****   /*Configure GPIO pins : HEAD_LED_Pin MOTOR_SLEEP_Pin */
 353:Src/init.c    ****   GPIO_InitStruct.Pin = HEAD_LED_Pin|MOTOR_SLEEP_Pin;
 229              		.loc 1 353 3 view .LVU62
 230              		.loc 1 353 23 is_stmt 0 view .LVU63
 231 010c 4FF48443 		mov	r3, #16896
 232 0110 0993     		str	r3, [sp, #36]
 354:Src/init.c    ****   GPIO_InitStruct.Mode = GPIO_MODE_OUTPUT_PP;
 233              		.loc 1 354 3 is_stmt 1 view .LVU64
 234              		.loc 1 354 24 is_stmt 0 view .LVU65
 235 0112 0126     		movs	r6, #1
 236 0114 0A96     		str	r6, [sp, #40]
 355:Src/init.c    ****   GPIO_InitStruct.Pull = GPIO_NOPULL;
 237              		.loc 1 355 3 is_stmt 1 view .LVU66
 238              		.loc 1 355 24 is_stmt 0 view .LVU67
 239 0116 0B94     		str	r4, [sp, #44]
 356:Src/init.c    ****   GPIO_InitStruct.Speed = GPIO_SPEED_FREQ_LOW;
 240              		.loc 1 356 3 is_stmt 1 view .LVU68
 241              		.loc 1 356 25 is_stmt 0 view .LVU69
 242 0118 0C94     		str	r4, [sp, #48]
 357:Src/init.c    ****   HAL_GPIO_Init(GPIOF, &GPIO_InitStruct);
 243              		.loc 1 357 3 is_stmt 1 view .LVU70
 244 011a 2946     		mov	r1, r5
 245 011c 3846     		mov	r0, r7
 246 011e FFF7FEFF 		bl	HAL_GPIO_Init
 247              	.LVL5:
 358:Src/init.c    **** 
 359:Src/init.c    ****   /*Configure GPIO pins : LD1_Pin LD3_Pin LD2_Pin */
 360:Src/init.c    ****   GPIO_InitStruct.Pin = LD1_Pin|LD3_Pin|LD2_Pin;
 248              		.loc 1 360 3 view .LVU71
 249              		.loc 1 360 23 is_stmt 0 view .LVU72
 250 0122 44F28103 		movw	r3, #16513
 251 0126 0993     		str	r3, [sp, #36]
 361:Src/init.c    ****   GPIO_InitStruct.Mode = GPIO_MODE_OUTPUT_PP;
 252              		.loc 1 361 3 is_stmt 1 view .LVU73
 253              		.loc 1 361 24 is_stmt 0 view .LVU74
 254 0128 0A96     		str	r6, [sp, #40]
 362:Src/init.c    ****   GPIO_InitStruct.Pull = GPIO_NOPULL;
 255              		.loc 1 362 3 is_stmt 1 view .LVU75
 256              		.loc 1 362 24 is_stmt 0 view .LVU76
 257 012a 0B94     		str	r4, [sp, #44]
 363:Src/init.c    ****   GPIO_InitStruct.Speed = GPIO_SPEED_FREQ_LOW;
 258              		.loc 1 363 3 is_stmt 1 view .LVU77
 259              		.loc 1 363 25 is_stmt 0 view .LVU78
 260 012c 0C94     		str	r4, [sp, #48]
 364:Src/init.c    ****   HAL_GPIO_Init(GPIOB, &GPIO_InitStruct);
 261              		.loc 1 364 3 is_stmt 1 view .LVU79
 262 012e 2946     		mov	r1, r5
 263 0130 5846     		mov	r0, fp
 264 0132 FFF7FEFF 		bl	HAL_GPIO_Init
ARM GAS  /tmp/ccu8nWO0.s 			page 12


 265              	.LVL6:
 365:Src/init.c    **** 
 366:Src/init.c    ****   /*Configure GPIO pin : TEST_Pin */
 367:Src/init.c    ****   GPIO_InitStruct.Pin = TEST_Pin;
 266              		.loc 1 367 3 view .LVU80
 267              		.loc 1 367 23 is_stmt 0 view .LVU81
 268 0136 4FF48053 		mov	r3, #4096
 269 013a 0993     		str	r3, [sp, #36]
 368:Src/init.c    ****   GPIO_InitStruct.Mode = GPIO_MODE_OUTPUT_PP;
 270              		.loc 1 368 3 is_stmt 1 view .LVU82
 271              		.loc 1 368 24 is_stmt 0 view .LVU83
 272 013c 0A96     		str	r6, [sp, #40]
 369:Src/init.c    ****   GPIO_InitStruct.Pull = GPIO_PULLUP;
 273              		.loc 1 369 3 is_stmt 1 view .LVU84
 274              		.loc 1 369 24 is_stmt 0 view .LVU85
 275 013e 0B96     		str	r6, [sp, #44]
 370:Src/init.c    ****   GPIO_InitStruct.Speed = GPIO_SPEED_FREQ_LOW;
 276              		.loc 1 370 3 is_stmt 1 view .LVU86
 277              		.loc 1 370 25 is_stmt 0 view .LVU87
 278 0140 0C94     		str	r4, [sp, #48]
 371:Src/init.c    ****   HAL_GPIO_Init(TEST_GPIO_Port, &GPIO_InitStruct);
 279              		.loc 1 371 3 is_stmt 1 view .LVU88
 280 0142 2946     		mov	r1, r5
 281 0144 3846     		mov	r0, r7
 282 0146 FFF7FEFF 		bl	HAL_GPIO_Init
 283              	.LVL7:
 372:Src/init.c    **** 
 373:Src/init.c    ****   /*Configure GPIO pin : MOTOR_FAULT_Pin */
 374:Src/init.c    ****   GPIO_InitStruct.Pin = MOTOR_FAULT_Pin;
 284              		.loc 1 374 3 view .LVU89
 285              		.loc 1 374 23 is_stmt 0 view .LVU90
 286 014a CDF824A0 		str	r10, [sp, #36]
 375:Src/init.c    ****   GPIO_InitStruct.Mode = GPIO_MODE_INPUT;
 287              		.loc 1 375 3 is_stmt 1 view .LVU91
 288              		.loc 1 375 24 is_stmt 0 view .LVU92
 289 014e 0A94     		str	r4, [sp, #40]
 376:Src/init.c    ****   GPIO_InitStruct.Pull = GPIO_NOPULL;
 290              		.loc 1 376 3 is_stmt 1 view .LVU93
 291              		.loc 1 376 24 is_stmt 0 view .LVU94
 292 0150 0B94     		str	r4, [sp, #44]
 377:Src/init.c    ****   HAL_GPIO_Init(MOTOR_FAULT_GPIO_Port, &GPIO_InitStruct);
 293              		.loc 1 377 3 is_stmt 1 view .LVU95
 294 0152 2946     		mov	r1, r5
 295 0154 3846     		mov	r0, r7
 296 0156 FFF7FEFF 		bl	HAL_GPIO_Init
 297              	.LVL8:
 378:Src/init.c    **** 
 379:Src/init.c    ****   /*Configure GPIO pins : PG1 USB_PowerSwitchOn_Pin PG13 */
 380:Src/init.c    ****   GPIO_InitStruct.Pin = GPIO_PIN_1|USB_PowerSwitchOn_Pin|GPIO_PIN_13;
 298              		.loc 1 380 3 view .LVU96
 299              		.loc 1 380 23 is_stmt 0 view .LVU97
 300 015a 42F24203 		movw	r3, #8258
 301 015e 0993     		str	r3, [sp, #36]
 381:Src/init.c    ****   GPIO_InitStruct.Mode = GPIO_MODE_OUTPUT_PP;
 302              		.loc 1 381 3 is_stmt 1 view .LVU98
 303              		.loc 1 381 24 is_stmt 0 view .LVU99
 304 0160 0A96     		str	r6, [sp, #40]
ARM GAS  /tmp/ccu8nWO0.s 			page 13


 382:Src/init.c    ****   GPIO_InitStruct.Pull = GPIO_NOPULL;
 305              		.loc 1 382 3 is_stmt 1 view .LVU100
 306              		.loc 1 382 24 is_stmt 0 view .LVU101
 307 0162 0B94     		str	r4, [sp, #44]
 383:Src/init.c    ****   GPIO_InitStruct.Speed = GPIO_SPEED_FREQ_LOW;
 308              		.loc 1 383 3 is_stmt 1 view .LVU102
 309              		.loc 1 383 25 is_stmt 0 view .LVU103
 310 0164 0C94     		str	r4, [sp, #48]
 384:Src/init.c    ****   HAL_GPIO_Init(GPIOG, &GPIO_InitStruct);
 311              		.loc 1 384 3 is_stmt 1 view .LVU104
 312 0166 2946     		mov	r1, r5
 313 0168 4046     		mov	r0, r8
 314 016a FFF7FEFF 		bl	HAL_GPIO_Init
 315              	.LVL9:
 385:Src/init.c    **** 
 386:Src/init.c    ****   /*Configure GPIO pins : PE9 MOTOR_2_Pin */
 387:Src/init.c    ****   GPIO_InitStruct.Pin = GPIO_PIN_9|MOTOR_2_Pin;
 316              		.loc 1 387 3 view .LVU105
 317              		.loc 1 387 23 is_stmt 0 view .LVU106
 318 016e 4FF42063 		mov	r3, #2560
 319 0172 0993     		str	r3, [sp, #36]
 388:Src/init.c    ****   GPIO_InitStruct.Mode = GPIO_MODE_OUTPUT_PP;
 320              		.loc 1 388 3 is_stmt 1 view .LVU107
 321              		.loc 1 388 24 is_stmt 0 view .LVU108
 322 0174 0A96     		str	r6, [sp, #40]
 389:Src/init.c    ****   GPIO_InitStruct.Pull = GPIO_NOPULL;
 323              		.loc 1 389 3 is_stmt 1 view .LVU109
 324              		.loc 1 389 24 is_stmt 0 view .LVU110
 325 0176 0B94     		str	r4, [sp, #44]
 390:Src/init.c    ****   GPIO_InitStruct.Speed = GPIO_SPEED_FREQ_LOW;
 326              		.loc 1 390 3 is_stmt 1 view .LVU111
 327              		.loc 1 390 25 is_stmt 0 view .LVU112
 328 0178 0C94     		str	r4, [sp, #48]
 391:Src/init.c    ****   HAL_GPIO_Init(GPIOE, &GPIO_InitStruct);
 329              		.loc 1 391 3 is_stmt 1 view .LVU113
 330 017a 2946     		mov	r1, r5
 331 017c 4846     		mov	r0, r9
 332 017e FFF7FEFF 		bl	HAL_GPIO_Init
 333              	.LVL10:
 392:Src/init.c    **** 
 393:Src/init.c    ****   /*Configure GPIO pin : USB_OverCurrent_Pin */
 394:Src/init.c    ****   GPIO_InitStruct.Pin = USB_OverCurrent_Pin;
 334              		.loc 1 394 3 view .LVU114
 335              		.loc 1 394 23 is_stmt 0 view .LVU115
 336 0182 8023     		movs	r3, #128
 337 0184 0993     		str	r3, [sp, #36]
 395:Src/init.c    ****   GPIO_InitStruct.Mode = GPIO_MODE_INPUT;
 338              		.loc 1 395 3 is_stmt 1 view .LVU116
 339              		.loc 1 395 24 is_stmt 0 view .LVU117
 340 0186 0A94     		str	r4, [sp, #40]
 396:Src/init.c    ****   GPIO_InitStruct.Pull = GPIO_NOPULL;
 341              		.loc 1 396 3 is_stmt 1 view .LVU118
 342              		.loc 1 396 24 is_stmt 0 view .LVU119
 343 0188 0B94     		str	r4, [sp, #44]
 397:Src/init.c    ****   HAL_GPIO_Init(USB_OverCurrent_GPIO_Port, &GPIO_InitStruct);
 344              		.loc 1 397 3 is_stmt 1 view .LVU120
 345 018a 2946     		mov	r1, r5
ARM GAS  /tmp/ccu8nWO0.s 			page 14


 346 018c 4046     		mov	r0, r8
 347 018e FFF7FEFF 		bl	HAL_GPIO_Init
 348              	.LVL11:
 398:Src/init.c    **** 
 399:Src/init.c    ****   /* USER CODE BEGIN MX_GPIO_Init_2 */
 400:Src/init.c    **** 
 401:Src/init.c    ****   /* USER CODE END MX_GPIO_Init_2 */
 402:Src/init.c    **** }
 349              		.loc 1 402 1 is_stmt 0 view .LVU121
 350 0192 0FB0     		add	sp, sp, #60
 351              	.LCFI2:
 352              		.cfi_def_cfa_offset 36
 353              		@ sp needed
 354 0194 BDE8F08F 		pop	{r4, r5, r6, r7, r8, r9, r10, fp, pc}
 355              	.L4:
 356              		.align	2
 357              	.L3:
 358 0198 00380240 		.word	1073887232
 359 019c 00140240 		.word	1073878016
 360 01a0 00080240 		.word	1073874944
 361 01a4 00040240 		.word	1073873920
 362 01a8 00180240 		.word	1073879040
 363 01ac 00100240 		.word	1073876992
 364              		.cfi_endproc
 365              	.LFE140:
 367              		.section	.text.HAL_CAN_RxFifo0MsgPendingCallback,"ax",%progbits
 368              		.align	1
 369              		.global	HAL_CAN_RxFifo0MsgPendingCallback
 370              		.syntax unified
 371              		.thumb
 372              		.thumb_func
 374              	HAL_CAN_RxFifo0MsgPendingCallback:
 375              	.LVL12:
 376              	.LFB141:
 403:Src/init.c    **** 
 404:Src/init.c    **** /* USER CODE BEGIN 4 */
 405:Src/init.c    **** void HAL_CAN_RxFifo0MsgPendingCallback(CAN_HandleTypeDef *hcan)
 406:Src/init.c    **** {
 377              		.loc 1 406 1 is_stmt 1 view -0
 378              		.cfi_startproc
 379              		@ args = 0, pretend = 0, frame = 0
 380              		@ frame_needed = 0, uses_anonymous_args = 0
 381              		.loc 1 406 1 is_stmt 0 view .LVU123
 382 0000 08B5     		push	{r3, lr}
 383              	.LCFI3:
 384              		.cfi_def_cfa_offset 8
 385              		.cfi_offset 3, -8
 386              		.cfi_offset 14, -4
 407:Src/init.c    ****   // Retrieve the message from the FIFO buffer
 408:Src/init.c    ****   if (HAL_CAN_GetRxMessage(hcan, CAN_RX_FIFO0, &RxHeader, RxData) == HAL_OK)
 387              		.loc 1 408 3 is_stmt 1 view .LVU124
 388              		.loc 1 408 7 is_stmt 0 view .LVU125
 389 0002 2A4B     		ldr	r3, .L19
 390 0004 2A4A     		ldr	r2, .L19+4
 391 0006 0021     		movs	r1, #0
 392 0008 FFF7FEFF 		bl	HAL_CAN_GetRxMessage
 393              	.LVL13:
ARM GAS  /tmp/ccu8nWO0.s 			page 15


 394              		.loc 1 408 6 discriminator 1 view .LVU126
 395 000c 68B9     		cbnz	r0, .L5
 409:Src/init.c    ****   {
 410:Src/init.c    ****     // Headlights
 411:Src/init.c    ****     if (RxHeader.StdId == 0x102 && RxHeader.DLC == 1)
 396              		.loc 1 411 5 is_stmt 1 view .LVU127
 397              		.loc 1 411 17 is_stmt 0 view .LVU128
 398 000e 284B     		ldr	r3, .L19+4
 399 0010 1B68     		ldr	r3, [r3]
 400              		.loc 1 411 8 view .LVU129
 401 0012 B3F5817F 		cmp	r3, #258
 402 0016 09D0     		beq	.L13
 403              	.L7:
 412:Src/init.c    ****     {
 413:Src/init.c    ****       if (RxData[0] == 0x11) {
 414:Src/init.c    ****       	HAL_GPIO_WritePin(GPIOF, GPIO_PIN_9, GPIO_PIN_SET);
 415:Src/init.c    ****       } else {
 416:Src/init.c    ****       	HAL_GPIO_WritePin(GPIOF, GPIO_PIN_9, GPIO_PIN_RESET);
 417:Src/init.c    ****       }
 418:Src/init.c    ****     }
 419:Src/init.c    **** 
 420:Src/init.c    ****     // Bonnet
 421:Src/init.c    ****     if (RxHeader.StdId == 0x203 && RxHeader.DLC == 1)
 404              		.loc 1 421 5 is_stmt 1 view .LVU130
 405              		.loc 1 421 17 is_stmt 0 view .LVU131
 406 0018 254B     		ldr	r3, .L19+4
 407 001a 1B68     		ldr	r3, [r3]
 408              		.loc 1 421 8 view .LVU132
 409 001c 40F20322 		movw	r2, #515
 410 0020 9342     		cmp	r3, r2
 411 0022 19D0     		beq	.L14
 412              	.L9:
 422:Src/init.c    ****     {
 423:Src/init.c    ****       if (RxData[0] == 0x11) {
 424:Src/init.c    ****       	__HAL_TIM_SET_COMPARE(&htim2, TIM_CHANNEL_3, 1200);
 425:Src/init.c    ****       } else {
 426:Src/init.c    ****       	__HAL_TIM_SET_COMPARE(&htim2, TIM_CHANNEL_3, 800);
 427:Src/init.c    ****       }
 428:Src/init.c    ****     }
 429:Src/init.c    **** 
 430:Src/init.c    ****     // Wheels
 431:Src/init.c    ****     if (RxHeader.StdId == 0x304 && RxHeader.DLC == 1)
 413              		.loc 1 431 5 is_stmt 1 view .LVU133
 414              		.loc 1 431 8 is_stmt 0 view .LVU134
 415 0024 B3F5417F 		cmp	r3, #772
 416 0028 2AD0     		beq	.L15
 417              	.L5:
 432:Src/init.c    ****     {
 433:Src/init.c    ****       if (RxData[0] == 0x11) {
 434:Src/init.c    ****       	HAL_GPIO_WritePin(GPIOE, GPIO_PIN_11, GPIO_PIN_SET);
 435:Src/init.c    ****       } else {
 436:Src/init.c    ****       	HAL_GPIO_WritePin(GPIOE, GPIO_PIN_11, GPIO_PIN_RESET);
 437:Src/init.c    ****       }
 438:Src/init.c    ****     }
 439:Src/init.c    **** 
 440:Src/init.c    ****     // Wheels
 441:Src/init.c    ****   }
ARM GAS  /tmp/ccu8nWO0.s 			page 16


 442:Src/init.c    **** }
 418              		.loc 1 442 1 view .LVU135
 419 002a 08BD     		pop	{r3, pc}
 420              	.L13:
 411:Src/init.c    ****     {
 421              		.loc 1 411 44 discriminator 1 view .LVU136
 422 002c 204B     		ldr	r3, .L19+4
 423 002e 1B69     		ldr	r3, [r3, #16]
 411:Src/init.c    ****     {
 424              		.loc 1 411 33 discriminator 1 view .LVU137
 425 0030 012B     		cmp	r3, #1
 426 0032 F1D1     		bne	.L7
 413:Src/init.c    ****       	HAL_GPIO_WritePin(GPIOF, GPIO_PIN_9, GPIO_PIN_SET);
 427              		.loc 1 413 7 is_stmt 1 view .LVU138
 413:Src/init.c    ****       	HAL_GPIO_WritePin(GPIOF, GPIO_PIN_9, GPIO_PIN_SET);
 428              		.loc 1 413 17 is_stmt 0 view .LVU139
 429 0034 1D4B     		ldr	r3, .L19
 430 0036 1B78     		ldrb	r3, [r3]	@ zero_extendqisi2
 413:Src/init.c    ****       	HAL_GPIO_WritePin(GPIOF, GPIO_PIN_9, GPIO_PIN_SET);
 431              		.loc 1 413 10 view .LVU140
 432 0038 112B     		cmp	r3, #17
 433 003a 06D0     		beq	.L16
 416:Src/init.c    ****       }
 434              		.loc 1 416 8 is_stmt 1 view .LVU141
 435 003c 0022     		movs	r2, #0
 436 003e 4FF40071 		mov	r1, #512
 437 0042 1C48     		ldr	r0, .L19+8
 438 0044 FFF7FEFF 		bl	HAL_GPIO_WritePin
 439              	.LVL14:
 440 0048 E6E7     		b	.L7
 441              	.L16:
 414:Src/init.c    ****       } else {
 442              		.loc 1 414 8 view .LVU142
 443 004a 0122     		movs	r2, #1
 444 004c 4FF40071 		mov	r1, #512
 445 0050 1848     		ldr	r0, .L19+8
 446 0052 FFF7FEFF 		bl	HAL_GPIO_WritePin
 447              	.LVL15:
 448 0056 DFE7     		b	.L7
 449              	.L14:
 421:Src/init.c    ****     {
 450              		.loc 1 421 44 is_stmt 0 discriminator 1 view .LVU143
 451 0058 154A     		ldr	r2, .L19+4
 452 005a 1269     		ldr	r2, [r2, #16]
 421:Src/init.c    ****     {
 453              		.loc 1 421 33 discriminator 1 view .LVU144
 454 005c 012A     		cmp	r2, #1
 455 005e E1D1     		bne	.L9
 423:Src/init.c    ****       	__HAL_TIM_SET_COMPARE(&htim2, TIM_CHANNEL_3, 1200);
 456              		.loc 1 423 7 is_stmt 1 view .LVU145
 423:Src/init.c    ****       	__HAL_TIM_SET_COMPARE(&htim2, TIM_CHANNEL_3, 1200);
 457              		.loc 1 423 17 is_stmt 0 view .LVU146
 458 0060 124A     		ldr	r2, .L19
 459 0062 1278     		ldrb	r2, [r2]	@ zero_extendqisi2
 423:Src/init.c    ****       	__HAL_TIM_SET_COMPARE(&htim2, TIM_CHANNEL_3, 1200);
 460              		.loc 1 423 10 view .LVU147
 461 0064 112A     		cmp	r2, #17
ARM GAS  /tmp/ccu8nWO0.s 			page 17


 462 0066 05D0     		beq	.L17
 426:Src/init.c    ****       }
 463              		.loc 1 426 8 is_stmt 1 view .LVU148
 464 0068 134A     		ldr	r2, .L19+12
 465 006a 1268     		ldr	r2, [r2]
 466 006c 4FF44871 		mov	r1, #800
 467 0070 D163     		str	r1, [r2, #60]
 468 0072 D7E7     		b	.L9
 469              	.L17:
 424:Src/init.c    ****       } else {
 470              		.loc 1 424 8 view .LVU149
 471 0074 104A     		ldr	r2, .L19+12
 472 0076 1268     		ldr	r2, [r2]
 473 0078 4FF49661 		mov	r1, #1200
 474 007c D163     		str	r1, [r2, #60]
 475 007e D1E7     		b	.L9
 476              	.L15:
 431:Src/init.c    ****     {
 477              		.loc 1 431 44 is_stmt 0 discriminator 1 view .LVU150
 478 0080 0B4B     		ldr	r3, .L19+4
 479 0082 1B69     		ldr	r3, [r3, #16]
 431:Src/init.c    ****     {
 480              		.loc 1 431 33 discriminator 1 view .LVU151
 481 0084 012B     		cmp	r3, #1
 482 0086 D0D1     		bne	.L5
 433:Src/init.c    ****       	HAL_GPIO_WritePin(GPIOE, GPIO_PIN_11, GPIO_PIN_SET);
 483              		.loc 1 433 7 is_stmt 1 view .LVU152
 433:Src/init.c    ****       	HAL_GPIO_WritePin(GPIOE, GPIO_PIN_11, GPIO_PIN_SET);
 484              		.loc 1 433 17 is_stmt 0 view .LVU153
 485 0088 084B     		ldr	r3, .L19
 486 008a 1B78     		ldrb	r3, [r3]	@ zero_extendqisi2
 433:Src/init.c    ****       	HAL_GPIO_WritePin(GPIOE, GPIO_PIN_11, GPIO_PIN_SET);
 487              		.loc 1 433 10 view .LVU154
 488 008c 112B     		cmp	r3, #17
 489 008e 06D0     		beq	.L18
 436:Src/init.c    ****       }
 490              		.loc 1 436 8 is_stmt 1 view .LVU155
 491 0090 0022     		movs	r2, #0
 492 0092 4FF40061 		mov	r1, #2048
 493 0096 0948     		ldr	r0, .L19+16
 494 0098 FFF7FEFF 		bl	HAL_GPIO_WritePin
 495              	.LVL16:
 496              		.loc 1 442 1 is_stmt 0 view .LVU156
 497 009c C5E7     		b	.L5
 498              	.L18:
 434:Src/init.c    ****       } else {
 499              		.loc 1 434 8 is_stmt 1 view .LVU157
 500 009e 0122     		movs	r2, #1
 501 00a0 4FF40061 		mov	r1, #2048
 502 00a4 0548     		ldr	r0, .L19+16
 503 00a6 FFF7FEFF 		bl	HAL_GPIO_WritePin
 504              	.LVL17:
 505 00aa BEE7     		b	.L5
 506              	.L20:
 507              		.align	2
 508              	.L19:
 509 00ac 00000000 		.word	RxData
ARM GAS  /tmp/ccu8nWO0.s 			page 18


 510 00b0 00000000 		.word	RxHeader
 511 00b4 00140240 		.word	1073878016
 512 00b8 00000000 		.word	htim2
 513 00bc 00100240 		.word	1073876992
 514              		.cfi_endproc
 515              	.LFE141:
 517              		.section	.text.Error_Handler,"ax",%progbits
 518              		.align	1
 519              		.global	Error_Handler
 520              		.syntax unified
 521              		.thumb
 522              		.thumb_func
 524              	Error_Handler:
 525              	.LFB142:
 443:Src/init.c    **** /* USER CODE END 4 */
 444:Src/init.c    **** 
 445:Src/init.c    **** /**
 446:Src/init.c    ****   * @brief  This function is executed in case of error occurrence.
 447:Src/init.c    ****   * @retval None
 448:Src/init.c    ****   */
 449:Src/init.c    **** void Error_Handler(void)
 450:Src/init.c    **** {
 526              		.loc 1 450 1 view -0
 527              		.cfi_startproc
 528              		@ Volatile: function does not return.
 529              		@ args = 0, pretend = 0, frame = 0
 530              		@ frame_needed = 0, uses_anonymous_args = 0
 531              		@ link register save eliminated.
 451:Src/init.c    ****   /* USER CODE BEGIN Error_Handler_Debug */
 452:Src/init.c    ****   /* User can add his own implementation to report the HAL error return state */
 453:Src/init.c    ****   __disable_irq();
 532              		.loc 1 453 3 view .LVU159
 533              	.LBB12:
 534              	.LBI12:
 535              		.file 2 "Drivers/CMSIS/Include/cmsis_gcc.h"
   1:Drivers/CMSIS/Include/cmsis_gcc.h **** /**************************************************************************//**
   2:Drivers/CMSIS/Include/cmsis_gcc.h ****  * @file     cmsis_gcc.h
   3:Drivers/CMSIS/Include/cmsis_gcc.h ****  * @brief    CMSIS compiler GCC header file
   4:Drivers/CMSIS/Include/cmsis_gcc.h ****  * @version  V5.4.1
   5:Drivers/CMSIS/Include/cmsis_gcc.h ****  * @date     27. May 2021
   6:Drivers/CMSIS/Include/cmsis_gcc.h ****  ******************************************************************************/
   7:Drivers/CMSIS/Include/cmsis_gcc.h **** /*
   8:Drivers/CMSIS/Include/cmsis_gcc.h ****  * Copyright (c) 2009-2021 Arm Limited. All rights reserved.
   9:Drivers/CMSIS/Include/cmsis_gcc.h ****  *
  10:Drivers/CMSIS/Include/cmsis_gcc.h ****  * SPDX-License-Identifier: Apache-2.0
  11:Drivers/CMSIS/Include/cmsis_gcc.h ****  *
  12:Drivers/CMSIS/Include/cmsis_gcc.h ****  * Licensed under the Apache License, Version 2.0 (the License); you may
  13:Drivers/CMSIS/Include/cmsis_gcc.h ****  * not use this file except in compliance with the License.
  14:Drivers/CMSIS/Include/cmsis_gcc.h ****  * You may obtain a copy of the License at
  15:Drivers/CMSIS/Include/cmsis_gcc.h ****  *
  16:Drivers/CMSIS/Include/cmsis_gcc.h ****  * www.apache.org/licenses/LICENSE-2.0
  17:Drivers/CMSIS/Include/cmsis_gcc.h ****  *
  18:Drivers/CMSIS/Include/cmsis_gcc.h ****  * Unless required by applicable law or agreed to in writing, software
  19:Drivers/CMSIS/Include/cmsis_gcc.h ****  * distributed under the License is distributed on an AS IS BASIS, WITHOUT
  20:Drivers/CMSIS/Include/cmsis_gcc.h ****  * WARRANTIES OR CONDITIONS OF ANY KIND, either express or implied.
  21:Drivers/CMSIS/Include/cmsis_gcc.h ****  * See the License for the specific language governing permissions and
  22:Drivers/CMSIS/Include/cmsis_gcc.h ****  * limitations under the License.
ARM GAS  /tmp/ccu8nWO0.s 			page 19


  23:Drivers/CMSIS/Include/cmsis_gcc.h ****  */
  24:Drivers/CMSIS/Include/cmsis_gcc.h **** 
  25:Drivers/CMSIS/Include/cmsis_gcc.h **** #ifndef __CMSIS_GCC_H
  26:Drivers/CMSIS/Include/cmsis_gcc.h **** #define __CMSIS_GCC_H
  27:Drivers/CMSIS/Include/cmsis_gcc.h **** 
  28:Drivers/CMSIS/Include/cmsis_gcc.h **** /* ignore some GCC warnings */
  29:Drivers/CMSIS/Include/cmsis_gcc.h **** #pragma GCC diagnostic push
  30:Drivers/CMSIS/Include/cmsis_gcc.h **** #pragma GCC diagnostic ignored "-Wsign-conversion"
  31:Drivers/CMSIS/Include/cmsis_gcc.h **** #pragma GCC diagnostic ignored "-Wconversion"
  32:Drivers/CMSIS/Include/cmsis_gcc.h **** #pragma GCC diagnostic ignored "-Wunused-parameter"
  33:Drivers/CMSIS/Include/cmsis_gcc.h **** 
  34:Drivers/CMSIS/Include/cmsis_gcc.h **** /* Fallback for __has_builtin */
  35:Drivers/CMSIS/Include/cmsis_gcc.h **** #ifndef __has_builtin
  36:Drivers/CMSIS/Include/cmsis_gcc.h ****   #define __has_builtin(x) (0)
  37:Drivers/CMSIS/Include/cmsis_gcc.h **** #endif
  38:Drivers/CMSIS/Include/cmsis_gcc.h **** 
  39:Drivers/CMSIS/Include/cmsis_gcc.h **** /* CMSIS compiler specific defines */
  40:Drivers/CMSIS/Include/cmsis_gcc.h **** #ifndef   __ASM
  41:Drivers/CMSIS/Include/cmsis_gcc.h ****   #define __ASM                                  __asm
  42:Drivers/CMSIS/Include/cmsis_gcc.h **** #endif
  43:Drivers/CMSIS/Include/cmsis_gcc.h **** #ifndef   __INLINE
  44:Drivers/CMSIS/Include/cmsis_gcc.h ****   #define __INLINE                               inline
  45:Drivers/CMSIS/Include/cmsis_gcc.h **** #endif
  46:Drivers/CMSIS/Include/cmsis_gcc.h **** #ifndef   __STATIC_INLINE
  47:Drivers/CMSIS/Include/cmsis_gcc.h ****   #define __STATIC_INLINE                        static inline
  48:Drivers/CMSIS/Include/cmsis_gcc.h **** #endif
  49:Drivers/CMSIS/Include/cmsis_gcc.h **** #ifndef   __STATIC_FORCEINLINE
  50:Drivers/CMSIS/Include/cmsis_gcc.h ****   #define __STATIC_FORCEINLINE                   __attribute__((always_inline)) static inline
  51:Drivers/CMSIS/Include/cmsis_gcc.h **** #endif
  52:Drivers/CMSIS/Include/cmsis_gcc.h **** #ifndef   __NO_RETURN
  53:Drivers/CMSIS/Include/cmsis_gcc.h ****   #define __NO_RETURN                            __attribute__((__noreturn__))
  54:Drivers/CMSIS/Include/cmsis_gcc.h **** #endif
  55:Drivers/CMSIS/Include/cmsis_gcc.h **** #ifndef   __USED
  56:Drivers/CMSIS/Include/cmsis_gcc.h ****   #define __USED                                 __attribute__((used))
  57:Drivers/CMSIS/Include/cmsis_gcc.h **** #endif
  58:Drivers/CMSIS/Include/cmsis_gcc.h **** #ifndef   __WEAK
  59:Drivers/CMSIS/Include/cmsis_gcc.h ****   #define __WEAK                                 __attribute__((weak))
  60:Drivers/CMSIS/Include/cmsis_gcc.h **** #endif
  61:Drivers/CMSIS/Include/cmsis_gcc.h **** #ifndef   __PACKED
  62:Drivers/CMSIS/Include/cmsis_gcc.h ****   #define __PACKED                               __attribute__((packed, aligned(1)))
  63:Drivers/CMSIS/Include/cmsis_gcc.h **** #endif
  64:Drivers/CMSIS/Include/cmsis_gcc.h **** #ifndef   __PACKED_STRUCT
  65:Drivers/CMSIS/Include/cmsis_gcc.h ****   #define __PACKED_STRUCT                        struct __attribute__((packed, aligned(1)))
  66:Drivers/CMSIS/Include/cmsis_gcc.h **** #endif
  67:Drivers/CMSIS/Include/cmsis_gcc.h **** #ifndef   __PACKED_UNION
  68:Drivers/CMSIS/Include/cmsis_gcc.h ****   #define __PACKED_UNION                         union __attribute__((packed, aligned(1)))
  69:Drivers/CMSIS/Include/cmsis_gcc.h **** #endif
  70:Drivers/CMSIS/Include/cmsis_gcc.h **** #ifndef   __UNALIGNED_UINT32        /* deprecated */
  71:Drivers/CMSIS/Include/cmsis_gcc.h ****   #pragma GCC diagnostic push
  72:Drivers/CMSIS/Include/cmsis_gcc.h ****   #pragma GCC diagnostic ignored "-Wpacked"
  73:Drivers/CMSIS/Include/cmsis_gcc.h ****   #pragma GCC diagnostic ignored "-Wattributes"
  74:Drivers/CMSIS/Include/cmsis_gcc.h ****   struct __attribute__((packed)) T_UINT32 { uint32_t v; };
  75:Drivers/CMSIS/Include/cmsis_gcc.h ****   #pragma GCC diagnostic pop
  76:Drivers/CMSIS/Include/cmsis_gcc.h ****   #define __UNALIGNED_UINT32(x)                  (((struct T_UINT32 *)(x))->v)
  77:Drivers/CMSIS/Include/cmsis_gcc.h **** #endif
  78:Drivers/CMSIS/Include/cmsis_gcc.h **** #ifndef   __UNALIGNED_UINT16_WRITE
  79:Drivers/CMSIS/Include/cmsis_gcc.h ****   #pragma GCC diagnostic push
ARM GAS  /tmp/ccu8nWO0.s 			page 20


  80:Drivers/CMSIS/Include/cmsis_gcc.h ****   #pragma GCC diagnostic ignored "-Wpacked"
  81:Drivers/CMSIS/Include/cmsis_gcc.h ****   #pragma GCC diagnostic ignored "-Wattributes"
  82:Drivers/CMSIS/Include/cmsis_gcc.h ****   __PACKED_STRUCT T_UINT16_WRITE { uint16_t v; };
  83:Drivers/CMSIS/Include/cmsis_gcc.h ****   #pragma GCC diagnostic pop
  84:Drivers/CMSIS/Include/cmsis_gcc.h ****   #define __UNALIGNED_UINT16_WRITE(addr, val)    (void)((((struct T_UINT16_WRITE *)(void *)(addr))-
  85:Drivers/CMSIS/Include/cmsis_gcc.h **** #endif
  86:Drivers/CMSIS/Include/cmsis_gcc.h **** #ifndef   __UNALIGNED_UINT16_READ
  87:Drivers/CMSIS/Include/cmsis_gcc.h ****   #pragma GCC diagnostic push
  88:Drivers/CMSIS/Include/cmsis_gcc.h ****   #pragma GCC diagnostic ignored "-Wpacked"
  89:Drivers/CMSIS/Include/cmsis_gcc.h ****   #pragma GCC diagnostic ignored "-Wattributes"
  90:Drivers/CMSIS/Include/cmsis_gcc.h ****   __PACKED_STRUCT T_UINT16_READ { uint16_t v; };
  91:Drivers/CMSIS/Include/cmsis_gcc.h ****   #pragma GCC diagnostic pop
  92:Drivers/CMSIS/Include/cmsis_gcc.h ****   #define __UNALIGNED_UINT16_READ(addr)          (((const struct T_UINT16_READ *)(const void *)(add
  93:Drivers/CMSIS/Include/cmsis_gcc.h **** #endif
  94:Drivers/CMSIS/Include/cmsis_gcc.h **** #ifndef   __UNALIGNED_UINT32_WRITE
  95:Drivers/CMSIS/Include/cmsis_gcc.h ****   #pragma GCC diagnostic push
  96:Drivers/CMSIS/Include/cmsis_gcc.h ****   #pragma GCC diagnostic ignored "-Wpacked"
  97:Drivers/CMSIS/Include/cmsis_gcc.h ****   #pragma GCC diagnostic ignored "-Wattributes"
  98:Drivers/CMSIS/Include/cmsis_gcc.h ****   __PACKED_STRUCT T_UINT32_WRITE { uint32_t v; };
  99:Drivers/CMSIS/Include/cmsis_gcc.h ****   #pragma GCC diagnostic pop
 100:Drivers/CMSIS/Include/cmsis_gcc.h ****   #define __UNALIGNED_UINT32_WRITE(addr, val)    (void)((((struct T_UINT32_WRITE *)(void *)(addr))-
 101:Drivers/CMSIS/Include/cmsis_gcc.h **** #endif
 102:Drivers/CMSIS/Include/cmsis_gcc.h **** #ifndef   __UNALIGNED_UINT32_READ
 103:Drivers/CMSIS/Include/cmsis_gcc.h ****   #pragma GCC diagnostic push
 104:Drivers/CMSIS/Include/cmsis_gcc.h ****   #pragma GCC diagnostic ignored "-Wpacked"
 105:Drivers/CMSIS/Include/cmsis_gcc.h ****   #pragma GCC diagnostic ignored "-Wattributes"
 106:Drivers/CMSIS/Include/cmsis_gcc.h ****   __PACKED_STRUCT T_UINT32_READ { uint32_t v; };
 107:Drivers/CMSIS/Include/cmsis_gcc.h ****   #pragma GCC diagnostic pop
 108:Drivers/CMSIS/Include/cmsis_gcc.h ****   #define __UNALIGNED_UINT32_READ(addr)          (((const struct T_UINT32_READ *)(const void *)(add
 109:Drivers/CMSIS/Include/cmsis_gcc.h **** #endif
 110:Drivers/CMSIS/Include/cmsis_gcc.h **** #ifndef   __ALIGNED
 111:Drivers/CMSIS/Include/cmsis_gcc.h ****   #define __ALIGNED(x)                           __attribute__((aligned(x)))
 112:Drivers/CMSIS/Include/cmsis_gcc.h **** #endif
 113:Drivers/CMSIS/Include/cmsis_gcc.h **** #ifndef   __RESTRICT
 114:Drivers/CMSIS/Include/cmsis_gcc.h ****   #define __RESTRICT                             __restrict
 115:Drivers/CMSIS/Include/cmsis_gcc.h **** #endif
 116:Drivers/CMSIS/Include/cmsis_gcc.h **** #ifndef   __COMPILER_BARRIER
 117:Drivers/CMSIS/Include/cmsis_gcc.h ****   #define __COMPILER_BARRIER()                   __ASM volatile("":::"memory")
 118:Drivers/CMSIS/Include/cmsis_gcc.h **** #endif
 119:Drivers/CMSIS/Include/cmsis_gcc.h **** 
 120:Drivers/CMSIS/Include/cmsis_gcc.h **** /* #########################  Startup and Lowlevel Init  ######################## */
 121:Drivers/CMSIS/Include/cmsis_gcc.h **** 
 122:Drivers/CMSIS/Include/cmsis_gcc.h **** #ifndef __PROGRAM_START
 123:Drivers/CMSIS/Include/cmsis_gcc.h **** 
 124:Drivers/CMSIS/Include/cmsis_gcc.h **** /**
 125:Drivers/CMSIS/Include/cmsis_gcc.h ****   \brief   Initializes data and bss sections
 126:Drivers/CMSIS/Include/cmsis_gcc.h ****   \details This default implementations initialized all data and additional bss
 127:Drivers/CMSIS/Include/cmsis_gcc.h ****            sections relying on .copy.table and .zero.table specified properly
 128:Drivers/CMSIS/Include/cmsis_gcc.h ****            in the used linker script.
 129:Drivers/CMSIS/Include/cmsis_gcc.h **** 
 130:Drivers/CMSIS/Include/cmsis_gcc.h ****  */
 131:Drivers/CMSIS/Include/cmsis_gcc.h **** __STATIC_FORCEINLINE __NO_RETURN void __cmsis_start(void)
 132:Drivers/CMSIS/Include/cmsis_gcc.h **** {
 133:Drivers/CMSIS/Include/cmsis_gcc.h ****   extern void _start(void) __NO_RETURN;
 134:Drivers/CMSIS/Include/cmsis_gcc.h **** 
 135:Drivers/CMSIS/Include/cmsis_gcc.h ****   typedef struct {
 136:Drivers/CMSIS/Include/cmsis_gcc.h ****     uint32_t const* src;
ARM GAS  /tmp/ccu8nWO0.s 			page 21


 137:Drivers/CMSIS/Include/cmsis_gcc.h ****     uint32_t* dest;
 138:Drivers/CMSIS/Include/cmsis_gcc.h ****     uint32_t  wlen;
 139:Drivers/CMSIS/Include/cmsis_gcc.h ****   } __copy_table_t;
 140:Drivers/CMSIS/Include/cmsis_gcc.h **** 
 141:Drivers/CMSIS/Include/cmsis_gcc.h ****   typedef struct {
 142:Drivers/CMSIS/Include/cmsis_gcc.h ****     uint32_t* dest;
 143:Drivers/CMSIS/Include/cmsis_gcc.h ****     uint32_t  wlen;
 144:Drivers/CMSIS/Include/cmsis_gcc.h ****   } __zero_table_t;
 145:Drivers/CMSIS/Include/cmsis_gcc.h **** 
 146:Drivers/CMSIS/Include/cmsis_gcc.h ****   extern const __copy_table_t __copy_table_start__;
 147:Drivers/CMSIS/Include/cmsis_gcc.h ****   extern const __copy_table_t __copy_table_end__;
 148:Drivers/CMSIS/Include/cmsis_gcc.h ****   extern const __zero_table_t __zero_table_start__;
 149:Drivers/CMSIS/Include/cmsis_gcc.h ****   extern const __zero_table_t __zero_table_end__;
 150:Drivers/CMSIS/Include/cmsis_gcc.h **** 
 151:Drivers/CMSIS/Include/cmsis_gcc.h ****   for (__copy_table_t const* pTable = &__copy_table_start__; pTable < &__copy_table_end__; ++pTable
 152:Drivers/CMSIS/Include/cmsis_gcc.h ****     for(uint32_t i=0u; i<pTable->wlen; ++i) {
 153:Drivers/CMSIS/Include/cmsis_gcc.h ****       pTable->dest[i] = pTable->src[i];
 154:Drivers/CMSIS/Include/cmsis_gcc.h ****     }
 155:Drivers/CMSIS/Include/cmsis_gcc.h ****   }
 156:Drivers/CMSIS/Include/cmsis_gcc.h **** 
 157:Drivers/CMSIS/Include/cmsis_gcc.h ****   for (__zero_table_t const* pTable = &__zero_table_start__; pTable < &__zero_table_end__; ++pTable
 158:Drivers/CMSIS/Include/cmsis_gcc.h ****     for(uint32_t i=0u; i<pTable->wlen; ++i) {
 159:Drivers/CMSIS/Include/cmsis_gcc.h ****       pTable->dest[i] = 0u;
 160:Drivers/CMSIS/Include/cmsis_gcc.h ****     }
 161:Drivers/CMSIS/Include/cmsis_gcc.h ****   }
 162:Drivers/CMSIS/Include/cmsis_gcc.h **** 
 163:Drivers/CMSIS/Include/cmsis_gcc.h ****   _start();
 164:Drivers/CMSIS/Include/cmsis_gcc.h **** }
 165:Drivers/CMSIS/Include/cmsis_gcc.h **** 
 166:Drivers/CMSIS/Include/cmsis_gcc.h **** #define __PROGRAM_START           __cmsis_start
 167:Drivers/CMSIS/Include/cmsis_gcc.h **** #endif
 168:Drivers/CMSIS/Include/cmsis_gcc.h **** 
 169:Drivers/CMSIS/Include/cmsis_gcc.h **** #ifndef __INITIAL_SP
 170:Drivers/CMSIS/Include/cmsis_gcc.h **** #define __INITIAL_SP              __StackTop
 171:Drivers/CMSIS/Include/cmsis_gcc.h **** #endif
 172:Drivers/CMSIS/Include/cmsis_gcc.h **** 
 173:Drivers/CMSIS/Include/cmsis_gcc.h **** #ifndef __STACK_LIMIT
 174:Drivers/CMSIS/Include/cmsis_gcc.h **** #define __STACK_LIMIT             __StackLimit
 175:Drivers/CMSIS/Include/cmsis_gcc.h **** #endif
 176:Drivers/CMSIS/Include/cmsis_gcc.h **** 
 177:Drivers/CMSIS/Include/cmsis_gcc.h **** #ifndef __VECTOR_TABLE
 178:Drivers/CMSIS/Include/cmsis_gcc.h **** #define __VECTOR_TABLE            __Vectors
 179:Drivers/CMSIS/Include/cmsis_gcc.h **** #endif
 180:Drivers/CMSIS/Include/cmsis_gcc.h **** 
 181:Drivers/CMSIS/Include/cmsis_gcc.h **** #ifndef __VECTOR_TABLE_ATTRIBUTE
 182:Drivers/CMSIS/Include/cmsis_gcc.h **** #define __VECTOR_TABLE_ATTRIBUTE  __attribute__((used, section(".vectors")))
 183:Drivers/CMSIS/Include/cmsis_gcc.h **** #endif
 184:Drivers/CMSIS/Include/cmsis_gcc.h **** 
 185:Drivers/CMSIS/Include/cmsis_gcc.h **** #if defined (__ARM_FEATURE_CMSE) && (__ARM_FEATURE_CMSE == 3U)
 186:Drivers/CMSIS/Include/cmsis_gcc.h **** #ifndef __STACK_SEAL
 187:Drivers/CMSIS/Include/cmsis_gcc.h **** #define __STACK_SEAL              __StackSeal
 188:Drivers/CMSIS/Include/cmsis_gcc.h **** #endif
 189:Drivers/CMSIS/Include/cmsis_gcc.h **** 
 190:Drivers/CMSIS/Include/cmsis_gcc.h **** #ifndef __TZ_STACK_SEAL_SIZE
 191:Drivers/CMSIS/Include/cmsis_gcc.h **** #define __TZ_STACK_SEAL_SIZE      8U
 192:Drivers/CMSIS/Include/cmsis_gcc.h **** #endif
 193:Drivers/CMSIS/Include/cmsis_gcc.h **** 
ARM GAS  /tmp/ccu8nWO0.s 			page 22


 194:Drivers/CMSIS/Include/cmsis_gcc.h **** #ifndef __TZ_STACK_SEAL_VALUE
 195:Drivers/CMSIS/Include/cmsis_gcc.h **** #define __TZ_STACK_SEAL_VALUE     0xFEF5EDA5FEF5EDA5ULL
 196:Drivers/CMSIS/Include/cmsis_gcc.h **** #endif
 197:Drivers/CMSIS/Include/cmsis_gcc.h **** 
 198:Drivers/CMSIS/Include/cmsis_gcc.h **** 
 199:Drivers/CMSIS/Include/cmsis_gcc.h **** __STATIC_FORCEINLINE void __TZ_set_STACKSEAL_S (uint32_t* stackTop) {
 200:Drivers/CMSIS/Include/cmsis_gcc.h ****   *((uint64_t *)stackTop) = __TZ_STACK_SEAL_VALUE;
 201:Drivers/CMSIS/Include/cmsis_gcc.h **** }
 202:Drivers/CMSIS/Include/cmsis_gcc.h **** #endif
 203:Drivers/CMSIS/Include/cmsis_gcc.h **** 
 204:Drivers/CMSIS/Include/cmsis_gcc.h **** 
 205:Drivers/CMSIS/Include/cmsis_gcc.h **** /* ##########################  Core Instruction Access  ######################### */
 206:Drivers/CMSIS/Include/cmsis_gcc.h **** /** \defgroup CMSIS_Core_InstructionInterface CMSIS Core Instruction Interface
 207:Drivers/CMSIS/Include/cmsis_gcc.h ****   Access to dedicated instructions
 208:Drivers/CMSIS/Include/cmsis_gcc.h ****   @{
 209:Drivers/CMSIS/Include/cmsis_gcc.h **** */
 210:Drivers/CMSIS/Include/cmsis_gcc.h **** 
 211:Drivers/CMSIS/Include/cmsis_gcc.h **** /* Define macros for porting to both thumb1 and thumb2.
 212:Drivers/CMSIS/Include/cmsis_gcc.h ****  * For thumb1, use low register (r0-r7), specified by constraint "l"
 213:Drivers/CMSIS/Include/cmsis_gcc.h ****  * Otherwise, use general registers, specified by constraint "r" */
 214:Drivers/CMSIS/Include/cmsis_gcc.h **** #if defined (__thumb__) && !defined (__thumb2__)
 215:Drivers/CMSIS/Include/cmsis_gcc.h **** #define __CMSIS_GCC_OUT_REG(r) "=l" (r)
 216:Drivers/CMSIS/Include/cmsis_gcc.h **** #define __CMSIS_GCC_RW_REG(r) "+l" (r)
 217:Drivers/CMSIS/Include/cmsis_gcc.h **** #define __CMSIS_GCC_USE_REG(r) "l" (r)
 218:Drivers/CMSIS/Include/cmsis_gcc.h **** #else
 219:Drivers/CMSIS/Include/cmsis_gcc.h **** #define __CMSIS_GCC_OUT_REG(r) "=r" (r)
 220:Drivers/CMSIS/Include/cmsis_gcc.h **** #define __CMSIS_GCC_RW_REG(r) "+r" (r)
 221:Drivers/CMSIS/Include/cmsis_gcc.h **** #define __CMSIS_GCC_USE_REG(r) "r" (r)
 222:Drivers/CMSIS/Include/cmsis_gcc.h **** #endif
 223:Drivers/CMSIS/Include/cmsis_gcc.h **** 
 224:Drivers/CMSIS/Include/cmsis_gcc.h **** /**
 225:Drivers/CMSIS/Include/cmsis_gcc.h ****   \brief   No Operation
 226:Drivers/CMSIS/Include/cmsis_gcc.h ****   \details No Operation does nothing. This instruction can be used for code alignment purposes.
 227:Drivers/CMSIS/Include/cmsis_gcc.h ****  */
 228:Drivers/CMSIS/Include/cmsis_gcc.h **** #define __NOP()                             __ASM volatile ("nop")
 229:Drivers/CMSIS/Include/cmsis_gcc.h **** 
 230:Drivers/CMSIS/Include/cmsis_gcc.h **** /**
 231:Drivers/CMSIS/Include/cmsis_gcc.h ****   \brief   Wait For Interrupt
 232:Drivers/CMSIS/Include/cmsis_gcc.h ****   \details Wait For Interrupt is a hint instruction that suspends execution until one of a number o
 233:Drivers/CMSIS/Include/cmsis_gcc.h ****  */
 234:Drivers/CMSIS/Include/cmsis_gcc.h **** #define __WFI()                             __ASM volatile ("wfi":::"memory")
 235:Drivers/CMSIS/Include/cmsis_gcc.h **** 
 236:Drivers/CMSIS/Include/cmsis_gcc.h **** 
 237:Drivers/CMSIS/Include/cmsis_gcc.h **** /**
 238:Drivers/CMSIS/Include/cmsis_gcc.h ****   \brief   Wait For Event
 239:Drivers/CMSIS/Include/cmsis_gcc.h ****   \details Wait For Event is a hint instruction that permits the processor to enter
 240:Drivers/CMSIS/Include/cmsis_gcc.h ****            a low-power state until one of a number of events occurs.
 241:Drivers/CMSIS/Include/cmsis_gcc.h ****  */
 242:Drivers/CMSIS/Include/cmsis_gcc.h **** #define __WFE()                             __ASM volatile ("wfe":::"memory")
 243:Drivers/CMSIS/Include/cmsis_gcc.h **** 
 244:Drivers/CMSIS/Include/cmsis_gcc.h **** 
 245:Drivers/CMSIS/Include/cmsis_gcc.h **** /**
 246:Drivers/CMSIS/Include/cmsis_gcc.h ****   \brief   Send Event
 247:Drivers/CMSIS/Include/cmsis_gcc.h ****   \details Send Event is a hint instruction. It causes an event to be signaled to the CPU.
 248:Drivers/CMSIS/Include/cmsis_gcc.h ****  */
 249:Drivers/CMSIS/Include/cmsis_gcc.h **** #define __SEV()                             __ASM volatile ("sev")
 250:Drivers/CMSIS/Include/cmsis_gcc.h **** 
ARM GAS  /tmp/ccu8nWO0.s 			page 23


 251:Drivers/CMSIS/Include/cmsis_gcc.h **** 
 252:Drivers/CMSIS/Include/cmsis_gcc.h **** /**
 253:Drivers/CMSIS/Include/cmsis_gcc.h ****   \brief   Instruction Synchronization Barrier
 254:Drivers/CMSIS/Include/cmsis_gcc.h ****   \details Instruction Synchronization Barrier flushes the pipeline in the processor,
 255:Drivers/CMSIS/Include/cmsis_gcc.h ****            so that all instructions following the ISB are fetched from cache or memory,
 256:Drivers/CMSIS/Include/cmsis_gcc.h ****            after the instruction has been completed.
 257:Drivers/CMSIS/Include/cmsis_gcc.h ****  */
 258:Drivers/CMSIS/Include/cmsis_gcc.h **** __STATIC_FORCEINLINE void __ISB(void)
 259:Drivers/CMSIS/Include/cmsis_gcc.h **** {
 260:Drivers/CMSIS/Include/cmsis_gcc.h ****   __ASM volatile ("isb 0xF":::"memory");
 261:Drivers/CMSIS/Include/cmsis_gcc.h **** }
 262:Drivers/CMSIS/Include/cmsis_gcc.h **** 
 263:Drivers/CMSIS/Include/cmsis_gcc.h **** 
 264:Drivers/CMSIS/Include/cmsis_gcc.h **** /**
 265:Drivers/CMSIS/Include/cmsis_gcc.h ****   \brief   Data Synchronization Barrier
 266:Drivers/CMSIS/Include/cmsis_gcc.h ****   \details Acts as a special kind of Data Memory Barrier.
 267:Drivers/CMSIS/Include/cmsis_gcc.h ****            It completes when all explicit memory accesses before this instruction complete.
 268:Drivers/CMSIS/Include/cmsis_gcc.h ****  */
 269:Drivers/CMSIS/Include/cmsis_gcc.h **** __STATIC_FORCEINLINE void __DSB(void)
 270:Drivers/CMSIS/Include/cmsis_gcc.h **** {
 271:Drivers/CMSIS/Include/cmsis_gcc.h ****   __ASM volatile ("dsb 0xF":::"memory");
 272:Drivers/CMSIS/Include/cmsis_gcc.h **** }
 273:Drivers/CMSIS/Include/cmsis_gcc.h **** 
 274:Drivers/CMSIS/Include/cmsis_gcc.h **** 
 275:Drivers/CMSIS/Include/cmsis_gcc.h **** /**
 276:Drivers/CMSIS/Include/cmsis_gcc.h ****   \brief   Data Memory Barrier
 277:Drivers/CMSIS/Include/cmsis_gcc.h ****   \details Ensures the apparent order of the explicit memory operations before
 278:Drivers/CMSIS/Include/cmsis_gcc.h ****            and after the instruction, without ensuring their completion.
 279:Drivers/CMSIS/Include/cmsis_gcc.h ****  */
 280:Drivers/CMSIS/Include/cmsis_gcc.h **** __STATIC_FORCEINLINE void __DMB(void)
 281:Drivers/CMSIS/Include/cmsis_gcc.h **** {
 282:Drivers/CMSIS/Include/cmsis_gcc.h ****   __ASM volatile ("dmb 0xF":::"memory");
 283:Drivers/CMSIS/Include/cmsis_gcc.h **** }
 284:Drivers/CMSIS/Include/cmsis_gcc.h **** 
 285:Drivers/CMSIS/Include/cmsis_gcc.h **** 
 286:Drivers/CMSIS/Include/cmsis_gcc.h **** /**
 287:Drivers/CMSIS/Include/cmsis_gcc.h ****   \brief   Reverse byte order (32 bit)
 288:Drivers/CMSIS/Include/cmsis_gcc.h ****   \details Reverses the byte order in unsigned integer value. For example, 0x12345678 becomes 0x785
 289:Drivers/CMSIS/Include/cmsis_gcc.h ****   \param [in]    value  Value to reverse
 290:Drivers/CMSIS/Include/cmsis_gcc.h ****   \return               Reversed value
 291:Drivers/CMSIS/Include/cmsis_gcc.h ****  */
 292:Drivers/CMSIS/Include/cmsis_gcc.h **** __STATIC_FORCEINLINE uint32_t __REV(uint32_t value)
 293:Drivers/CMSIS/Include/cmsis_gcc.h **** {
 294:Drivers/CMSIS/Include/cmsis_gcc.h **** #if (__GNUC__ > 4) || (__GNUC__ == 4 && __GNUC_MINOR__ >= 5)
 295:Drivers/CMSIS/Include/cmsis_gcc.h ****   return __builtin_bswap32(value);
 296:Drivers/CMSIS/Include/cmsis_gcc.h **** #else
 297:Drivers/CMSIS/Include/cmsis_gcc.h ****   uint32_t result;
 298:Drivers/CMSIS/Include/cmsis_gcc.h **** 
 299:Drivers/CMSIS/Include/cmsis_gcc.h ****   __ASM ("rev %0, %1" : __CMSIS_GCC_OUT_REG (result) : __CMSIS_GCC_USE_REG (value) );
 300:Drivers/CMSIS/Include/cmsis_gcc.h ****   return result;
 301:Drivers/CMSIS/Include/cmsis_gcc.h **** #endif
 302:Drivers/CMSIS/Include/cmsis_gcc.h **** }
 303:Drivers/CMSIS/Include/cmsis_gcc.h **** 
 304:Drivers/CMSIS/Include/cmsis_gcc.h **** 
 305:Drivers/CMSIS/Include/cmsis_gcc.h **** /**
 306:Drivers/CMSIS/Include/cmsis_gcc.h ****   \brief   Reverse byte order (16 bit)
 307:Drivers/CMSIS/Include/cmsis_gcc.h ****   \details Reverses the byte order within each halfword of a word. For example, 0x12345678 becomes 
ARM GAS  /tmp/ccu8nWO0.s 			page 24


 308:Drivers/CMSIS/Include/cmsis_gcc.h ****   \param [in]    value  Value to reverse
 309:Drivers/CMSIS/Include/cmsis_gcc.h ****   \return               Reversed value
 310:Drivers/CMSIS/Include/cmsis_gcc.h ****  */
 311:Drivers/CMSIS/Include/cmsis_gcc.h **** __STATIC_FORCEINLINE uint32_t __REV16(uint32_t value)
 312:Drivers/CMSIS/Include/cmsis_gcc.h **** {
 313:Drivers/CMSIS/Include/cmsis_gcc.h ****   uint32_t result;
 314:Drivers/CMSIS/Include/cmsis_gcc.h **** 
 315:Drivers/CMSIS/Include/cmsis_gcc.h ****   __ASM ("rev16 %0, %1" : __CMSIS_GCC_OUT_REG (result) : __CMSIS_GCC_USE_REG (value) );
 316:Drivers/CMSIS/Include/cmsis_gcc.h ****   return result;
 317:Drivers/CMSIS/Include/cmsis_gcc.h **** }
 318:Drivers/CMSIS/Include/cmsis_gcc.h **** 
 319:Drivers/CMSIS/Include/cmsis_gcc.h **** 
 320:Drivers/CMSIS/Include/cmsis_gcc.h **** /**
 321:Drivers/CMSIS/Include/cmsis_gcc.h ****   \brief   Reverse byte order (16 bit)
 322:Drivers/CMSIS/Include/cmsis_gcc.h ****   \details Reverses the byte order in a 16-bit value and returns the signed 16-bit result. For exam
 323:Drivers/CMSIS/Include/cmsis_gcc.h ****   \param [in]    value  Value to reverse
 324:Drivers/CMSIS/Include/cmsis_gcc.h ****   \return               Reversed value
 325:Drivers/CMSIS/Include/cmsis_gcc.h ****  */
 326:Drivers/CMSIS/Include/cmsis_gcc.h **** __STATIC_FORCEINLINE int16_t __REVSH(int16_t value)
 327:Drivers/CMSIS/Include/cmsis_gcc.h **** {
 328:Drivers/CMSIS/Include/cmsis_gcc.h **** #if (__GNUC__ > 4) || (__GNUC__ == 4 && __GNUC_MINOR__ >= 8)
 329:Drivers/CMSIS/Include/cmsis_gcc.h ****   return (int16_t)__builtin_bswap16(value);
 330:Drivers/CMSIS/Include/cmsis_gcc.h **** #else
 331:Drivers/CMSIS/Include/cmsis_gcc.h ****   int16_t result;
 332:Drivers/CMSIS/Include/cmsis_gcc.h **** 
 333:Drivers/CMSIS/Include/cmsis_gcc.h ****   __ASM ("revsh %0, %1" : __CMSIS_GCC_OUT_REG (result) : __CMSIS_GCC_USE_REG (value) );
 334:Drivers/CMSIS/Include/cmsis_gcc.h ****   return result;
 335:Drivers/CMSIS/Include/cmsis_gcc.h **** #endif
 336:Drivers/CMSIS/Include/cmsis_gcc.h **** }
 337:Drivers/CMSIS/Include/cmsis_gcc.h **** 
 338:Drivers/CMSIS/Include/cmsis_gcc.h **** 
 339:Drivers/CMSIS/Include/cmsis_gcc.h **** /**
 340:Drivers/CMSIS/Include/cmsis_gcc.h ****   \brief   Rotate Right in unsigned value (32 bit)
 341:Drivers/CMSIS/Include/cmsis_gcc.h ****   \details Rotate Right (immediate) provides the value of the contents of a register rotated by a v
 342:Drivers/CMSIS/Include/cmsis_gcc.h ****   \param [in]    op1  Value to rotate
 343:Drivers/CMSIS/Include/cmsis_gcc.h ****   \param [in]    op2  Number of Bits to rotate
 344:Drivers/CMSIS/Include/cmsis_gcc.h ****   \return               Rotated value
 345:Drivers/CMSIS/Include/cmsis_gcc.h ****  */
 346:Drivers/CMSIS/Include/cmsis_gcc.h **** __STATIC_FORCEINLINE uint32_t __ROR(uint32_t op1, uint32_t op2)
 347:Drivers/CMSIS/Include/cmsis_gcc.h **** {
 348:Drivers/CMSIS/Include/cmsis_gcc.h ****   op2 %= 32U;
 349:Drivers/CMSIS/Include/cmsis_gcc.h ****   if (op2 == 0U)
 350:Drivers/CMSIS/Include/cmsis_gcc.h ****   {
 351:Drivers/CMSIS/Include/cmsis_gcc.h ****     return op1;
 352:Drivers/CMSIS/Include/cmsis_gcc.h ****   }
 353:Drivers/CMSIS/Include/cmsis_gcc.h ****   return (op1 >> op2) | (op1 << (32U - op2));
 354:Drivers/CMSIS/Include/cmsis_gcc.h **** }
 355:Drivers/CMSIS/Include/cmsis_gcc.h **** 
 356:Drivers/CMSIS/Include/cmsis_gcc.h **** 
 357:Drivers/CMSIS/Include/cmsis_gcc.h **** /**
 358:Drivers/CMSIS/Include/cmsis_gcc.h ****   \brief   Breakpoint
 359:Drivers/CMSIS/Include/cmsis_gcc.h ****   \details Causes the processor to enter Debug state.
 360:Drivers/CMSIS/Include/cmsis_gcc.h ****            Debug tools can use this to investigate system state when the instruction at a particula
 361:Drivers/CMSIS/Include/cmsis_gcc.h ****   \param [in]    value  is ignored by the processor.
 362:Drivers/CMSIS/Include/cmsis_gcc.h ****                  If required, a debugger can use it to store additional information about the break
 363:Drivers/CMSIS/Include/cmsis_gcc.h ****  */
 364:Drivers/CMSIS/Include/cmsis_gcc.h **** #define __BKPT(value)                       __ASM volatile ("bkpt "#value)
ARM GAS  /tmp/ccu8nWO0.s 			page 25


 365:Drivers/CMSIS/Include/cmsis_gcc.h **** 
 366:Drivers/CMSIS/Include/cmsis_gcc.h **** 
 367:Drivers/CMSIS/Include/cmsis_gcc.h **** /**
 368:Drivers/CMSIS/Include/cmsis_gcc.h ****   \brief   Reverse bit order of value
 369:Drivers/CMSIS/Include/cmsis_gcc.h ****   \details Reverses the bit order of the given value.
 370:Drivers/CMSIS/Include/cmsis_gcc.h ****   \param [in]    value  Value to reverse
 371:Drivers/CMSIS/Include/cmsis_gcc.h ****   \return               Reversed value
 372:Drivers/CMSIS/Include/cmsis_gcc.h ****  */
 373:Drivers/CMSIS/Include/cmsis_gcc.h **** __STATIC_FORCEINLINE uint32_t __RBIT(uint32_t value)
 374:Drivers/CMSIS/Include/cmsis_gcc.h **** {
 375:Drivers/CMSIS/Include/cmsis_gcc.h ****   uint32_t result;
 376:Drivers/CMSIS/Include/cmsis_gcc.h **** 
 377:Drivers/CMSIS/Include/cmsis_gcc.h **** #if ((defined (__ARM_ARCH_7M__      ) && (__ARM_ARCH_7M__      == 1)) || \
 378:Drivers/CMSIS/Include/cmsis_gcc.h ****      (defined (__ARM_ARCH_7EM__     ) && (__ARM_ARCH_7EM__     == 1)) || \
 379:Drivers/CMSIS/Include/cmsis_gcc.h ****      (defined (__ARM_ARCH_8M_MAIN__ ) && (__ARM_ARCH_8M_MAIN__ == 1))    )
 380:Drivers/CMSIS/Include/cmsis_gcc.h ****    __ASM ("rbit %0, %1" : "=r" (result) : "r" (value) );
 381:Drivers/CMSIS/Include/cmsis_gcc.h **** #else
 382:Drivers/CMSIS/Include/cmsis_gcc.h ****   uint32_t s = (4U /*sizeof(v)*/ * 8U) - 1U; /* extra shift needed at end */
 383:Drivers/CMSIS/Include/cmsis_gcc.h **** 
 384:Drivers/CMSIS/Include/cmsis_gcc.h ****   result = value;                      /* r will be reversed bits of v; first get LSB of v */
 385:Drivers/CMSIS/Include/cmsis_gcc.h ****   for (value >>= 1U; value != 0U; value >>= 1U)
 386:Drivers/CMSIS/Include/cmsis_gcc.h ****   {
 387:Drivers/CMSIS/Include/cmsis_gcc.h ****     result <<= 1U;
 388:Drivers/CMSIS/Include/cmsis_gcc.h ****     result |= value & 1U;
 389:Drivers/CMSIS/Include/cmsis_gcc.h ****     s--;
 390:Drivers/CMSIS/Include/cmsis_gcc.h ****   }
 391:Drivers/CMSIS/Include/cmsis_gcc.h ****   result <<= s;                        /* shift when v's highest bits are zero */
 392:Drivers/CMSIS/Include/cmsis_gcc.h **** #endif
 393:Drivers/CMSIS/Include/cmsis_gcc.h ****   return result;
 394:Drivers/CMSIS/Include/cmsis_gcc.h **** }
 395:Drivers/CMSIS/Include/cmsis_gcc.h **** 
 396:Drivers/CMSIS/Include/cmsis_gcc.h **** 
 397:Drivers/CMSIS/Include/cmsis_gcc.h **** /**
 398:Drivers/CMSIS/Include/cmsis_gcc.h ****   \brief   Count leading zeros
 399:Drivers/CMSIS/Include/cmsis_gcc.h ****   \details Counts the number of leading zeros of a data value.
 400:Drivers/CMSIS/Include/cmsis_gcc.h ****   \param [in]  value  Value to count the leading zeros
 401:Drivers/CMSIS/Include/cmsis_gcc.h ****   \return             number of leading zeros in value
 402:Drivers/CMSIS/Include/cmsis_gcc.h ****  */
 403:Drivers/CMSIS/Include/cmsis_gcc.h **** __STATIC_FORCEINLINE uint8_t __CLZ(uint32_t value)
 404:Drivers/CMSIS/Include/cmsis_gcc.h **** {
 405:Drivers/CMSIS/Include/cmsis_gcc.h ****   /* Even though __builtin_clz produces a CLZ instruction on ARM, formally
 406:Drivers/CMSIS/Include/cmsis_gcc.h ****      __builtin_clz(0) is undefined behaviour, so handle this case specially.
 407:Drivers/CMSIS/Include/cmsis_gcc.h ****      This guarantees ARM-compatible results if happening to compile on a non-ARM
 408:Drivers/CMSIS/Include/cmsis_gcc.h ****      target, and ensures the compiler doesn't decide to activate any
 409:Drivers/CMSIS/Include/cmsis_gcc.h ****      optimisations using the logic "value was passed to __builtin_clz, so it
 410:Drivers/CMSIS/Include/cmsis_gcc.h ****      is non-zero".
 411:Drivers/CMSIS/Include/cmsis_gcc.h ****      ARM GCC 7.3 and possibly earlier will optimise this test away, leaving a
 412:Drivers/CMSIS/Include/cmsis_gcc.h ****      single CLZ instruction.
 413:Drivers/CMSIS/Include/cmsis_gcc.h ****    */
 414:Drivers/CMSIS/Include/cmsis_gcc.h ****   if (value == 0U)
 415:Drivers/CMSIS/Include/cmsis_gcc.h ****   {
 416:Drivers/CMSIS/Include/cmsis_gcc.h ****     return 32U;
 417:Drivers/CMSIS/Include/cmsis_gcc.h ****   }
 418:Drivers/CMSIS/Include/cmsis_gcc.h ****   return __builtin_clz(value);
 419:Drivers/CMSIS/Include/cmsis_gcc.h **** }
 420:Drivers/CMSIS/Include/cmsis_gcc.h **** 
 421:Drivers/CMSIS/Include/cmsis_gcc.h **** 
ARM GAS  /tmp/ccu8nWO0.s 			page 26


 422:Drivers/CMSIS/Include/cmsis_gcc.h **** #if ((defined (__ARM_ARCH_7M__      ) && (__ARM_ARCH_7M__      == 1)) || \
 423:Drivers/CMSIS/Include/cmsis_gcc.h ****      (defined (__ARM_ARCH_7EM__     ) && (__ARM_ARCH_7EM__     == 1)) || \
 424:Drivers/CMSIS/Include/cmsis_gcc.h ****      (defined (__ARM_ARCH_8M_MAIN__ ) && (__ARM_ARCH_8M_MAIN__ == 1)) || \
 425:Drivers/CMSIS/Include/cmsis_gcc.h ****      (defined (__ARM_ARCH_8M_BASE__ ) && (__ARM_ARCH_8M_BASE__ == 1))    )
 426:Drivers/CMSIS/Include/cmsis_gcc.h **** /**
 427:Drivers/CMSIS/Include/cmsis_gcc.h ****   \brief   LDR Exclusive (8 bit)
 428:Drivers/CMSIS/Include/cmsis_gcc.h ****   \details Executes a exclusive LDR instruction for 8 bit value.
 429:Drivers/CMSIS/Include/cmsis_gcc.h ****   \param [in]    ptr  Pointer to data
 430:Drivers/CMSIS/Include/cmsis_gcc.h ****   \return             value of type uint8_t at (*ptr)
 431:Drivers/CMSIS/Include/cmsis_gcc.h ****  */
 432:Drivers/CMSIS/Include/cmsis_gcc.h **** __STATIC_FORCEINLINE uint8_t __LDREXB(volatile uint8_t *addr)
 433:Drivers/CMSIS/Include/cmsis_gcc.h **** {
 434:Drivers/CMSIS/Include/cmsis_gcc.h ****     uint32_t result;
 435:Drivers/CMSIS/Include/cmsis_gcc.h **** 
 436:Drivers/CMSIS/Include/cmsis_gcc.h **** #if (__GNUC__ > 4) || (__GNUC__ == 4 && __GNUC_MINOR__ >= 8)
 437:Drivers/CMSIS/Include/cmsis_gcc.h ****    __ASM volatile ("ldrexb %0, %1" : "=r" (result) : "Q" (*addr) );
 438:Drivers/CMSIS/Include/cmsis_gcc.h **** #else
 439:Drivers/CMSIS/Include/cmsis_gcc.h ****     /* Prior to GCC 4.8, "Q" will be expanded to [rx, #0] which is not
 440:Drivers/CMSIS/Include/cmsis_gcc.h ****        accepted by assembler. So has to use following less efficient pattern.
 441:Drivers/CMSIS/Include/cmsis_gcc.h ****     */
 442:Drivers/CMSIS/Include/cmsis_gcc.h ****    __ASM volatile ("ldrexb %0, [%1]" : "=r" (result) : "r" (addr) : "memory" );
 443:Drivers/CMSIS/Include/cmsis_gcc.h **** #endif
 444:Drivers/CMSIS/Include/cmsis_gcc.h ****    return ((uint8_t) result);    /* Add explicit type cast here */
 445:Drivers/CMSIS/Include/cmsis_gcc.h **** }
 446:Drivers/CMSIS/Include/cmsis_gcc.h **** 
 447:Drivers/CMSIS/Include/cmsis_gcc.h **** 
 448:Drivers/CMSIS/Include/cmsis_gcc.h **** /**
 449:Drivers/CMSIS/Include/cmsis_gcc.h ****   \brief   LDR Exclusive (16 bit)
 450:Drivers/CMSIS/Include/cmsis_gcc.h ****   \details Executes a exclusive LDR instruction for 16 bit values.
 451:Drivers/CMSIS/Include/cmsis_gcc.h ****   \param [in]    ptr  Pointer to data
 452:Drivers/CMSIS/Include/cmsis_gcc.h ****   \return        value of type uint16_t at (*ptr)
 453:Drivers/CMSIS/Include/cmsis_gcc.h ****  */
 454:Drivers/CMSIS/Include/cmsis_gcc.h **** __STATIC_FORCEINLINE uint16_t __LDREXH(volatile uint16_t *addr)
 455:Drivers/CMSIS/Include/cmsis_gcc.h **** {
 456:Drivers/CMSIS/Include/cmsis_gcc.h ****     uint32_t result;
 457:Drivers/CMSIS/Include/cmsis_gcc.h **** 
 458:Drivers/CMSIS/Include/cmsis_gcc.h **** #if (__GNUC__ > 4) || (__GNUC__ == 4 && __GNUC_MINOR__ >= 8)
 459:Drivers/CMSIS/Include/cmsis_gcc.h ****    __ASM volatile ("ldrexh %0, %1" : "=r" (result) : "Q" (*addr) );
 460:Drivers/CMSIS/Include/cmsis_gcc.h **** #else
 461:Drivers/CMSIS/Include/cmsis_gcc.h ****     /* Prior to GCC 4.8, "Q" will be expanded to [rx, #0] which is not
 462:Drivers/CMSIS/Include/cmsis_gcc.h ****        accepted by assembler. So has to use following less efficient pattern.
 463:Drivers/CMSIS/Include/cmsis_gcc.h ****     */
 464:Drivers/CMSIS/Include/cmsis_gcc.h ****    __ASM volatile ("ldrexh %0, [%1]" : "=r" (result) : "r" (addr) : "memory" );
 465:Drivers/CMSIS/Include/cmsis_gcc.h **** #endif
 466:Drivers/CMSIS/Include/cmsis_gcc.h ****    return ((uint16_t) result);    /* Add explicit type cast here */
 467:Drivers/CMSIS/Include/cmsis_gcc.h **** }
 468:Drivers/CMSIS/Include/cmsis_gcc.h **** 
 469:Drivers/CMSIS/Include/cmsis_gcc.h **** 
 470:Drivers/CMSIS/Include/cmsis_gcc.h **** /**
 471:Drivers/CMSIS/Include/cmsis_gcc.h ****   \brief   LDR Exclusive (32 bit)
 472:Drivers/CMSIS/Include/cmsis_gcc.h ****   \details Executes a exclusive LDR instruction for 32 bit values.
 473:Drivers/CMSIS/Include/cmsis_gcc.h ****   \param [in]    ptr  Pointer to data
 474:Drivers/CMSIS/Include/cmsis_gcc.h ****   \return        value of type uint32_t at (*ptr)
 475:Drivers/CMSIS/Include/cmsis_gcc.h ****  */
 476:Drivers/CMSIS/Include/cmsis_gcc.h **** __STATIC_FORCEINLINE uint32_t __LDREXW(volatile uint32_t *addr)
 477:Drivers/CMSIS/Include/cmsis_gcc.h **** {
 478:Drivers/CMSIS/Include/cmsis_gcc.h ****     uint32_t result;
ARM GAS  /tmp/ccu8nWO0.s 			page 27


 479:Drivers/CMSIS/Include/cmsis_gcc.h **** 
 480:Drivers/CMSIS/Include/cmsis_gcc.h ****    __ASM volatile ("ldrex %0, %1" : "=r" (result) : "Q" (*addr) );
 481:Drivers/CMSIS/Include/cmsis_gcc.h ****    return(result);
 482:Drivers/CMSIS/Include/cmsis_gcc.h **** }
 483:Drivers/CMSIS/Include/cmsis_gcc.h **** 
 484:Drivers/CMSIS/Include/cmsis_gcc.h **** 
 485:Drivers/CMSIS/Include/cmsis_gcc.h **** /**
 486:Drivers/CMSIS/Include/cmsis_gcc.h ****   \brief   STR Exclusive (8 bit)
 487:Drivers/CMSIS/Include/cmsis_gcc.h ****   \details Executes a exclusive STR instruction for 8 bit values.
 488:Drivers/CMSIS/Include/cmsis_gcc.h ****   \param [in]  value  Value to store
 489:Drivers/CMSIS/Include/cmsis_gcc.h ****   \param [in]    ptr  Pointer to location
 490:Drivers/CMSIS/Include/cmsis_gcc.h ****   \return          0  Function succeeded
 491:Drivers/CMSIS/Include/cmsis_gcc.h ****   \return          1  Function failed
 492:Drivers/CMSIS/Include/cmsis_gcc.h ****  */
 493:Drivers/CMSIS/Include/cmsis_gcc.h **** __STATIC_FORCEINLINE uint32_t __STREXB(uint8_t value, volatile uint8_t *addr)
 494:Drivers/CMSIS/Include/cmsis_gcc.h **** {
 495:Drivers/CMSIS/Include/cmsis_gcc.h ****    uint32_t result;
 496:Drivers/CMSIS/Include/cmsis_gcc.h **** 
 497:Drivers/CMSIS/Include/cmsis_gcc.h ****    __ASM volatile ("strexb %0, %2, %1" : "=&r" (result), "=Q" (*addr) : "r" ((uint32_t)value) );
 498:Drivers/CMSIS/Include/cmsis_gcc.h ****    return(result);
 499:Drivers/CMSIS/Include/cmsis_gcc.h **** }
 500:Drivers/CMSIS/Include/cmsis_gcc.h **** 
 501:Drivers/CMSIS/Include/cmsis_gcc.h **** 
 502:Drivers/CMSIS/Include/cmsis_gcc.h **** /**
 503:Drivers/CMSIS/Include/cmsis_gcc.h ****   \brief   STR Exclusive (16 bit)
 504:Drivers/CMSIS/Include/cmsis_gcc.h ****   \details Executes a exclusive STR instruction for 16 bit values.
 505:Drivers/CMSIS/Include/cmsis_gcc.h ****   \param [in]  value  Value to store
 506:Drivers/CMSIS/Include/cmsis_gcc.h ****   \param [in]    ptr  Pointer to location
 507:Drivers/CMSIS/Include/cmsis_gcc.h ****   \return          0  Function succeeded
 508:Drivers/CMSIS/Include/cmsis_gcc.h ****   \return          1  Function failed
 509:Drivers/CMSIS/Include/cmsis_gcc.h ****  */
 510:Drivers/CMSIS/Include/cmsis_gcc.h **** __STATIC_FORCEINLINE uint32_t __STREXH(uint16_t value, volatile uint16_t *addr)
 511:Drivers/CMSIS/Include/cmsis_gcc.h **** {
 512:Drivers/CMSIS/Include/cmsis_gcc.h ****    uint32_t result;
 513:Drivers/CMSIS/Include/cmsis_gcc.h **** 
 514:Drivers/CMSIS/Include/cmsis_gcc.h ****    __ASM volatile ("strexh %0, %2, %1" : "=&r" (result), "=Q" (*addr) : "r" ((uint32_t)value) );
 515:Drivers/CMSIS/Include/cmsis_gcc.h ****    return(result);
 516:Drivers/CMSIS/Include/cmsis_gcc.h **** }
 517:Drivers/CMSIS/Include/cmsis_gcc.h **** 
 518:Drivers/CMSIS/Include/cmsis_gcc.h **** 
 519:Drivers/CMSIS/Include/cmsis_gcc.h **** /**
 520:Drivers/CMSIS/Include/cmsis_gcc.h ****   \brief   STR Exclusive (32 bit)
 521:Drivers/CMSIS/Include/cmsis_gcc.h ****   \details Executes a exclusive STR instruction for 32 bit values.
 522:Drivers/CMSIS/Include/cmsis_gcc.h ****   \param [in]  value  Value to store
 523:Drivers/CMSIS/Include/cmsis_gcc.h ****   \param [in]    ptr  Pointer to location
 524:Drivers/CMSIS/Include/cmsis_gcc.h ****   \return          0  Function succeeded
 525:Drivers/CMSIS/Include/cmsis_gcc.h ****   \return          1  Function failed
 526:Drivers/CMSIS/Include/cmsis_gcc.h ****  */
 527:Drivers/CMSIS/Include/cmsis_gcc.h **** __STATIC_FORCEINLINE uint32_t __STREXW(uint32_t value, volatile uint32_t *addr)
 528:Drivers/CMSIS/Include/cmsis_gcc.h **** {
 529:Drivers/CMSIS/Include/cmsis_gcc.h ****    uint32_t result;
 530:Drivers/CMSIS/Include/cmsis_gcc.h **** 
 531:Drivers/CMSIS/Include/cmsis_gcc.h ****    __ASM volatile ("strex %0, %2, %1" : "=&r" (result), "=Q" (*addr) : "r" (value) );
 532:Drivers/CMSIS/Include/cmsis_gcc.h ****    return(result);
 533:Drivers/CMSIS/Include/cmsis_gcc.h **** }
 534:Drivers/CMSIS/Include/cmsis_gcc.h **** 
 535:Drivers/CMSIS/Include/cmsis_gcc.h **** 
ARM GAS  /tmp/ccu8nWO0.s 			page 28


 536:Drivers/CMSIS/Include/cmsis_gcc.h **** /**
 537:Drivers/CMSIS/Include/cmsis_gcc.h ****   \brief   Remove the exclusive lock
 538:Drivers/CMSIS/Include/cmsis_gcc.h ****   \details Removes the exclusive lock which is created by LDREX.
 539:Drivers/CMSIS/Include/cmsis_gcc.h ****  */
 540:Drivers/CMSIS/Include/cmsis_gcc.h **** __STATIC_FORCEINLINE void __CLREX(void)
 541:Drivers/CMSIS/Include/cmsis_gcc.h **** {
 542:Drivers/CMSIS/Include/cmsis_gcc.h ****   __ASM volatile ("clrex" ::: "memory");
 543:Drivers/CMSIS/Include/cmsis_gcc.h **** }
 544:Drivers/CMSIS/Include/cmsis_gcc.h **** 
 545:Drivers/CMSIS/Include/cmsis_gcc.h **** #endif /* ((defined (__ARM_ARCH_7M__      ) && (__ARM_ARCH_7M__      == 1)) || \
 546:Drivers/CMSIS/Include/cmsis_gcc.h ****            (defined (__ARM_ARCH_7EM__     ) && (__ARM_ARCH_7EM__     == 1)) || \
 547:Drivers/CMSIS/Include/cmsis_gcc.h ****            (defined (__ARM_ARCH_8M_MAIN__ ) && (__ARM_ARCH_8M_MAIN__ == 1)) || \
 548:Drivers/CMSIS/Include/cmsis_gcc.h ****            (defined (__ARM_ARCH_8M_BASE__ ) && (__ARM_ARCH_8M_BASE__ == 1))    ) */
 549:Drivers/CMSIS/Include/cmsis_gcc.h **** 
 550:Drivers/CMSIS/Include/cmsis_gcc.h **** 
 551:Drivers/CMSIS/Include/cmsis_gcc.h **** #if ((defined (__ARM_ARCH_7M__      ) && (__ARM_ARCH_7M__      == 1)) || \
 552:Drivers/CMSIS/Include/cmsis_gcc.h ****      (defined (__ARM_ARCH_7EM__     ) && (__ARM_ARCH_7EM__     == 1)) || \
 553:Drivers/CMSIS/Include/cmsis_gcc.h ****      (defined (__ARM_ARCH_8M_MAIN__ ) && (__ARM_ARCH_8M_MAIN__ == 1))    )
 554:Drivers/CMSIS/Include/cmsis_gcc.h **** /**
 555:Drivers/CMSIS/Include/cmsis_gcc.h ****   \brief   Signed Saturate
 556:Drivers/CMSIS/Include/cmsis_gcc.h ****   \details Saturates a signed value.
 557:Drivers/CMSIS/Include/cmsis_gcc.h ****   \param [in]  ARG1  Value to be saturated
 558:Drivers/CMSIS/Include/cmsis_gcc.h ****   \param [in]  ARG2  Bit position to saturate to (1..32)
 559:Drivers/CMSIS/Include/cmsis_gcc.h ****   \return             Saturated value
 560:Drivers/CMSIS/Include/cmsis_gcc.h ****  */
 561:Drivers/CMSIS/Include/cmsis_gcc.h **** #define __SSAT(ARG1, ARG2) \
 562:Drivers/CMSIS/Include/cmsis_gcc.h **** __extension__ \
 563:Drivers/CMSIS/Include/cmsis_gcc.h **** ({                          \
 564:Drivers/CMSIS/Include/cmsis_gcc.h ****   int32_t __RES, __ARG1 = (ARG1); \
 565:Drivers/CMSIS/Include/cmsis_gcc.h ****   __ASM volatile ("ssat %0, %1, %2" : "=r" (__RES) :  "I" (ARG2), "r" (__ARG1) : "cc" ); \
 566:Drivers/CMSIS/Include/cmsis_gcc.h ****   __RES; \
 567:Drivers/CMSIS/Include/cmsis_gcc.h ****  })
 568:Drivers/CMSIS/Include/cmsis_gcc.h **** 
 569:Drivers/CMSIS/Include/cmsis_gcc.h **** 
 570:Drivers/CMSIS/Include/cmsis_gcc.h **** /**
 571:Drivers/CMSIS/Include/cmsis_gcc.h ****   \brief   Unsigned Saturate
 572:Drivers/CMSIS/Include/cmsis_gcc.h ****   \details Saturates an unsigned value.
 573:Drivers/CMSIS/Include/cmsis_gcc.h ****   \param [in]  ARG1  Value to be saturated
 574:Drivers/CMSIS/Include/cmsis_gcc.h ****   \param [in]  ARG2  Bit position to saturate to (0..31)
 575:Drivers/CMSIS/Include/cmsis_gcc.h ****   \return             Saturated value
 576:Drivers/CMSIS/Include/cmsis_gcc.h ****  */
 577:Drivers/CMSIS/Include/cmsis_gcc.h **** #define __USAT(ARG1, ARG2) \
 578:Drivers/CMSIS/Include/cmsis_gcc.h **** __extension__ \
 579:Drivers/CMSIS/Include/cmsis_gcc.h **** ({                          \
 580:Drivers/CMSIS/Include/cmsis_gcc.h ****   uint32_t __RES, __ARG1 = (ARG1); \
 581:Drivers/CMSIS/Include/cmsis_gcc.h ****   __ASM volatile ("usat %0, %1, %2" : "=r" (__RES) :  "I" (ARG2), "r" (__ARG1) : "cc" ); \
 582:Drivers/CMSIS/Include/cmsis_gcc.h ****   __RES; \
 583:Drivers/CMSIS/Include/cmsis_gcc.h ****  })
 584:Drivers/CMSIS/Include/cmsis_gcc.h **** 
 585:Drivers/CMSIS/Include/cmsis_gcc.h **** 
 586:Drivers/CMSIS/Include/cmsis_gcc.h **** /**
 587:Drivers/CMSIS/Include/cmsis_gcc.h ****   \brief   Rotate Right with Extend (32 bit)
 588:Drivers/CMSIS/Include/cmsis_gcc.h ****   \details Moves each bit of a bitstring right by one bit.
 589:Drivers/CMSIS/Include/cmsis_gcc.h ****            The carry input is shifted in at the left end of the bitstring.
 590:Drivers/CMSIS/Include/cmsis_gcc.h ****   \param [in]    value  Value to rotate
 591:Drivers/CMSIS/Include/cmsis_gcc.h ****   \return               Rotated value
 592:Drivers/CMSIS/Include/cmsis_gcc.h ****  */
ARM GAS  /tmp/ccu8nWO0.s 			page 29


 593:Drivers/CMSIS/Include/cmsis_gcc.h **** __STATIC_FORCEINLINE uint32_t __RRX(uint32_t value)
 594:Drivers/CMSIS/Include/cmsis_gcc.h **** {
 595:Drivers/CMSIS/Include/cmsis_gcc.h ****   uint32_t result;
 596:Drivers/CMSIS/Include/cmsis_gcc.h **** 
 597:Drivers/CMSIS/Include/cmsis_gcc.h ****   __ASM volatile ("rrx %0, %1" : __CMSIS_GCC_OUT_REG (result) : __CMSIS_GCC_USE_REG (value) );
 598:Drivers/CMSIS/Include/cmsis_gcc.h ****   return(result);
 599:Drivers/CMSIS/Include/cmsis_gcc.h **** }
 600:Drivers/CMSIS/Include/cmsis_gcc.h **** 
 601:Drivers/CMSIS/Include/cmsis_gcc.h **** 
 602:Drivers/CMSIS/Include/cmsis_gcc.h **** /**
 603:Drivers/CMSIS/Include/cmsis_gcc.h ****   \brief   LDRT Unprivileged (8 bit)
 604:Drivers/CMSIS/Include/cmsis_gcc.h ****   \details Executes a Unprivileged LDRT instruction for 8 bit value.
 605:Drivers/CMSIS/Include/cmsis_gcc.h ****   \param [in]    ptr  Pointer to data
 606:Drivers/CMSIS/Include/cmsis_gcc.h ****   \return             value of type uint8_t at (*ptr)
 607:Drivers/CMSIS/Include/cmsis_gcc.h ****  */
 608:Drivers/CMSIS/Include/cmsis_gcc.h **** __STATIC_FORCEINLINE uint8_t __LDRBT(volatile uint8_t *ptr)
 609:Drivers/CMSIS/Include/cmsis_gcc.h **** {
 610:Drivers/CMSIS/Include/cmsis_gcc.h ****     uint32_t result;
 611:Drivers/CMSIS/Include/cmsis_gcc.h **** 
 612:Drivers/CMSIS/Include/cmsis_gcc.h **** #if (__GNUC__ > 4) || (__GNUC__ == 4 && __GNUC_MINOR__ >= 8)
 613:Drivers/CMSIS/Include/cmsis_gcc.h ****    __ASM volatile ("ldrbt %0, %1" : "=r" (result) : "Q" (*ptr) );
 614:Drivers/CMSIS/Include/cmsis_gcc.h **** #else
 615:Drivers/CMSIS/Include/cmsis_gcc.h ****     /* Prior to GCC 4.8, "Q" will be expanded to [rx, #0] which is not
 616:Drivers/CMSIS/Include/cmsis_gcc.h ****        accepted by assembler. So has to use following less efficient pattern.
 617:Drivers/CMSIS/Include/cmsis_gcc.h ****     */
 618:Drivers/CMSIS/Include/cmsis_gcc.h ****    __ASM volatile ("ldrbt %0, [%1]" : "=r" (result) : "r" (ptr) : "memory" );
 619:Drivers/CMSIS/Include/cmsis_gcc.h **** #endif
 620:Drivers/CMSIS/Include/cmsis_gcc.h ****    return ((uint8_t) result);    /* Add explicit type cast here */
 621:Drivers/CMSIS/Include/cmsis_gcc.h **** }
 622:Drivers/CMSIS/Include/cmsis_gcc.h **** 
 623:Drivers/CMSIS/Include/cmsis_gcc.h **** 
 624:Drivers/CMSIS/Include/cmsis_gcc.h **** /**
 625:Drivers/CMSIS/Include/cmsis_gcc.h ****   \brief   LDRT Unprivileged (16 bit)
 626:Drivers/CMSIS/Include/cmsis_gcc.h ****   \details Executes a Unprivileged LDRT instruction for 16 bit values.
 627:Drivers/CMSIS/Include/cmsis_gcc.h ****   \param [in]    ptr  Pointer to data
 628:Drivers/CMSIS/Include/cmsis_gcc.h ****   \return        value of type uint16_t at (*ptr)
 629:Drivers/CMSIS/Include/cmsis_gcc.h ****  */
 630:Drivers/CMSIS/Include/cmsis_gcc.h **** __STATIC_FORCEINLINE uint16_t __LDRHT(volatile uint16_t *ptr)
 631:Drivers/CMSIS/Include/cmsis_gcc.h **** {
 632:Drivers/CMSIS/Include/cmsis_gcc.h ****     uint32_t result;
 633:Drivers/CMSIS/Include/cmsis_gcc.h **** 
 634:Drivers/CMSIS/Include/cmsis_gcc.h **** #if (__GNUC__ > 4) || (__GNUC__ == 4 && __GNUC_MINOR__ >= 8)
 635:Drivers/CMSIS/Include/cmsis_gcc.h ****    __ASM volatile ("ldrht %0, %1" : "=r" (result) : "Q" (*ptr) );
 636:Drivers/CMSIS/Include/cmsis_gcc.h **** #else
 637:Drivers/CMSIS/Include/cmsis_gcc.h ****     /* Prior to GCC 4.8, "Q" will be expanded to [rx, #0] which is not
 638:Drivers/CMSIS/Include/cmsis_gcc.h ****        accepted by assembler. So has to use following less efficient pattern.
 639:Drivers/CMSIS/Include/cmsis_gcc.h ****     */
 640:Drivers/CMSIS/Include/cmsis_gcc.h ****    __ASM volatile ("ldrht %0, [%1]" : "=r" (result) : "r" (ptr) : "memory" );
 641:Drivers/CMSIS/Include/cmsis_gcc.h **** #endif
 642:Drivers/CMSIS/Include/cmsis_gcc.h ****    return ((uint16_t) result);    /* Add explicit type cast here */
 643:Drivers/CMSIS/Include/cmsis_gcc.h **** }
 644:Drivers/CMSIS/Include/cmsis_gcc.h **** 
 645:Drivers/CMSIS/Include/cmsis_gcc.h **** 
 646:Drivers/CMSIS/Include/cmsis_gcc.h **** /**
 647:Drivers/CMSIS/Include/cmsis_gcc.h ****   \brief   LDRT Unprivileged (32 bit)
 648:Drivers/CMSIS/Include/cmsis_gcc.h ****   \details Executes a Unprivileged LDRT instruction for 32 bit values.
 649:Drivers/CMSIS/Include/cmsis_gcc.h ****   \param [in]    ptr  Pointer to data
ARM GAS  /tmp/ccu8nWO0.s 			page 30


 650:Drivers/CMSIS/Include/cmsis_gcc.h ****   \return        value of type uint32_t at (*ptr)
 651:Drivers/CMSIS/Include/cmsis_gcc.h ****  */
 652:Drivers/CMSIS/Include/cmsis_gcc.h **** __STATIC_FORCEINLINE uint32_t __LDRT(volatile uint32_t *ptr)
 653:Drivers/CMSIS/Include/cmsis_gcc.h **** {
 654:Drivers/CMSIS/Include/cmsis_gcc.h ****     uint32_t result;
 655:Drivers/CMSIS/Include/cmsis_gcc.h **** 
 656:Drivers/CMSIS/Include/cmsis_gcc.h ****    __ASM volatile ("ldrt %0, %1" : "=r" (result) : "Q" (*ptr) );
 657:Drivers/CMSIS/Include/cmsis_gcc.h ****    return(result);
 658:Drivers/CMSIS/Include/cmsis_gcc.h **** }
 659:Drivers/CMSIS/Include/cmsis_gcc.h **** 
 660:Drivers/CMSIS/Include/cmsis_gcc.h **** 
 661:Drivers/CMSIS/Include/cmsis_gcc.h **** /**
 662:Drivers/CMSIS/Include/cmsis_gcc.h ****   \brief   STRT Unprivileged (8 bit)
 663:Drivers/CMSIS/Include/cmsis_gcc.h ****   \details Executes a Unprivileged STRT instruction for 8 bit values.
 664:Drivers/CMSIS/Include/cmsis_gcc.h ****   \param [in]  value  Value to store
 665:Drivers/CMSIS/Include/cmsis_gcc.h ****   \param [in]    ptr  Pointer to location
 666:Drivers/CMSIS/Include/cmsis_gcc.h ****  */
 667:Drivers/CMSIS/Include/cmsis_gcc.h **** __STATIC_FORCEINLINE void __STRBT(uint8_t value, volatile uint8_t *ptr)
 668:Drivers/CMSIS/Include/cmsis_gcc.h **** {
 669:Drivers/CMSIS/Include/cmsis_gcc.h ****    __ASM volatile ("strbt %1, %0" : "=Q" (*ptr) : "r" ((uint32_t)value) );
 670:Drivers/CMSIS/Include/cmsis_gcc.h **** }
 671:Drivers/CMSIS/Include/cmsis_gcc.h **** 
 672:Drivers/CMSIS/Include/cmsis_gcc.h **** 
 673:Drivers/CMSIS/Include/cmsis_gcc.h **** /**
 674:Drivers/CMSIS/Include/cmsis_gcc.h ****   \brief   STRT Unprivileged (16 bit)
 675:Drivers/CMSIS/Include/cmsis_gcc.h ****   \details Executes a Unprivileged STRT instruction for 16 bit values.
 676:Drivers/CMSIS/Include/cmsis_gcc.h ****   \param [in]  value  Value to store
 677:Drivers/CMSIS/Include/cmsis_gcc.h ****   \param [in]    ptr  Pointer to location
 678:Drivers/CMSIS/Include/cmsis_gcc.h ****  */
 679:Drivers/CMSIS/Include/cmsis_gcc.h **** __STATIC_FORCEINLINE void __STRHT(uint16_t value, volatile uint16_t *ptr)
 680:Drivers/CMSIS/Include/cmsis_gcc.h **** {
 681:Drivers/CMSIS/Include/cmsis_gcc.h ****    __ASM volatile ("strht %1, %0" : "=Q" (*ptr) : "r" ((uint32_t)value) );
 682:Drivers/CMSIS/Include/cmsis_gcc.h **** }
 683:Drivers/CMSIS/Include/cmsis_gcc.h **** 
 684:Drivers/CMSIS/Include/cmsis_gcc.h **** 
 685:Drivers/CMSIS/Include/cmsis_gcc.h **** /**
 686:Drivers/CMSIS/Include/cmsis_gcc.h ****   \brief   STRT Unprivileged (32 bit)
 687:Drivers/CMSIS/Include/cmsis_gcc.h ****   \details Executes a Unprivileged STRT instruction for 32 bit values.
 688:Drivers/CMSIS/Include/cmsis_gcc.h ****   \param [in]  value  Value to store
 689:Drivers/CMSIS/Include/cmsis_gcc.h ****   \param [in]    ptr  Pointer to location
 690:Drivers/CMSIS/Include/cmsis_gcc.h ****  */
 691:Drivers/CMSIS/Include/cmsis_gcc.h **** __STATIC_FORCEINLINE void __STRT(uint32_t value, volatile uint32_t *ptr)
 692:Drivers/CMSIS/Include/cmsis_gcc.h **** {
 693:Drivers/CMSIS/Include/cmsis_gcc.h ****    __ASM volatile ("strt %1, %0" : "=Q" (*ptr) : "r" (value) );
 694:Drivers/CMSIS/Include/cmsis_gcc.h **** }
 695:Drivers/CMSIS/Include/cmsis_gcc.h **** 
 696:Drivers/CMSIS/Include/cmsis_gcc.h **** #else  /* ((defined (__ARM_ARCH_7M__      ) && (__ARM_ARCH_7M__      == 1)) || \
 697:Drivers/CMSIS/Include/cmsis_gcc.h ****            (defined (__ARM_ARCH_7EM__     ) && (__ARM_ARCH_7EM__     == 1)) || \
 698:Drivers/CMSIS/Include/cmsis_gcc.h ****            (defined (__ARM_ARCH_8M_MAIN__ ) && (__ARM_ARCH_8M_MAIN__ == 1))    ) */
 699:Drivers/CMSIS/Include/cmsis_gcc.h **** 
 700:Drivers/CMSIS/Include/cmsis_gcc.h **** /**
 701:Drivers/CMSIS/Include/cmsis_gcc.h ****   \brief   Signed Saturate
 702:Drivers/CMSIS/Include/cmsis_gcc.h ****   \details Saturates a signed value.
 703:Drivers/CMSIS/Include/cmsis_gcc.h ****   \param [in]  value  Value to be saturated
 704:Drivers/CMSIS/Include/cmsis_gcc.h ****   \param [in]    sat  Bit position to saturate to (1..32)
 705:Drivers/CMSIS/Include/cmsis_gcc.h ****   \return             Saturated value
 706:Drivers/CMSIS/Include/cmsis_gcc.h ****  */
ARM GAS  /tmp/ccu8nWO0.s 			page 31


 707:Drivers/CMSIS/Include/cmsis_gcc.h **** __STATIC_FORCEINLINE int32_t __SSAT(int32_t val, uint32_t sat)
 708:Drivers/CMSIS/Include/cmsis_gcc.h **** {
 709:Drivers/CMSIS/Include/cmsis_gcc.h ****   if ((sat >= 1U) && (sat <= 32U))
 710:Drivers/CMSIS/Include/cmsis_gcc.h ****   {
 711:Drivers/CMSIS/Include/cmsis_gcc.h ****     const int32_t max = (int32_t)((1U << (sat - 1U)) - 1U);
 712:Drivers/CMSIS/Include/cmsis_gcc.h ****     const int32_t min = -1 - max ;
 713:Drivers/CMSIS/Include/cmsis_gcc.h ****     if (val > max)
 714:Drivers/CMSIS/Include/cmsis_gcc.h ****     {
 715:Drivers/CMSIS/Include/cmsis_gcc.h ****       return max;
 716:Drivers/CMSIS/Include/cmsis_gcc.h ****     }
 717:Drivers/CMSIS/Include/cmsis_gcc.h ****     else if (val < min)
 718:Drivers/CMSIS/Include/cmsis_gcc.h ****     {
 719:Drivers/CMSIS/Include/cmsis_gcc.h ****       return min;
 720:Drivers/CMSIS/Include/cmsis_gcc.h ****     }
 721:Drivers/CMSIS/Include/cmsis_gcc.h ****   }
 722:Drivers/CMSIS/Include/cmsis_gcc.h ****   return val;
 723:Drivers/CMSIS/Include/cmsis_gcc.h **** }
 724:Drivers/CMSIS/Include/cmsis_gcc.h **** 
 725:Drivers/CMSIS/Include/cmsis_gcc.h **** /**
 726:Drivers/CMSIS/Include/cmsis_gcc.h ****   \brief   Unsigned Saturate
 727:Drivers/CMSIS/Include/cmsis_gcc.h ****   \details Saturates an unsigned value.
 728:Drivers/CMSIS/Include/cmsis_gcc.h ****   \param [in]  value  Value to be saturated
 729:Drivers/CMSIS/Include/cmsis_gcc.h ****   \param [in]    sat  Bit position to saturate to (0..31)
 730:Drivers/CMSIS/Include/cmsis_gcc.h ****   \return             Saturated value
 731:Drivers/CMSIS/Include/cmsis_gcc.h ****  */
 732:Drivers/CMSIS/Include/cmsis_gcc.h **** __STATIC_FORCEINLINE uint32_t __USAT(int32_t val, uint32_t sat)
 733:Drivers/CMSIS/Include/cmsis_gcc.h **** {
 734:Drivers/CMSIS/Include/cmsis_gcc.h ****   if (sat <= 31U)
 735:Drivers/CMSIS/Include/cmsis_gcc.h ****   {
 736:Drivers/CMSIS/Include/cmsis_gcc.h ****     const uint32_t max = ((1U << sat) - 1U);
 737:Drivers/CMSIS/Include/cmsis_gcc.h ****     if (val > (int32_t)max)
 738:Drivers/CMSIS/Include/cmsis_gcc.h ****     {
 739:Drivers/CMSIS/Include/cmsis_gcc.h ****       return max;
 740:Drivers/CMSIS/Include/cmsis_gcc.h ****     }
 741:Drivers/CMSIS/Include/cmsis_gcc.h ****     else if (val < 0)
 742:Drivers/CMSIS/Include/cmsis_gcc.h ****     {
 743:Drivers/CMSIS/Include/cmsis_gcc.h ****       return 0U;
 744:Drivers/CMSIS/Include/cmsis_gcc.h ****     }
 745:Drivers/CMSIS/Include/cmsis_gcc.h ****   }
 746:Drivers/CMSIS/Include/cmsis_gcc.h ****   return (uint32_t)val;
 747:Drivers/CMSIS/Include/cmsis_gcc.h **** }
 748:Drivers/CMSIS/Include/cmsis_gcc.h **** 
 749:Drivers/CMSIS/Include/cmsis_gcc.h **** #endif /* ((defined (__ARM_ARCH_7M__      ) && (__ARM_ARCH_7M__      == 1)) || \
 750:Drivers/CMSIS/Include/cmsis_gcc.h ****            (defined (__ARM_ARCH_7EM__     ) && (__ARM_ARCH_7EM__     == 1)) || \
 751:Drivers/CMSIS/Include/cmsis_gcc.h ****            (defined (__ARM_ARCH_8M_MAIN__ ) && (__ARM_ARCH_8M_MAIN__ == 1))    ) */
 752:Drivers/CMSIS/Include/cmsis_gcc.h **** 
 753:Drivers/CMSIS/Include/cmsis_gcc.h **** 
 754:Drivers/CMSIS/Include/cmsis_gcc.h **** #if ((defined (__ARM_ARCH_8M_MAIN__ ) && (__ARM_ARCH_8M_MAIN__ == 1)) || \
 755:Drivers/CMSIS/Include/cmsis_gcc.h ****      (defined (__ARM_ARCH_8M_BASE__ ) && (__ARM_ARCH_8M_BASE__ == 1))    )
 756:Drivers/CMSIS/Include/cmsis_gcc.h **** /**
 757:Drivers/CMSIS/Include/cmsis_gcc.h ****   \brief   Load-Acquire (8 bit)
 758:Drivers/CMSIS/Include/cmsis_gcc.h ****   \details Executes a LDAB instruction for 8 bit value.
 759:Drivers/CMSIS/Include/cmsis_gcc.h ****   \param [in]    ptr  Pointer to data
 760:Drivers/CMSIS/Include/cmsis_gcc.h ****   \return             value of type uint8_t at (*ptr)
 761:Drivers/CMSIS/Include/cmsis_gcc.h ****  */
 762:Drivers/CMSIS/Include/cmsis_gcc.h **** __STATIC_FORCEINLINE uint8_t __LDAB(volatile uint8_t *ptr)
 763:Drivers/CMSIS/Include/cmsis_gcc.h **** {
ARM GAS  /tmp/ccu8nWO0.s 			page 32


 764:Drivers/CMSIS/Include/cmsis_gcc.h ****     uint32_t result;
 765:Drivers/CMSIS/Include/cmsis_gcc.h **** 
 766:Drivers/CMSIS/Include/cmsis_gcc.h ****    __ASM volatile ("ldab %0, %1" : "=r" (result) : "Q" (*ptr) : "memory" );
 767:Drivers/CMSIS/Include/cmsis_gcc.h ****    return ((uint8_t) result);
 768:Drivers/CMSIS/Include/cmsis_gcc.h **** }
 769:Drivers/CMSIS/Include/cmsis_gcc.h **** 
 770:Drivers/CMSIS/Include/cmsis_gcc.h **** 
 771:Drivers/CMSIS/Include/cmsis_gcc.h **** /**
 772:Drivers/CMSIS/Include/cmsis_gcc.h ****   \brief   Load-Acquire (16 bit)
 773:Drivers/CMSIS/Include/cmsis_gcc.h ****   \details Executes a LDAH instruction for 16 bit values.
 774:Drivers/CMSIS/Include/cmsis_gcc.h ****   \param [in]    ptr  Pointer to data
 775:Drivers/CMSIS/Include/cmsis_gcc.h ****   \return        value of type uint16_t at (*ptr)
 776:Drivers/CMSIS/Include/cmsis_gcc.h ****  */
 777:Drivers/CMSIS/Include/cmsis_gcc.h **** __STATIC_FORCEINLINE uint16_t __LDAH(volatile uint16_t *ptr)
 778:Drivers/CMSIS/Include/cmsis_gcc.h **** {
 779:Drivers/CMSIS/Include/cmsis_gcc.h ****     uint32_t result;
 780:Drivers/CMSIS/Include/cmsis_gcc.h **** 
 781:Drivers/CMSIS/Include/cmsis_gcc.h ****    __ASM volatile ("ldah %0, %1" : "=r" (result) : "Q" (*ptr) : "memory" );
 782:Drivers/CMSIS/Include/cmsis_gcc.h ****    return ((uint16_t) result);
 783:Drivers/CMSIS/Include/cmsis_gcc.h **** }
 784:Drivers/CMSIS/Include/cmsis_gcc.h **** 
 785:Drivers/CMSIS/Include/cmsis_gcc.h **** 
 786:Drivers/CMSIS/Include/cmsis_gcc.h **** /**
 787:Drivers/CMSIS/Include/cmsis_gcc.h ****   \brief   Load-Acquire (32 bit)
 788:Drivers/CMSIS/Include/cmsis_gcc.h ****   \details Executes a LDA instruction for 32 bit values.
 789:Drivers/CMSIS/Include/cmsis_gcc.h ****   \param [in]    ptr  Pointer to data
 790:Drivers/CMSIS/Include/cmsis_gcc.h ****   \return        value of type uint32_t at (*ptr)
 791:Drivers/CMSIS/Include/cmsis_gcc.h ****  */
 792:Drivers/CMSIS/Include/cmsis_gcc.h **** __STATIC_FORCEINLINE uint32_t __LDA(volatile uint32_t *ptr)
 793:Drivers/CMSIS/Include/cmsis_gcc.h **** {
 794:Drivers/CMSIS/Include/cmsis_gcc.h ****     uint32_t result;
 795:Drivers/CMSIS/Include/cmsis_gcc.h **** 
 796:Drivers/CMSIS/Include/cmsis_gcc.h ****    __ASM volatile ("lda %0, %1" : "=r" (result) : "Q" (*ptr) : "memory" );
 797:Drivers/CMSIS/Include/cmsis_gcc.h ****    return(result);
 798:Drivers/CMSIS/Include/cmsis_gcc.h **** }
 799:Drivers/CMSIS/Include/cmsis_gcc.h **** 
 800:Drivers/CMSIS/Include/cmsis_gcc.h **** 
 801:Drivers/CMSIS/Include/cmsis_gcc.h **** /**
 802:Drivers/CMSIS/Include/cmsis_gcc.h ****   \brief   Store-Release (8 bit)
 803:Drivers/CMSIS/Include/cmsis_gcc.h ****   \details Executes a STLB instruction for 8 bit values.
 804:Drivers/CMSIS/Include/cmsis_gcc.h ****   \param [in]  value  Value to store
 805:Drivers/CMSIS/Include/cmsis_gcc.h ****   \param [in]    ptr  Pointer to location
 806:Drivers/CMSIS/Include/cmsis_gcc.h ****  */
 807:Drivers/CMSIS/Include/cmsis_gcc.h **** __STATIC_FORCEINLINE void __STLB(uint8_t value, volatile uint8_t *ptr)
 808:Drivers/CMSIS/Include/cmsis_gcc.h **** {
 809:Drivers/CMSIS/Include/cmsis_gcc.h ****    __ASM volatile ("stlb %1, %0" : "=Q" (*ptr) : "r" ((uint32_t)value) : "memory" );
 810:Drivers/CMSIS/Include/cmsis_gcc.h **** }
 811:Drivers/CMSIS/Include/cmsis_gcc.h **** 
 812:Drivers/CMSIS/Include/cmsis_gcc.h **** 
 813:Drivers/CMSIS/Include/cmsis_gcc.h **** /**
 814:Drivers/CMSIS/Include/cmsis_gcc.h ****   \brief   Store-Release (16 bit)
 815:Drivers/CMSIS/Include/cmsis_gcc.h ****   \details Executes a STLH instruction for 16 bit values.
 816:Drivers/CMSIS/Include/cmsis_gcc.h ****   \param [in]  value  Value to store
 817:Drivers/CMSIS/Include/cmsis_gcc.h ****   \param [in]    ptr  Pointer to location
 818:Drivers/CMSIS/Include/cmsis_gcc.h ****  */
 819:Drivers/CMSIS/Include/cmsis_gcc.h **** __STATIC_FORCEINLINE void __STLH(uint16_t value, volatile uint16_t *ptr)
 820:Drivers/CMSIS/Include/cmsis_gcc.h **** {
ARM GAS  /tmp/ccu8nWO0.s 			page 33


 821:Drivers/CMSIS/Include/cmsis_gcc.h ****    __ASM volatile ("stlh %1, %0" : "=Q" (*ptr) : "r" ((uint32_t)value) : "memory" );
 822:Drivers/CMSIS/Include/cmsis_gcc.h **** }
 823:Drivers/CMSIS/Include/cmsis_gcc.h **** 
 824:Drivers/CMSIS/Include/cmsis_gcc.h **** 
 825:Drivers/CMSIS/Include/cmsis_gcc.h **** /**
 826:Drivers/CMSIS/Include/cmsis_gcc.h ****   \brief   Store-Release (32 bit)
 827:Drivers/CMSIS/Include/cmsis_gcc.h ****   \details Executes a STL instruction for 32 bit values.
 828:Drivers/CMSIS/Include/cmsis_gcc.h ****   \param [in]  value  Value to store
 829:Drivers/CMSIS/Include/cmsis_gcc.h ****   \param [in]    ptr  Pointer to location
 830:Drivers/CMSIS/Include/cmsis_gcc.h ****  */
 831:Drivers/CMSIS/Include/cmsis_gcc.h **** __STATIC_FORCEINLINE void __STL(uint32_t value, volatile uint32_t *ptr)
 832:Drivers/CMSIS/Include/cmsis_gcc.h **** {
 833:Drivers/CMSIS/Include/cmsis_gcc.h ****    __ASM volatile ("stl %1, %0" : "=Q" (*ptr) : "r" ((uint32_t)value) : "memory" );
 834:Drivers/CMSIS/Include/cmsis_gcc.h **** }
 835:Drivers/CMSIS/Include/cmsis_gcc.h **** 
 836:Drivers/CMSIS/Include/cmsis_gcc.h **** 
 837:Drivers/CMSIS/Include/cmsis_gcc.h **** /**
 838:Drivers/CMSIS/Include/cmsis_gcc.h ****   \brief   Load-Acquire Exclusive (8 bit)
 839:Drivers/CMSIS/Include/cmsis_gcc.h ****   \details Executes a LDAB exclusive instruction for 8 bit value.
 840:Drivers/CMSIS/Include/cmsis_gcc.h ****   \param [in]    ptr  Pointer to data
 841:Drivers/CMSIS/Include/cmsis_gcc.h ****   \return             value of type uint8_t at (*ptr)
 842:Drivers/CMSIS/Include/cmsis_gcc.h ****  */
 843:Drivers/CMSIS/Include/cmsis_gcc.h **** __STATIC_FORCEINLINE uint8_t __LDAEXB(volatile uint8_t *ptr)
 844:Drivers/CMSIS/Include/cmsis_gcc.h **** {
 845:Drivers/CMSIS/Include/cmsis_gcc.h ****     uint32_t result;
 846:Drivers/CMSIS/Include/cmsis_gcc.h **** 
 847:Drivers/CMSIS/Include/cmsis_gcc.h ****    __ASM volatile ("ldaexb %0, %1" : "=r" (result) : "Q" (*ptr) : "memory" );
 848:Drivers/CMSIS/Include/cmsis_gcc.h ****    return ((uint8_t) result);
 849:Drivers/CMSIS/Include/cmsis_gcc.h **** }
 850:Drivers/CMSIS/Include/cmsis_gcc.h **** 
 851:Drivers/CMSIS/Include/cmsis_gcc.h **** 
 852:Drivers/CMSIS/Include/cmsis_gcc.h **** /**
 853:Drivers/CMSIS/Include/cmsis_gcc.h ****   \brief   Load-Acquire Exclusive (16 bit)
 854:Drivers/CMSIS/Include/cmsis_gcc.h ****   \details Executes a LDAH exclusive instruction for 16 bit values.
 855:Drivers/CMSIS/Include/cmsis_gcc.h ****   \param [in]    ptr  Pointer to data
 856:Drivers/CMSIS/Include/cmsis_gcc.h ****   \return        value of type uint16_t at (*ptr)
 857:Drivers/CMSIS/Include/cmsis_gcc.h ****  */
 858:Drivers/CMSIS/Include/cmsis_gcc.h **** __STATIC_FORCEINLINE uint16_t __LDAEXH(volatile uint16_t *ptr)
 859:Drivers/CMSIS/Include/cmsis_gcc.h **** {
 860:Drivers/CMSIS/Include/cmsis_gcc.h ****     uint32_t result;
 861:Drivers/CMSIS/Include/cmsis_gcc.h **** 
 862:Drivers/CMSIS/Include/cmsis_gcc.h ****    __ASM volatile ("ldaexh %0, %1" : "=r" (result) : "Q" (*ptr) : "memory" );
 863:Drivers/CMSIS/Include/cmsis_gcc.h ****    return ((uint16_t) result);
 864:Drivers/CMSIS/Include/cmsis_gcc.h **** }
 865:Drivers/CMSIS/Include/cmsis_gcc.h **** 
 866:Drivers/CMSIS/Include/cmsis_gcc.h **** 
 867:Drivers/CMSIS/Include/cmsis_gcc.h **** /**
 868:Drivers/CMSIS/Include/cmsis_gcc.h ****   \brief   Load-Acquire Exclusive (32 bit)
 869:Drivers/CMSIS/Include/cmsis_gcc.h ****   \details Executes a LDA exclusive instruction for 32 bit values.
 870:Drivers/CMSIS/Include/cmsis_gcc.h ****   \param [in]    ptr  Pointer to data
 871:Drivers/CMSIS/Include/cmsis_gcc.h ****   \return        value of type uint32_t at (*ptr)
 872:Drivers/CMSIS/Include/cmsis_gcc.h ****  */
 873:Drivers/CMSIS/Include/cmsis_gcc.h **** __STATIC_FORCEINLINE uint32_t __LDAEX(volatile uint32_t *ptr)
 874:Drivers/CMSIS/Include/cmsis_gcc.h **** {
 875:Drivers/CMSIS/Include/cmsis_gcc.h ****     uint32_t result;
 876:Drivers/CMSIS/Include/cmsis_gcc.h **** 
 877:Drivers/CMSIS/Include/cmsis_gcc.h ****    __ASM volatile ("ldaex %0, %1" : "=r" (result) : "Q" (*ptr) : "memory" );
ARM GAS  /tmp/ccu8nWO0.s 			page 34


 878:Drivers/CMSIS/Include/cmsis_gcc.h ****    return(result);
 879:Drivers/CMSIS/Include/cmsis_gcc.h **** }
 880:Drivers/CMSIS/Include/cmsis_gcc.h **** 
 881:Drivers/CMSIS/Include/cmsis_gcc.h **** 
 882:Drivers/CMSIS/Include/cmsis_gcc.h **** /**
 883:Drivers/CMSIS/Include/cmsis_gcc.h ****   \brief   Store-Release Exclusive (8 bit)
 884:Drivers/CMSIS/Include/cmsis_gcc.h ****   \details Executes a STLB exclusive instruction for 8 bit values.
 885:Drivers/CMSIS/Include/cmsis_gcc.h ****   \param [in]  value  Value to store
 886:Drivers/CMSIS/Include/cmsis_gcc.h ****   \param [in]    ptr  Pointer to location
 887:Drivers/CMSIS/Include/cmsis_gcc.h ****   \return          0  Function succeeded
 888:Drivers/CMSIS/Include/cmsis_gcc.h ****   \return          1  Function failed
 889:Drivers/CMSIS/Include/cmsis_gcc.h ****  */
 890:Drivers/CMSIS/Include/cmsis_gcc.h **** __STATIC_FORCEINLINE uint32_t __STLEXB(uint8_t value, volatile uint8_t *ptr)
 891:Drivers/CMSIS/Include/cmsis_gcc.h **** {
 892:Drivers/CMSIS/Include/cmsis_gcc.h ****    uint32_t result;
 893:Drivers/CMSIS/Include/cmsis_gcc.h **** 
 894:Drivers/CMSIS/Include/cmsis_gcc.h ****    __ASM volatile ("stlexb %0, %2, %1" : "=&r" (result), "=Q" (*ptr) : "r" ((uint32_t)value) : "mem
 895:Drivers/CMSIS/Include/cmsis_gcc.h ****    return(result);
 896:Drivers/CMSIS/Include/cmsis_gcc.h **** }
 897:Drivers/CMSIS/Include/cmsis_gcc.h **** 
 898:Drivers/CMSIS/Include/cmsis_gcc.h **** 
 899:Drivers/CMSIS/Include/cmsis_gcc.h **** /**
 900:Drivers/CMSIS/Include/cmsis_gcc.h ****   \brief   Store-Release Exclusive (16 bit)
 901:Drivers/CMSIS/Include/cmsis_gcc.h ****   \details Executes a STLH exclusive instruction for 16 bit values.
 902:Drivers/CMSIS/Include/cmsis_gcc.h ****   \param [in]  value  Value to store
 903:Drivers/CMSIS/Include/cmsis_gcc.h ****   \param [in]    ptr  Pointer to location
 904:Drivers/CMSIS/Include/cmsis_gcc.h ****   \return          0  Function succeeded
 905:Drivers/CMSIS/Include/cmsis_gcc.h ****   \return          1  Function failed
 906:Drivers/CMSIS/Include/cmsis_gcc.h ****  */
 907:Drivers/CMSIS/Include/cmsis_gcc.h **** __STATIC_FORCEINLINE uint32_t __STLEXH(uint16_t value, volatile uint16_t *ptr)
 908:Drivers/CMSIS/Include/cmsis_gcc.h **** {
 909:Drivers/CMSIS/Include/cmsis_gcc.h ****    uint32_t result;
 910:Drivers/CMSIS/Include/cmsis_gcc.h **** 
 911:Drivers/CMSIS/Include/cmsis_gcc.h ****    __ASM volatile ("stlexh %0, %2, %1" : "=&r" (result), "=Q" (*ptr) : "r" ((uint32_t)value) : "mem
 912:Drivers/CMSIS/Include/cmsis_gcc.h ****    return(result);
 913:Drivers/CMSIS/Include/cmsis_gcc.h **** }
 914:Drivers/CMSIS/Include/cmsis_gcc.h **** 
 915:Drivers/CMSIS/Include/cmsis_gcc.h **** 
 916:Drivers/CMSIS/Include/cmsis_gcc.h **** /**
 917:Drivers/CMSIS/Include/cmsis_gcc.h ****   \brief   Store-Release Exclusive (32 bit)
 918:Drivers/CMSIS/Include/cmsis_gcc.h ****   \details Executes a STL exclusive instruction for 32 bit values.
 919:Drivers/CMSIS/Include/cmsis_gcc.h ****   \param [in]  value  Value to store
 920:Drivers/CMSIS/Include/cmsis_gcc.h ****   \param [in]    ptr  Pointer to location
 921:Drivers/CMSIS/Include/cmsis_gcc.h ****   \return          0  Function succeeded
 922:Drivers/CMSIS/Include/cmsis_gcc.h ****   \return          1  Function failed
 923:Drivers/CMSIS/Include/cmsis_gcc.h ****  */
 924:Drivers/CMSIS/Include/cmsis_gcc.h **** __STATIC_FORCEINLINE uint32_t __STLEX(uint32_t value, volatile uint32_t *ptr)
 925:Drivers/CMSIS/Include/cmsis_gcc.h **** {
 926:Drivers/CMSIS/Include/cmsis_gcc.h ****    uint32_t result;
 927:Drivers/CMSIS/Include/cmsis_gcc.h **** 
 928:Drivers/CMSIS/Include/cmsis_gcc.h ****    __ASM volatile ("stlex %0, %2, %1" : "=&r" (result), "=Q" (*ptr) : "r" ((uint32_t)value) : "memo
 929:Drivers/CMSIS/Include/cmsis_gcc.h ****    return(result);
 930:Drivers/CMSIS/Include/cmsis_gcc.h **** }
 931:Drivers/CMSIS/Include/cmsis_gcc.h **** 
 932:Drivers/CMSIS/Include/cmsis_gcc.h **** #endif /* ((defined (__ARM_ARCH_8M_MAIN__ ) && (__ARM_ARCH_8M_MAIN__ == 1)) || \
 933:Drivers/CMSIS/Include/cmsis_gcc.h ****            (defined (__ARM_ARCH_8M_BASE__ ) && (__ARM_ARCH_8M_BASE__ == 1))    ) */
 934:Drivers/CMSIS/Include/cmsis_gcc.h **** 
ARM GAS  /tmp/ccu8nWO0.s 			page 35


 935:Drivers/CMSIS/Include/cmsis_gcc.h **** /*@}*/ /* end of group CMSIS_Core_InstructionInterface */
 936:Drivers/CMSIS/Include/cmsis_gcc.h **** 
 937:Drivers/CMSIS/Include/cmsis_gcc.h **** 
 938:Drivers/CMSIS/Include/cmsis_gcc.h **** /* ###########################  Core Function Access  ########################### */
 939:Drivers/CMSIS/Include/cmsis_gcc.h **** /** \ingroup  CMSIS_Core_FunctionInterface
 940:Drivers/CMSIS/Include/cmsis_gcc.h ****     \defgroup CMSIS_Core_RegAccFunctions CMSIS Core Register Access Functions
 941:Drivers/CMSIS/Include/cmsis_gcc.h ****   @{
 942:Drivers/CMSIS/Include/cmsis_gcc.h ****  */
 943:Drivers/CMSIS/Include/cmsis_gcc.h **** 
 944:Drivers/CMSIS/Include/cmsis_gcc.h **** /**
 945:Drivers/CMSIS/Include/cmsis_gcc.h ****   \brief   Enable IRQ Interrupts
 946:Drivers/CMSIS/Include/cmsis_gcc.h ****   \details Enables IRQ interrupts by clearing special-purpose register PRIMASK.
 947:Drivers/CMSIS/Include/cmsis_gcc.h ****            Can only be executed in Privileged modes.
 948:Drivers/CMSIS/Include/cmsis_gcc.h ****  */
 949:Drivers/CMSIS/Include/cmsis_gcc.h **** __STATIC_FORCEINLINE void __enable_irq(void)
 950:Drivers/CMSIS/Include/cmsis_gcc.h **** {
 951:Drivers/CMSIS/Include/cmsis_gcc.h ****   __ASM volatile ("cpsie i" : : : "memory");
 952:Drivers/CMSIS/Include/cmsis_gcc.h **** }
 953:Drivers/CMSIS/Include/cmsis_gcc.h **** 
 954:Drivers/CMSIS/Include/cmsis_gcc.h **** 
 955:Drivers/CMSIS/Include/cmsis_gcc.h **** /**
 956:Drivers/CMSIS/Include/cmsis_gcc.h ****   \brief   Disable IRQ Interrupts
 957:Drivers/CMSIS/Include/cmsis_gcc.h ****   \details Disables IRQ interrupts by setting special-purpose register PRIMASK.
 958:Drivers/CMSIS/Include/cmsis_gcc.h ****            Can only be executed in Privileged modes.
 959:Drivers/CMSIS/Include/cmsis_gcc.h ****  */
 960:Drivers/CMSIS/Include/cmsis_gcc.h **** __STATIC_FORCEINLINE void __disable_irq(void)
 536              		.loc 2 960 27 view .LVU160
 537              	.LBB13:
 961:Drivers/CMSIS/Include/cmsis_gcc.h **** {
 962:Drivers/CMSIS/Include/cmsis_gcc.h ****   __ASM volatile ("cpsid i" : : : "memory");
 538              		.loc 2 962 3 view .LVU161
 539              		.syntax unified
 540              	@ 962 "Drivers/CMSIS/Include/cmsis_gcc.h" 1
 541 0000 72B6     		cpsid i
 542              	@ 0 "" 2
 543              		.thumb
 544              		.syntax unified
 545              	.L22:
 546              	.LBE13:
 547              	.LBE12:
 454:Src/init.c    ****   while (1)
 548              		.loc 1 454 3 view .LVU162
 455:Src/init.c    ****   {
 456:Src/init.c    ****   }
 549              		.loc 1 456 3 view .LVU163
 454:Src/init.c    ****   while (1)
 550              		.loc 1 454 9 view .LVU164
 551 0002 FEE7     		b	.L22
 552              		.cfi_endproc
 553              	.LFE142:
 555              		.section	.text.MX_CAN1_Init,"ax",%progbits
 556              		.align	1
 557              		.syntax unified
 558              		.thumb
 559              		.thumb_func
 561              	MX_CAN1_Init:
 562              	.LFB136:
ARM GAS  /tmp/ccu8nWO0.s 			page 36


 153:Src/init.c    **** 
 563              		.loc 1 153 1 view -0
 564              		.cfi_startproc
 565              		@ args = 0, pretend = 0, frame = 0
 566              		@ frame_needed = 0, uses_anonymous_args = 0
 567 0000 08B5     		push	{r3, lr}
 568              	.LCFI4:
 569              		.cfi_def_cfa_offset 8
 570              		.cfi_offset 3, -8
 571              		.cfi_offset 14, -4
 162:Src/init.c    ****   hcan1.Init.Prescaler = 16;
 572              		.loc 1 162 3 view .LVU166
 162:Src/init.c    ****   hcan1.Init.Prescaler = 16;
 573              		.loc 1 162 18 is_stmt 0 view .LVU167
 574 0002 0D48     		ldr	r0, .L27
 575 0004 0D4B     		ldr	r3, .L27+4
 576 0006 0360     		str	r3, [r0]
 163:Src/init.c    ****   hcan1.Init.Mode = CAN_MODE_NORMAL;
 577              		.loc 1 163 3 is_stmt 1 view .LVU168
 163:Src/init.c    ****   hcan1.Init.Mode = CAN_MODE_NORMAL;
 578              		.loc 1 163 24 is_stmt 0 view .LVU169
 579 0008 1023     		movs	r3, #16
 580 000a 4360     		str	r3, [r0, #4]
 164:Src/init.c    ****   hcan1.Init.SyncJumpWidth = CAN_SJW_1TQ;
 581              		.loc 1 164 3 is_stmt 1 view .LVU170
 164:Src/init.c    ****   hcan1.Init.SyncJumpWidth = CAN_SJW_1TQ;
 582              		.loc 1 164 19 is_stmt 0 view .LVU171
 583 000c 0023     		movs	r3, #0
 584 000e 8360     		str	r3, [r0, #8]
 165:Src/init.c    ****   hcan1.Init.TimeSeg1 = CAN_BS1_8TQ;
 585              		.loc 1 165 3 is_stmt 1 view .LVU172
 165:Src/init.c    ****   hcan1.Init.TimeSeg1 = CAN_BS1_8TQ;
 586              		.loc 1 165 28 is_stmt 0 view .LVU173
 587 0010 C360     		str	r3, [r0, #12]
 166:Src/init.c    ****   hcan1.Init.TimeSeg2 = CAN_BS2_3TQ;
 588              		.loc 1 166 3 is_stmt 1 view .LVU174
 166:Src/init.c    ****   hcan1.Init.TimeSeg2 = CAN_BS2_3TQ;
 589              		.loc 1 166 23 is_stmt 0 view .LVU175
 590 0012 4FF4E022 		mov	r2, #458752
 591 0016 0261     		str	r2, [r0, #16]
 167:Src/init.c    ****   hcan1.Init.TimeTriggeredMode = DISABLE;
 592              		.loc 1 167 3 is_stmt 1 view .LVU176
 167:Src/init.c    ****   hcan1.Init.TimeTriggeredMode = DISABLE;
 593              		.loc 1 167 23 is_stmt 0 view .LVU177
 594 0018 4FF40012 		mov	r2, #2097152
 595 001c 4261     		str	r2, [r0, #20]
 168:Src/init.c    ****   hcan1.Init.AutoBusOff = DISABLE;
 596              		.loc 1 168 3 is_stmt 1 view .LVU178
 168:Src/init.c    ****   hcan1.Init.AutoBusOff = DISABLE;
 597              		.loc 1 168 32 is_stmt 0 view .LVU179
 598 001e 0376     		strb	r3, [r0, #24]
 169:Src/init.c    ****   hcan1.Init.AutoWakeUp = DISABLE;
 599              		.loc 1 169 3 is_stmt 1 view .LVU180
 169:Src/init.c    ****   hcan1.Init.AutoWakeUp = DISABLE;
 600              		.loc 1 169 25 is_stmt 0 view .LVU181
 601 0020 4376     		strb	r3, [r0, #25]
 170:Src/init.c    ****   hcan1.Init.AutoRetransmission = DISABLE;
ARM GAS  /tmp/ccu8nWO0.s 			page 37


 602              		.loc 1 170 3 is_stmt 1 view .LVU182
 170:Src/init.c    ****   hcan1.Init.AutoRetransmission = DISABLE;
 603              		.loc 1 170 25 is_stmt 0 view .LVU183
 604 0022 8376     		strb	r3, [r0, #26]
 171:Src/init.c    ****   hcan1.Init.ReceiveFifoLocked = DISABLE;
 605              		.loc 1 171 3 is_stmt 1 view .LVU184
 171:Src/init.c    ****   hcan1.Init.ReceiveFifoLocked = DISABLE;
 606              		.loc 1 171 33 is_stmt 0 view .LVU185
 607 0024 C376     		strb	r3, [r0, #27]
 172:Src/init.c    ****   hcan1.Init.TransmitFifoPriority = DISABLE;
 608              		.loc 1 172 3 is_stmt 1 view .LVU186
 172:Src/init.c    ****   hcan1.Init.TransmitFifoPriority = DISABLE;
 609              		.loc 1 172 32 is_stmt 0 view .LVU187
 610 0026 0377     		strb	r3, [r0, #28]
 173:Src/init.c    ****   if (HAL_CAN_Init(&hcan1) != HAL_OK)
 611              		.loc 1 173 3 is_stmt 1 view .LVU188
 173:Src/init.c    ****   if (HAL_CAN_Init(&hcan1) != HAL_OK)
 612              		.loc 1 173 35 is_stmt 0 view .LVU189
 613 0028 4377     		strb	r3, [r0, #29]
 174:Src/init.c    ****   {
 614              		.loc 1 174 3 is_stmt 1 view .LVU190
 174:Src/init.c    ****   {
 615              		.loc 1 174 7 is_stmt 0 view .LVU191
 616 002a FFF7FEFF 		bl	HAL_CAN_Init
 617              	.LVL18:
 174:Src/init.c    ****   {
 618              		.loc 1 174 6 discriminator 1 view .LVU192
 619 002e 00B9     		cbnz	r0, .L26
 182:Src/init.c    **** 
 620              		.loc 1 182 1 view .LVU193
 621 0030 08BD     		pop	{r3, pc}
 622              	.L26:
 176:Src/init.c    ****   }
 623              		.loc 1 176 5 is_stmt 1 view .LVU194
 624 0032 FFF7FEFF 		bl	Error_Handler
 625              	.LVL19:
 626              	.L28:
 627 0036 00BF     		.align	2
 628              	.L27:
 629 0038 00000000 		.word	hcan1
 630 003c 00640040 		.word	1073767424
 631              		.cfi_endproc
 632              	.LFE136:
 634              		.section	.text.MX_USART3_UART_Init,"ax",%progbits
 635              		.align	1
 636              		.syntax unified
 637              		.thumb
 638              		.thumb_func
 640              	MX_USART3_UART_Init:
 641              	.LFB138:
 249:Src/init.c    **** 
 642              		.loc 1 249 1 view -0
 643              		.cfi_startproc
 644              		@ args = 0, pretend = 0, frame = 0
 645              		@ frame_needed = 0, uses_anonymous_args = 0
 646 0000 08B5     		push	{r3, lr}
 647              	.LCFI5:
ARM GAS  /tmp/ccu8nWO0.s 			page 38


 648              		.cfi_def_cfa_offset 8
 649              		.cfi_offset 3, -8
 650              		.cfi_offset 14, -4
 258:Src/init.c    ****   huart3.Init.BaudRate = 115200;
 651              		.loc 1 258 3 view .LVU196
 258:Src/init.c    ****   huart3.Init.BaudRate = 115200;
 652              		.loc 1 258 19 is_stmt 0 view .LVU197
 653 0002 0A48     		ldr	r0, .L33
 654 0004 0A4B     		ldr	r3, .L33+4
 655 0006 0360     		str	r3, [r0]
 259:Src/init.c    ****   huart3.Init.WordLength = UART_WORDLENGTH_8B;
 656              		.loc 1 259 3 is_stmt 1 view .LVU198
 259:Src/init.c    ****   huart3.Init.WordLength = UART_WORDLENGTH_8B;
 657              		.loc 1 259 24 is_stmt 0 view .LVU199
 658 0008 4FF4E133 		mov	r3, #115200
 659 000c 4360     		str	r3, [r0, #4]
 260:Src/init.c    ****   huart3.Init.StopBits = UART_STOPBITS_1;
 660              		.loc 1 260 3 is_stmt 1 view .LVU200
 260:Src/init.c    ****   huart3.Init.StopBits = UART_STOPBITS_1;
 661              		.loc 1 260 26 is_stmt 0 view .LVU201
 662 000e 0023     		movs	r3, #0
 663 0010 8360     		str	r3, [r0, #8]
 261:Src/init.c    ****   huart3.Init.Parity = UART_PARITY_NONE;
 664              		.loc 1 261 3 is_stmt 1 view .LVU202
 261:Src/init.c    ****   huart3.Init.Parity = UART_PARITY_NONE;
 665              		.loc 1 261 24 is_stmt 0 view .LVU203
 666 0012 C360     		str	r3, [r0, #12]
 262:Src/init.c    ****   huart3.Init.Mode = UART_MODE_TX_RX;
 667              		.loc 1 262 3 is_stmt 1 view .LVU204
 262:Src/init.c    ****   huart3.Init.Mode = UART_MODE_TX_RX;
 668              		.loc 1 262 22 is_stmt 0 view .LVU205
 669 0014 0361     		str	r3, [r0, #16]
 263:Src/init.c    ****   huart3.Init.HwFlowCtl = UART_HWCONTROL_NONE;
 670              		.loc 1 263 3 is_stmt 1 view .LVU206
 263:Src/init.c    ****   huart3.Init.HwFlowCtl = UART_HWCONTROL_NONE;
 671              		.loc 1 263 20 is_stmt 0 view .LVU207
 672 0016 0C22     		movs	r2, #12
 673 0018 4261     		str	r2, [r0, #20]
 264:Src/init.c    ****   huart3.Init.OverSampling = UART_OVERSAMPLING_16;
 674              		.loc 1 264 3 is_stmt 1 view .LVU208
 264:Src/init.c    ****   huart3.Init.OverSampling = UART_OVERSAMPLING_16;
 675              		.loc 1 264 25 is_stmt 0 view .LVU209
 676 001a 8361     		str	r3, [r0, #24]
 265:Src/init.c    ****   if (HAL_UART_Init(&huart3) != HAL_OK)
 677              		.loc 1 265 3 is_stmt 1 view .LVU210
 265:Src/init.c    ****   if (HAL_UART_Init(&huart3) != HAL_OK)
 678              		.loc 1 265 28 is_stmt 0 view .LVU211
 679 001c C361     		str	r3, [r0, #28]
 266:Src/init.c    ****   {
 680              		.loc 1 266 3 is_stmt 1 view .LVU212
 266:Src/init.c    ****   {
 681              		.loc 1 266 7 is_stmt 0 view .LVU213
 682 001e FFF7FEFF 		bl	HAL_UART_Init
 683              	.LVL20:
 266:Src/init.c    ****   {
 684              		.loc 1 266 6 discriminator 1 view .LVU214
 685 0022 00B9     		cbnz	r0, .L32
ARM GAS  /tmp/ccu8nWO0.s 			page 39


 274:Src/init.c    **** 
 686              		.loc 1 274 1 view .LVU215
 687 0024 08BD     		pop	{r3, pc}
 688              	.L32:
 268:Src/init.c    ****   }
 689              		.loc 1 268 5 is_stmt 1 view .LVU216
 690 0026 FFF7FEFF 		bl	Error_Handler
 691              	.LVL21:
 692              	.L34:
 693 002a 00BF     		.align	2
 694              	.L33:
 695 002c 00000000 		.word	huart3
 696 0030 00480040 		.word	1073760256
 697              		.cfi_endproc
 698              	.LFE138:
 700              		.section	.text.MX_USB_OTG_FS_PCD_Init,"ax",%progbits
 701              		.align	1
 702              		.syntax unified
 703              		.thumb
 704              		.thumb_func
 706              	MX_USB_OTG_FS_PCD_Init:
 707              	.LFB139:
 282:Src/init.c    **** 
 708              		.loc 1 282 1 view -0
 709              		.cfi_startproc
 710              		@ args = 0, pretend = 0, frame = 0
 711              		@ frame_needed = 0, uses_anonymous_args = 0
 712 0000 08B5     		push	{r3, lr}
 713              	.LCFI6:
 714              		.cfi_def_cfa_offset 8
 715              		.cfi_offset 3, -8
 716              		.cfi_offset 14, -4
 291:Src/init.c    ****   hpcd_USB_OTG_FS.Init.dev_endpoints = 6;
 717              		.loc 1 291 3 view .LVU218
 291:Src/init.c    ****   hpcd_USB_OTG_FS.Init.dev_endpoints = 6;
 718              		.loc 1 291 28 is_stmt 0 view .LVU219
 719 0002 0C48     		ldr	r0, .L39
 720 0004 4FF0A043 		mov	r3, #1342177280
 721 0008 0360     		str	r3, [r0]
 292:Src/init.c    ****   hpcd_USB_OTG_FS.Init.speed = PCD_SPEED_FULL;
 722              		.loc 1 292 3 is_stmt 1 view .LVU220
 292:Src/init.c    ****   hpcd_USB_OTG_FS.Init.speed = PCD_SPEED_FULL;
 723              		.loc 1 292 38 is_stmt 0 view .LVU221
 724 000a 0623     		movs	r3, #6
 725 000c 0371     		strb	r3, [r0, #4]
 293:Src/init.c    ****   hpcd_USB_OTG_FS.Init.dma_enable = DISABLE;
 726              		.loc 1 293 3 is_stmt 1 view .LVU222
 293:Src/init.c    ****   hpcd_USB_OTG_FS.Init.dma_enable = DISABLE;
 727              		.loc 1 293 30 is_stmt 0 view .LVU223
 728 000e 0222     		movs	r2, #2
 729 0010 C271     		strb	r2, [r0, #7]
 294:Src/init.c    ****   hpcd_USB_OTG_FS.Init.phy_itface = PCD_PHY_EMBEDDED;
 730              		.loc 1 294 3 is_stmt 1 view .LVU224
 294:Src/init.c    ****   hpcd_USB_OTG_FS.Init.phy_itface = PCD_PHY_EMBEDDED;
 731              		.loc 1 294 35 is_stmt 0 view .LVU225
 732 0012 0023     		movs	r3, #0
 733 0014 8371     		strb	r3, [r0, #6]
ARM GAS  /tmp/ccu8nWO0.s 			page 40


 295:Src/init.c    ****   hpcd_USB_OTG_FS.Init.Sof_enable = ENABLE;
 734              		.loc 1 295 3 is_stmt 1 view .LVU226
 295:Src/init.c    ****   hpcd_USB_OTG_FS.Init.Sof_enable = ENABLE;
 735              		.loc 1 295 35 is_stmt 0 view .LVU227
 736 0016 4272     		strb	r2, [r0, #9]
 296:Src/init.c    ****   hpcd_USB_OTG_FS.Init.low_power_enable = DISABLE;
 737              		.loc 1 296 3 is_stmt 1 view .LVU228
 296:Src/init.c    ****   hpcd_USB_OTG_FS.Init.low_power_enable = DISABLE;
 738              		.loc 1 296 35 is_stmt 0 view .LVU229
 739 0018 0122     		movs	r2, #1
 740 001a 8272     		strb	r2, [r0, #10]
 297:Src/init.c    ****   hpcd_USB_OTG_FS.Init.lpm_enable = DISABLE;
 741              		.loc 1 297 3 is_stmt 1 view .LVU230
 297:Src/init.c    ****   hpcd_USB_OTG_FS.Init.lpm_enable = DISABLE;
 742              		.loc 1 297 41 is_stmt 0 view .LVU231
 743 001c C372     		strb	r3, [r0, #11]
 298:Src/init.c    ****   hpcd_USB_OTG_FS.Init.battery_charging_enable = ENABLE;
 744              		.loc 1 298 3 is_stmt 1 view .LVU232
 298:Src/init.c    ****   hpcd_USB_OTG_FS.Init.battery_charging_enable = ENABLE;
 745              		.loc 1 298 35 is_stmt 0 view .LVU233
 746 001e 0373     		strb	r3, [r0, #12]
 299:Src/init.c    ****   hpcd_USB_OTG_FS.Init.vbus_sensing_enable = ENABLE;
 747              		.loc 1 299 3 is_stmt 1 view .LVU234
 299:Src/init.c    ****   hpcd_USB_OTG_FS.Init.vbus_sensing_enable = ENABLE;
 748              		.loc 1 299 48 is_stmt 0 view .LVU235
 749 0020 4273     		strb	r2, [r0, #13]
 300:Src/init.c    ****   hpcd_USB_OTG_FS.Init.use_dedicated_ep1 = DISABLE;
 750              		.loc 1 300 3 is_stmt 1 view .LVU236
 300:Src/init.c    ****   hpcd_USB_OTG_FS.Init.use_dedicated_ep1 = DISABLE;
 751              		.loc 1 300 44 is_stmt 0 view .LVU237
 752 0022 8273     		strb	r2, [r0, #14]
 301:Src/init.c    ****   if (HAL_PCD_Init(&hpcd_USB_OTG_FS) != HAL_OK)
 753              		.loc 1 301 3 is_stmt 1 view .LVU238
 301:Src/init.c    ****   if (HAL_PCD_Init(&hpcd_USB_OTG_FS) != HAL_OK)
 754              		.loc 1 301 42 is_stmt 0 view .LVU239
 755 0024 C373     		strb	r3, [r0, #15]
 302:Src/init.c    ****   {
 756              		.loc 1 302 3 is_stmt 1 view .LVU240
 302:Src/init.c    ****   {
 757              		.loc 1 302 7 is_stmt 0 view .LVU241
 758 0026 FFF7FEFF 		bl	HAL_PCD_Init
 759              	.LVL22:
 302:Src/init.c    ****   {
 760              		.loc 1 302 6 discriminator 1 view .LVU242
 761 002a 00B9     		cbnz	r0, .L38
 310:Src/init.c    **** 
 762              		.loc 1 310 1 view .LVU243
 763 002c 08BD     		pop	{r3, pc}
 764              	.L38:
 304:Src/init.c    ****   }
 765              		.loc 1 304 5 is_stmt 1 view .LVU244
 766 002e FFF7FEFF 		bl	Error_Handler
 767              	.LVL23:
 768              	.L40:
 769 0032 00BF     		.align	2
 770              	.L39:
 771 0034 00000000 		.word	hpcd_USB_OTG_FS
ARM GAS  /tmp/ccu8nWO0.s 			page 41


 772              		.cfi_endproc
 773              	.LFE139:
 775              		.section	.text.MX_TIM2_Init,"ax",%progbits
 776              		.align	1
 777              		.syntax unified
 778              		.thumb
 779              		.thumb_func
 781              	MX_TIM2_Init:
 782              	.LFB137:
 190:Src/init.c    **** 
 783              		.loc 1 190 1 view -0
 784              		.cfi_startproc
 785              		@ args = 0, pretend = 0, frame = 56
 786              		@ frame_needed = 0, uses_anonymous_args = 0
 787 0000 00B5     		push	{lr}
 788              	.LCFI7:
 789              		.cfi_def_cfa_offset 4
 790              		.cfi_offset 14, -4
 791 0002 8FB0     		sub	sp, sp, #60
 792              	.LCFI8:
 793              		.cfi_def_cfa_offset 64
 196:Src/init.c    ****   TIM_MasterConfigTypeDef sMasterConfig = {0};
 794              		.loc 1 196 3 view .LVU246
 196:Src/init.c    ****   TIM_MasterConfigTypeDef sMasterConfig = {0};
 795              		.loc 1 196 26 is_stmt 0 view .LVU247
 796 0004 0023     		movs	r3, #0
 797 0006 0A93     		str	r3, [sp, #40]
 798 0008 0B93     		str	r3, [sp, #44]
 799 000a 0C93     		str	r3, [sp, #48]
 800 000c 0D93     		str	r3, [sp, #52]
 197:Src/init.c    ****   TIM_OC_InitTypeDef sConfigOC = {0};
 801              		.loc 1 197 3 is_stmt 1 view .LVU248
 197:Src/init.c    ****   TIM_OC_InitTypeDef sConfigOC = {0};
 802              		.loc 1 197 27 is_stmt 0 view .LVU249
 803 000e 0893     		str	r3, [sp, #32]
 804 0010 0993     		str	r3, [sp, #36]
 198:Src/init.c    **** 
 805              		.loc 1 198 3 is_stmt 1 view .LVU250
 198:Src/init.c    **** 
 806              		.loc 1 198 22 is_stmt 0 view .LVU251
 807 0012 0193     		str	r3, [sp, #4]
 808 0014 0293     		str	r3, [sp, #8]
 809 0016 0393     		str	r3, [sp, #12]
 810 0018 0493     		str	r3, [sp, #16]
 811 001a 0593     		str	r3, [sp, #20]
 812 001c 0693     		str	r3, [sp, #24]
 813 001e 0793     		str	r3, [sp, #28]
 203:Src/init.c    ****   htim2.Init.Prescaler = 96;
 814              		.loc 1 203 3 is_stmt 1 view .LVU252
 203:Src/init.c    ****   htim2.Init.Prescaler = 96;
 815              		.loc 1 203 18 is_stmt 0 view .LVU253
 816 0020 1D48     		ldr	r0, .L53
 817 0022 4FF08042 		mov	r2, #1073741824
 818 0026 0260     		str	r2, [r0]
 204:Src/init.c    ****   htim2.Init.CounterMode = TIM_COUNTERMODE_UP;
 819              		.loc 1 204 3 is_stmt 1 view .LVU254
 204:Src/init.c    ****   htim2.Init.CounterMode = TIM_COUNTERMODE_UP;
ARM GAS  /tmp/ccu8nWO0.s 			page 42


 820              		.loc 1 204 24 is_stmt 0 view .LVU255
 821 0028 6022     		movs	r2, #96
 822 002a 4260     		str	r2, [r0, #4]
 205:Src/init.c    ****   htim2.Init.Period = 19999;
 823              		.loc 1 205 3 is_stmt 1 view .LVU256
 205:Src/init.c    ****   htim2.Init.Period = 19999;
 824              		.loc 1 205 26 is_stmt 0 view .LVU257
 825 002c 8360     		str	r3, [r0, #8]
 206:Src/init.c    ****   htim2.Init.ClockDivision = TIM_CLOCKDIVISION_DIV1;
 826              		.loc 1 206 3 is_stmt 1 view .LVU258
 206:Src/init.c    ****   htim2.Init.ClockDivision = TIM_CLOCKDIVISION_DIV1;
 827              		.loc 1 206 21 is_stmt 0 view .LVU259
 828 002e 44F61F62 		movw	r2, #19999
 829 0032 C260     		str	r2, [r0, #12]
 207:Src/init.c    ****   htim2.Init.AutoReloadPreload = TIM_AUTORELOAD_PRELOAD_DISABLE;
 830              		.loc 1 207 3 is_stmt 1 view .LVU260
 207:Src/init.c    ****   htim2.Init.AutoReloadPreload = TIM_AUTORELOAD_PRELOAD_DISABLE;
 831              		.loc 1 207 28 is_stmt 0 view .LVU261
 832 0034 0361     		str	r3, [r0, #16]
 208:Src/init.c    ****   if (HAL_TIM_Base_Init(&htim2) != HAL_OK)
 833              		.loc 1 208 3 is_stmt 1 view .LVU262
 208:Src/init.c    ****   if (HAL_TIM_Base_Init(&htim2) != HAL_OK)
 834              		.loc 1 208 32 is_stmt 0 view .LVU263
 835 0036 8361     		str	r3, [r0, #24]
 209:Src/init.c    ****   {
 836              		.loc 1 209 3 is_stmt 1 view .LVU264
 209:Src/init.c    ****   {
 837              		.loc 1 209 7 is_stmt 0 view .LVU265
 838 0038 FFF7FEFF 		bl	HAL_TIM_Base_Init
 839              	.LVL24:
 209:Src/init.c    ****   {
 840              		.loc 1 209 6 discriminator 1 view .LVU266
 841 003c 10BB     		cbnz	r0, .L48
 213:Src/init.c    ****   if (HAL_TIM_ConfigClockSource(&htim2, &sClockSourceConfig) != HAL_OK)
 842              		.loc 1 213 3 is_stmt 1 view .LVU267
 213:Src/init.c    ****   if (HAL_TIM_ConfigClockSource(&htim2, &sClockSourceConfig) != HAL_OK)
 843              		.loc 1 213 34 is_stmt 0 view .LVU268
 844 003e 4FF48053 		mov	r3, #4096
 845 0042 0A93     		str	r3, [sp, #40]
 214:Src/init.c    ****   {
 846              		.loc 1 214 3 is_stmt 1 view .LVU269
 214:Src/init.c    ****   {
 847              		.loc 1 214 7 is_stmt 0 view .LVU270
 848 0044 0AA9     		add	r1, sp, #40
 849 0046 1448     		ldr	r0, .L53
 850 0048 FFF7FEFF 		bl	HAL_TIM_ConfigClockSource
 851              	.LVL25:
 214:Src/init.c    ****   {
 852              		.loc 1 214 6 discriminator 1 view .LVU271
 853 004c E0B9     		cbnz	r0, .L49
 218:Src/init.c    ****   {
 854              		.loc 1 218 3 is_stmt 1 view .LVU272
 218:Src/init.c    ****   {
 855              		.loc 1 218 7 is_stmt 0 view .LVU273
 856 004e 1248     		ldr	r0, .L53
 857 0050 FFF7FEFF 		bl	HAL_TIM_PWM_Init
 858              	.LVL26:
ARM GAS  /tmp/ccu8nWO0.s 			page 43


 218:Src/init.c    ****   {
 859              		.loc 1 218 6 discriminator 1 view .LVU274
 860 0054 D0B9     		cbnz	r0, .L50
 222:Src/init.c    ****   sMasterConfig.MasterSlaveMode = TIM_MASTERSLAVEMODE_DISABLE;
 861              		.loc 1 222 3 is_stmt 1 view .LVU275
 222:Src/init.c    ****   sMasterConfig.MasterSlaveMode = TIM_MASTERSLAVEMODE_DISABLE;
 862              		.loc 1 222 37 is_stmt 0 view .LVU276
 863 0056 0890     		str	r0, [sp, #32]
 223:Src/init.c    ****   if (HAL_TIMEx_MasterConfigSynchronization(&htim2, &sMasterConfig) != HAL_OK)
 864              		.loc 1 223 3 is_stmt 1 view .LVU277
 223:Src/init.c    ****   if (HAL_TIMEx_MasterConfigSynchronization(&htim2, &sMasterConfig) != HAL_OK)
 865              		.loc 1 223 33 is_stmt 0 view .LVU278
 866 0058 0990     		str	r0, [sp, #36]
 224:Src/init.c    ****   {
 867              		.loc 1 224 3 is_stmt 1 view .LVU279
 224:Src/init.c    ****   {
 868              		.loc 1 224 7 is_stmt 0 view .LVU280
 869 005a 08A9     		add	r1, sp, #32
 870 005c 0E48     		ldr	r0, .L53
 871 005e FFF7FEFF 		bl	HAL_TIMEx_MasterConfigSynchronization
 872              	.LVL27:
 224:Src/init.c    ****   {
 873              		.loc 1 224 6 discriminator 1 view .LVU281
 874 0062 A8B9     		cbnz	r0, .L51
 228:Src/init.c    ****   sConfigOC.Pulse = 0;
 875              		.loc 1 228 3 is_stmt 1 view .LVU282
 228:Src/init.c    ****   sConfigOC.Pulse = 0;
 876              		.loc 1 228 20 is_stmt 0 view .LVU283
 877 0064 6023     		movs	r3, #96
 878 0066 0193     		str	r3, [sp, #4]
 229:Src/init.c    ****   sConfigOC.OCPolarity = TIM_OCPOLARITY_HIGH;
 879              		.loc 1 229 3 is_stmt 1 view .LVU284
 229:Src/init.c    ****   sConfigOC.OCPolarity = TIM_OCPOLARITY_HIGH;
 880              		.loc 1 229 19 is_stmt 0 view .LVU285
 881 0068 0290     		str	r0, [sp, #8]
 230:Src/init.c    ****   sConfigOC.OCFastMode = TIM_OCFAST_DISABLE;
 882              		.loc 1 230 3 is_stmt 1 view .LVU286
 230:Src/init.c    ****   sConfigOC.OCFastMode = TIM_OCFAST_DISABLE;
 883              		.loc 1 230 24 is_stmt 0 view .LVU287
 884 006a 0390     		str	r0, [sp, #12]
 231:Src/init.c    ****   if (HAL_TIM_PWM_ConfigChannel(&htim2, &sConfigOC, TIM_CHANNEL_3) != HAL_OK)
 885              		.loc 1 231 3 is_stmt 1 view .LVU288
 231:Src/init.c    ****   if (HAL_TIM_PWM_ConfigChannel(&htim2, &sConfigOC, TIM_CHANNEL_3) != HAL_OK)
 886              		.loc 1 231 24 is_stmt 0 view .LVU289
 887 006c 0590     		str	r0, [sp, #20]
 232:Src/init.c    ****   {
 888              		.loc 1 232 3 is_stmt 1 view .LVU290
 232:Src/init.c    ****   {
 889              		.loc 1 232 7 is_stmt 0 view .LVU291
 890 006e 0822     		movs	r2, #8
 891 0070 01A9     		add	r1, sp, #4
 892 0072 0948     		ldr	r0, .L53
 893 0074 FFF7FEFF 		bl	HAL_TIM_PWM_ConfigChannel
 894              	.LVL28:
 232:Src/init.c    ****   {
 895              		.loc 1 232 6 discriminator 1 view .LVU292
 896 0078 60B9     		cbnz	r0, .L52
ARM GAS  /tmp/ccu8nWO0.s 			page 44


 239:Src/init.c    **** 
 897              		.loc 1 239 3 is_stmt 1 view .LVU293
 898 007a 0748     		ldr	r0, .L53
 899 007c FFF7FEFF 		bl	HAL_TIM_MspPostInit
 900              	.LVL29:
 241:Src/init.c    **** 
 901              		.loc 1 241 1 is_stmt 0 view .LVU294
 902 0080 0FB0     		add	sp, sp, #60
 903              	.LCFI9:
 904              		.cfi_remember_state
 905              		.cfi_def_cfa_offset 4
 906              		@ sp needed
 907 0082 00BD     		pop	{pc}
 908              	.L48:
 909              	.LCFI10:
 910              		.cfi_restore_state
 211:Src/init.c    ****   }
 911              		.loc 1 211 5 is_stmt 1 view .LVU295
 912 0084 FFF7FEFF 		bl	Error_Handler
 913              	.LVL30:
 914              	.L49:
 216:Src/init.c    ****   }
 915              		.loc 1 216 5 view .LVU296
 916 0088 FFF7FEFF 		bl	Error_Handler
 917              	.LVL31:
 918              	.L50:
 220:Src/init.c    ****   }
 919              		.loc 1 220 5 view .LVU297
 920 008c FFF7FEFF 		bl	Error_Handler
 921              	.LVL32:
 922              	.L51:
 226:Src/init.c    ****   }
 923              		.loc 1 226 5 view .LVU298
 924 0090 FFF7FEFF 		bl	Error_Handler
 925              	.LVL33:
 926              	.L52:
 234:Src/init.c    ****   }
 927              		.loc 1 234 5 view .LVU299
 928 0094 FFF7FEFF 		bl	Error_Handler
 929              	.LVL34:
 930              	.L54:
 931              		.align	2
 932              	.L53:
 933 0098 00000000 		.word	htim2
 934              		.cfi_endproc
 935              	.LFE137:
 937              		.section	.text.SystemClock_Config,"ax",%progbits
 938              		.align	1
 939              		.global	SystemClock_Config
 940              		.syntax unified
 941              		.thumb
 942              		.thumb_func
 944              	SystemClock_Config:
 945              	.LFB135:
 106:Src/init.c    ****   RCC_OscInitTypeDef RCC_OscInitStruct = {0};
 946              		.loc 1 106 1 view -0
 947              		.cfi_startproc
ARM GAS  /tmp/ccu8nWO0.s 			page 45


 948              		@ args = 0, pretend = 0, frame = 80
 949              		@ frame_needed = 0, uses_anonymous_args = 0
 950 0000 10B5     		push	{r4, lr}
 951              	.LCFI11:
 952              		.cfi_def_cfa_offset 8
 953              		.cfi_offset 4, -8
 954              		.cfi_offset 14, -4
 955 0002 94B0     		sub	sp, sp, #80
 956              	.LCFI12:
 957              		.cfi_def_cfa_offset 88
 107:Src/init.c    ****   RCC_ClkInitTypeDef RCC_ClkInitStruct = {0};
 958              		.loc 1 107 3 view .LVU301
 107:Src/init.c    ****   RCC_ClkInitTypeDef RCC_ClkInitStruct = {0};
 959              		.loc 1 107 22 is_stmt 0 view .LVU302
 960 0004 07AC     		add	r4, sp, #28
 961 0006 3422     		movs	r2, #52
 962 0008 0021     		movs	r1, #0
 963 000a 2046     		mov	r0, r4
 964 000c FFF7FEFF 		bl	memset
 965              	.LVL35:
 108:Src/init.c    **** 
 966              		.loc 1 108 3 is_stmt 1 view .LVU303
 108:Src/init.c    **** 
 967              		.loc 1 108 22 is_stmt 0 view .LVU304
 968 0010 0023     		movs	r3, #0
 969 0012 0293     		str	r3, [sp, #8]
 970 0014 0393     		str	r3, [sp, #12]
 971 0016 0493     		str	r3, [sp, #16]
 972 0018 0593     		str	r3, [sp, #20]
 973 001a 0693     		str	r3, [sp, #24]
 112:Src/init.c    ****   __HAL_PWR_VOLTAGESCALING_CONFIG(PWR_REGULATOR_VOLTAGE_SCALE1);
 974              		.loc 1 112 3 is_stmt 1 view .LVU305
 975              	.LBB14:
 112:Src/init.c    ****   __HAL_PWR_VOLTAGESCALING_CONFIG(PWR_REGULATOR_VOLTAGE_SCALE1);
 976              		.loc 1 112 3 view .LVU306
 977 001c 0093     		str	r3, [sp]
 112:Src/init.c    ****   __HAL_PWR_VOLTAGESCALING_CONFIG(PWR_REGULATOR_VOLTAGE_SCALE1);
 978              		.loc 1 112 3 view .LVU307
 979 001e 204A     		ldr	r2, .L61
 980 0020 116C     		ldr	r1, [r2, #64]
 981 0022 41F08051 		orr	r1, r1, #268435456
 982 0026 1164     		str	r1, [r2, #64]
 112:Src/init.c    ****   __HAL_PWR_VOLTAGESCALING_CONFIG(PWR_REGULATOR_VOLTAGE_SCALE1);
 983              		.loc 1 112 3 view .LVU308
 984 0028 126C     		ldr	r2, [r2, #64]
 985 002a 02F08052 		and	r2, r2, #268435456
 986 002e 0092     		str	r2, [sp]
 112:Src/init.c    ****   __HAL_PWR_VOLTAGESCALING_CONFIG(PWR_REGULATOR_VOLTAGE_SCALE1);
 987              		.loc 1 112 3 view .LVU309
 988 0030 009A     		ldr	r2, [sp]
 989              	.LBE14:
 112:Src/init.c    ****   __HAL_PWR_VOLTAGESCALING_CONFIG(PWR_REGULATOR_VOLTAGE_SCALE1);
 990              		.loc 1 112 3 view .LVU310
 113:Src/init.c    **** 
 991              		.loc 1 113 3 view .LVU311
 992              	.LBB15:
 113:Src/init.c    **** 
ARM GAS  /tmp/ccu8nWO0.s 			page 46


 993              		.loc 1 113 3 view .LVU312
 994 0032 0193     		str	r3, [sp, #4]
 113:Src/init.c    **** 
 995              		.loc 1 113 3 view .LVU313
 996 0034 1B4B     		ldr	r3, .L61+4
 997 0036 1A68     		ldr	r2, [r3]
 998 0038 42F44042 		orr	r2, r2, #49152
 999 003c 1A60     		str	r2, [r3]
 113:Src/init.c    **** 
 1000              		.loc 1 113 3 view .LVU314
 1001 003e 1B68     		ldr	r3, [r3]
 1002 0040 03F44043 		and	r3, r3, #49152
 1003 0044 0193     		str	r3, [sp, #4]
 113:Src/init.c    **** 
 1004              		.loc 1 113 3 view .LVU315
 1005 0046 019B     		ldr	r3, [sp, #4]
 1006              	.LBE15:
 113:Src/init.c    **** 
 1007              		.loc 1 113 3 view .LVU316
 118:Src/init.c    ****   RCC_OscInitStruct.HSEState = RCC_HSE_BYPASS;
 1008              		.loc 1 118 3 view .LVU317
 118:Src/init.c    ****   RCC_OscInitStruct.HSEState = RCC_HSE_BYPASS;
 1009              		.loc 1 118 36 is_stmt 0 view .LVU318
 1010 0048 0123     		movs	r3, #1
 1011 004a 0793     		str	r3, [sp, #28]
 119:Src/init.c    ****   RCC_OscInitStruct.PLL.PLLState = RCC_PLL_ON;
 1012              		.loc 1 119 3 is_stmt 1 view .LVU319
 119:Src/init.c    ****   RCC_OscInitStruct.PLL.PLLState = RCC_PLL_ON;
 1013              		.loc 1 119 30 is_stmt 0 view .LVU320
 1014 004c 4FF4A023 		mov	r3, #327680
 1015 0050 0893     		str	r3, [sp, #32]
 120:Src/init.c    ****   RCC_OscInitStruct.PLL.PLLSource = RCC_PLLSOURCE_HSE;
 1016              		.loc 1 120 3 is_stmt 1 view .LVU321
 120:Src/init.c    ****   RCC_OscInitStruct.PLL.PLLSource = RCC_PLLSOURCE_HSE;
 1017              		.loc 1 120 34 is_stmt 0 view .LVU322
 1018 0052 0223     		movs	r3, #2
 1019 0054 0D93     		str	r3, [sp, #52]
 121:Src/init.c    ****   RCC_OscInitStruct.PLL.PLLM = 8;
 1020              		.loc 1 121 3 is_stmt 1 view .LVU323
 121:Src/init.c    ****   RCC_OscInitStruct.PLL.PLLM = 8;
 1021              		.loc 1 121 35 is_stmt 0 view .LVU324
 1022 0056 4FF48002 		mov	r2, #4194304
 1023 005a 0E92     		str	r2, [sp, #56]
 122:Src/init.c    ****   RCC_OscInitStruct.PLL.PLLN = 384;
 1024              		.loc 1 122 3 is_stmt 1 view .LVU325
 122:Src/init.c    ****   RCC_OscInitStruct.PLL.PLLN = 384;
 1025              		.loc 1 122 30 is_stmt 0 view .LVU326
 1026 005c 0822     		movs	r2, #8
 1027 005e 0F92     		str	r2, [sp, #60]
 123:Src/init.c    ****   RCC_OscInitStruct.PLL.PLLP = RCC_PLLP_DIV4;
 1028              		.loc 1 123 3 is_stmt 1 view .LVU327
 123:Src/init.c    ****   RCC_OscInitStruct.PLL.PLLP = RCC_PLLP_DIV4;
 1029              		.loc 1 123 30 is_stmt 0 view .LVU328
 1030 0060 4FF4C071 		mov	r1, #384
 1031 0064 1091     		str	r1, [sp, #64]
 124:Src/init.c    ****   RCC_OscInitStruct.PLL.PLLQ = 8;
 1032              		.loc 1 124 3 is_stmt 1 view .LVU329
ARM GAS  /tmp/ccu8nWO0.s 			page 47


 124:Src/init.c    ****   RCC_OscInitStruct.PLL.PLLQ = 8;
 1033              		.loc 1 124 30 is_stmt 0 view .LVU330
 1034 0066 0421     		movs	r1, #4
 1035 0068 1191     		str	r1, [sp, #68]
 125:Src/init.c    ****   RCC_OscInitStruct.PLL.PLLR = 2;
 1036              		.loc 1 125 3 is_stmt 1 view .LVU331
 125:Src/init.c    ****   RCC_OscInitStruct.PLL.PLLR = 2;
 1037              		.loc 1 125 30 is_stmt 0 view .LVU332
 1038 006a 1292     		str	r2, [sp, #72]
 126:Src/init.c    ****   if (HAL_RCC_OscConfig(&RCC_OscInitStruct) != HAL_OK)
 1039              		.loc 1 126 3 is_stmt 1 view .LVU333
 126:Src/init.c    ****   if (HAL_RCC_OscConfig(&RCC_OscInitStruct) != HAL_OK)
 1040              		.loc 1 126 30 is_stmt 0 view .LVU334
 1041 006c 1393     		str	r3, [sp, #76]
 127:Src/init.c    ****   {
 1042              		.loc 1 127 3 is_stmt 1 view .LVU335
 127:Src/init.c    ****   {
 1043              		.loc 1 127 7 is_stmt 0 view .LVU336
 1044 006e 2046     		mov	r0, r4
 1045 0070 FFF7FEFF 		bl	HAL_RCC_OscConfig
 1046              	.LVL36:
 127:Src/init.c    ****   {
 1047              		.loc 1 127 6 discriminator 1 view .LVU337
 1048 0074 78B9     		cbnz	r0, .L59
 134:Src/init.c    ****                               |RCC_CLOCKTYPE_PCLK1|RCC_CLOCKTYPE_PCLK2;
 1049              		.loc 1 134 3 is_stmt 1 view .LVU338
 134:Src/init.c    ****                               |RCC_CLOCKTYPE_PCLK1|RCC_CLOCKTYPE_PCLK2;
 1050              		.loc 1 134 31 is_stmt 0 view .LVU339
 1051 0076 0F23     		movs	r3, #15
 1052 0078 0293     		str	r3, [sp, #8]
 136:Src/init.c    ****   RCC_ClkInitStruct.AHBCLKDivider = RCC_SYSCLK_DIV1;
 1053              		.loc 1 136 3 is_stmt 1 view .LVU340
 136:Src/init.c    ****   RCC_ClkInitStruct.AHBCLKDivider = RCC_SYSCLK_DIV1;
 1054              		.loc 1 136 34 is_stmt 0 view .LVU341
 1055 007a 0223     		movs	r3, #2
 1056 007c 0393     		str	r3, [sp, #12]
 137:Src/init.c    ****   RCC_ClkInitStruct.APB1CLKDivider = RCC_HCLK_DIV2;
 1057              		.loc 1 137 3 is_stmt 1 view .LVU342
 137:Src/init.c    ****   RCC_ClkInitStruct.APB1CLKDivider = RCC_HCLK_DIV2;
 1058              		.loc 1 137 35 is_stmt 0 view .LVU343
 1059 007e 0490     		str	r0, [sp, #16]
 138:Src/init.c    ****   RCC_ClkInitStruct.APB2CLKDivider = RCC_HCLK_DIV1;
 1060              		.loc 1 138 3 is_stmt 1 view .LVU344
 138:Src/init.c    ****   RCC_ClkInitStruct.APB2CLKDivider = RCC_HCLK_DIV1;
 1061              		.loc 1 138 36 is_stmt 0 view .LVU345
 1062 0080 4FF48052 		mov	r2, #4096
 1063 0084 0592     		str	r2, [sp, #20]
 139:Src/init.c    **** 
 1064              		.loc 1 139 3 is_stmt 1 view .LVU346
 139:Src/init.c    **** 
 1065              		.loc 1 139 36 is_stmt 0 view .LVU347
 1066 0086 0690     		str	r0, [sp, #24]
 141:Src/init.c    ****   {
 1067              		.loc 1 141 3 is_stmt 1 view .LVU348
 141:Src/init.c    ****   {
 1068              		.loc 1 141 7 is_stmt 0 view .LVU349
 1069 0088 0321     		movs	r1, #3
ARM GAS  /tmp/ccu8nWO0.s 			page 48


 1070 008a 02A8     		add	r0, sp, #8
 1071 008c FFF7FEFF 		bl	HAL_RCC_ClockConfig
 1072              	.LVL37:
 141:Src/init.c    ****   {
 1073              		.loc 1 141 6 discriminator 1 view .LVU350
 1074 0090 18B9     		cbnz	r0, .L60
 145:Src/init.c    **** 
 1075              		.loc 1 145 1 view .LVU351
 1076 0092 14B0     		add	sp, sp, #80
 1077              	.LCFI13:
 1078              		.cfi_remember_state
 1079              		.cfi_def_cfa_offset 8
 1080              		@ sp needed
 1081 0094 10BD     		pop	{r4, pc}
 1082              	.L59:
 1083              	.LCFI14:
 1084              		.cfi_restore_state
 129:Src/init.c    ****   }
 1085              		.loc 1 129 5 is_stmt 1 view .LVU352
 1086 0096 FFF7FEFF 		bl	Error_Handler
 1087              	.LVL38:
 1088              	.L60:
 143:Src/init.c    ****   }
 1089              		.loc 1 143 5 view .LVU353
 1090 009a FFF7FEFF 		bl	Error_Handler
 1091              	.LVL39:
 1092              	.L62:
 1093 009e 00BF     		.align	2
 1094              	.L61:
 1095 00a0 00380240 		.word	1073887232
 1096 00a4 00700040 		.word	1073770496
 1097              		.cfi_endproc
 1098              	.LFE135:
 1100              		.section	.text.init,"ax",%progbits
 1101              		.align	1
 1102              		.global	init
 1103              		.syntax unified
 1104              		.thumb
 1105              		.thumb_func
 1107              	init:
 1108              	.LFB134:
  26:Src/init.c    **** 
 1109              		.loc 1 26 65 view -0
 1110              		.cfi_startproc
 1111              		@ args = 64, pretend = 16, frame = 40
 1112              		@ frame_needed = 0, uses_anonymous_args = 0
 1113 0000 84B0     		sub	sp, sp, #16
 1114              	.LCFI15:
 1115              		.cfi_def_cfa_offset 16
 1116 0002 00B5     		push	{lr}
 1117              	.LCFI16:
 1118              		.cfi_def_cfa_offset 20
 1119              		.cfi_offset 14, -20
 1120 0004 8BB0     		sub	sp, sp, #44
 1121              	.LCFI17:
 1122              		.cfi_def_cfa_offset 64
 1123 0006 0DF1300C 		add	ip, sp, #48
ARM GAS  /tmp/ccu8nWO0.s 			page 49


 1124 000a 8CE80F00 		stm	ip, {r0, r1, r2, r3}
  35:Src/init.c    **** 
 1125              		.loc 1 35 3 view .LVU355
 1126 000e FFF7FEFF 		bl	HAL_Init
 1127              	.LVL40:
  42:Src/init.c    **** 
 1128              		.loc 1 42 3 view .LVU356
 1129 0012 FFF7FEFF 		bl	SystemClock_Config
 1130              	.LVL41:
  49:Src/init.c    ****   MX_CAN1_Init();
 1131              		.loc 1 49 3 view .LVU357
 1132 0016 FFF7FEFF 		bl	MX_GPIO_Init
 1133              	.LVL42:
  50:Src/init.c    ****   MX_USART3_UART_Init();
 1134              		.loc 1 50 3 view .LVU358
 1135 001a FFF7FEFF 		bl	MX_CAN1_Init
 1136              	.LVL43:
  51:Src/init.c    ****   MX_USB_OTG_FS_PCD_Init();
 1137              		.loc 1 51 3 view .LVU359
 1138 001e FFF7FEFF 		bl	MX_USART3_UART_Init
 1139              	.LVL44:
  52:Src/init.c    ****   MX_TIM2_Init();
 1140              		.loc 1 52 3 view .LVU360
 1141 0022 FFF7FEFF 		bl	MX_USB_OTG_FS_PCD_Init
 1142              	.LVL45:
  53:Src/init.c    ****   /* USER CODE BEGIN 2 */
 1143              		.loc 1 53 3 view .LVU361
 1144 0026 FFF7FEFF 		bl	MX_TIM2_Init
 1145              	.LVL46:
  57:Src/init.c    **** 
 1146              		.loc 1 57 3 view .LVU362
  59:Src/init.c    ****   sFilterConfig.FilterMode = CAN_FILTERMODE_IDMASK;
 1147              		.loc 1 59 3 view .LVU363
  59:Src/init.c    ****   sFilterConfig.FilterMode = CAN_FILTERMODE_IDMASK;
 1148              		.loc 1 59 28 is_stmt 0 view .LVU364
 1149 002a 0023     		movs	r3, #0
 1150 002c 0593     		str	r3, [sp, #20]
  60:Src/init.c    ****   sFilterConfig.FilterScale = CAN_FILTERSCALE_32BIT;
 1151              		.loc 1 60 3 is_stmt 1 view .LVU365
  60:Src/init.c    ****   sFilterConfig.FilterScale = CAN_FILTERSCALE_32BIT;
 1152              		.loc 1 60 28 is_stmt 0 view .LVU366
 1153 002e 0693     		str	r3, [sp, #24]
  61:Src/init.c    ****   sFilterConfig.FilterIdHigh = 0x0000;
 1154              		.loc 1 61 3 is_stmt 1 view .LVU367
  61:Src/init.c    ****   sFilterConfig.FilterIdHigh = 0x0000;
 1155              		.loc 1 61 29 is_stmt 0 view .LVU368
 1156 0030 0122     		movs	r2, #1
 1157 0032 0792     		str	r2, [sp, #28]
  62:Src/init.c    ****   sFilterConfig.FilterIdLow = 0x0000;
 1158              		.loc 1 62 3 is_stmt 1 view .LVU369
  62:Src/init.c    ****   sFilterConfig.FilterIdLow = 0x0000;
 1159              		.loc 1 62 30 is_stmt 0 view .LVU370
 1160 0034 0093     		str	r3, [sp]
  63:Src/init.c    ****   sFilterConfig.FilterMaskIdHigh = 0x0000;
 1161              		.loc 1 63 3 is_stmt 1 view .LVU371
  63:Src/init.c    ****   sFilterConfig.FilterMaskIdHigh = 0x0000;
 1162              		.loc 1 63 29 is_stmt 0 view .LVU372
ARM GAS  /tmp/ccu8nWO0.s 			page 50


 1163 0036 0193     		str	r3, [sp, #4]
  64:Src/init.c    ****   sFilterConfig.FilterMaskIdLow = 0x0000;
 1164              		.loc 1 64 3 is_stmt 1 view .LVU373
  64:Src/init.c    ****   sFilterConfig.FilterMaskIdLow = 0x0000;
 1165              		.loc 1 64 34 is_stmt 0 view .LVU374
 1166 0038 0293     		str	r3, [sp, #8]
  65:Src/init.c    ****   sFilterConfig.FilterFIFOAssignment = CAN_RX_FIFO0;
 1167              		.loc 1 65 3 is_stmt 1 view .LVU375
  65:Src/init.c    ****   sFilterConfig.FilterFIFOAssignment = CAN_RX_FIFO0;
 1168              		.loc 1 65 33 is_stmt 0 view .LVU376
 1169 003a 0393     		str	r3, [sp, #12]
  66:Src/init.c    ****   sFilterConfig.FilterActivation = ENABLE;
 1170              		.loc 1 66 3 is_stmt 1 view .LVU377
  66:Src/init.c    ****   sFilterConfig.FilterActivation = ENABLE;
 1171              		.loc 1 66 38 is_stmt 0 view .LVU378
 1172 003c 0493     		str	r3, [sp, #16]
  67:Src/init.c    ****   sFilterConfig.SlaveStartFilterBank = 14;
 1173              		.loc 1 67 3 is_stmt 1 view .LVU379
  67:Src/init.c    ****   sFilterConfig.SlaveStartFilterBank = 14;
 1174              		.loc 1 67 34 is_stmt 0 view .LVU380
 1175 003e 0892     		str	r2, [sp, #32]
  68:Src/init.c    **** 
 1176              		.loc 1 68 3 is_stmt 1 view .LVU381
  68:Src/init.c    **** 
 1177              		.loc 1 68 38 is_stmt 0 view .LVU382
 1178 0040 0E23     		movs	r3, #14
 1179 0042 0993     		str	r3, [sp, #36]
  70:Src/init.c    ****   {
 1180              		.loc 1 70 3 is_stmt 1 view .LVU383
  70:Src/init.c    ****   {
 1181              		.loc 1 70 7 is_stmt 0 view .LVU384
 1182 0044 6946     		mov	r1, sp
 1183 0046 12A8     		add	r0, sp, #72
 1184 0048 FFF7FEFF 		bl	HAL_CAN_ConfigFilter
 1185              	.LVL47:
  70:Src/init.c    ****   {
 1186              		.loc 1 70 6 discriminator 1 view .LVU385
 1187 004c 00BB     		cbnz	r0, .L68
  76:Src/init.c    ****   {
 1188              		.loc 1 76 3 is_stmt 1 view .LVU386
  76:Src/init.c    ****   {
 1189              		.loc 1 76 7 is_stmt 0 view .LVU387
 1190 004e 12A8     		add	r0, sp, #72
 1191 0050 FFF7FEFF 		bl	HAL_CAN_Start
 1192              	.LVL48:
  76:Src/init.c    ****   {
 1193              		.loc 1 76 6 discriminator 1 view .LVU388
 1194 0054 F0B9     		cbnz	r0, .L69
  82:Src/init.c    ****   {
 1195              		.loc 1 82 3 is_stmt 1 view .LVU389
  82:Src/init.c    ****   {
 1196              		.loc 1 82 7 is_stmt 0 view .LVU390
 1197 0056 0221     		movs	r1, #2
 1198 0058 12A8     		add	r0, sp, #72
 1199 005a FFF7FEFF 		bl	HAL_CAN_ActivateNotification
 1200              	.LVL49:
  82:Src/init.c    ****   {
ARM GAS  /tmp/ccu8nWO0.s 			page 51


 1201              		.loc 1 82 6 discriminator 1 view .LVU391
 1202 005e D8B9     		cbnz	r0, .L70
  88:Src/init.c    ****   TxHeader.RTR = CAN_RTR_DATA;     // We are sending data frames, not remote requests
 1203              		.loc 1 88 3 is_stmt 1 view .LVU392
  88:Src/init.c    ****   TxHeader.RTR = CAN_RTR_DATA;     // We are sending data frames, not remote requests
 1204              		.loc 1 88 18 is_stmt 0 view .LVU393
 1205 0060 4FF48173 		mov	r3, #258
 1206 0064 0C93     		str	r3, [sp, #48]
  89:Src/init.c    ****   TxHeader.IDE = CAN_ID_STD;       // Standard 11-bit identifier format
 1207              		.loc 1 89 3 is_stmt 1 view .LVU394
  89:Src/init.c    ****   TxHeader.IDE = CAN_ID_STD;       // Standard 11-bit identifier format
 1208              		.loc 1 89 16 is_stmt 0 view .LVU395
 1209 0066 0F90     		str	r0, [sp, #60]
  90:Src/init.c    ****   TxHeader.DLC = 4;                // Sending 4 bytes of data payload
 1210              		.loc 1 90 3 is_stmt 1 view .LVU396
  90:Src/init.c    ****   TxHeader.DLC = 4;                // Sending 4 bytes of data payload
 1211              		.loc 1 90 16 is_stmt 0 view .LVU397
 1212 0068 0E90     		str	r0, [sp, #56]
  91:Src/init.c    ****   TxHeader.TransmitGlobalTime = DISABLE;
 1213              		.loc 1 91 3 is_stmt 1 view .LVU398
  91:Src/init.c    ****   TxHeader.TransmitGlobalTime = DISABLE;
 1214              		.loc 1 91 16 is_stmt 0 view .LVU399
 1215 006a 0422     		movs	r2, #4
 1216 006c 1092     		str	r2, [sp, #64]
  92:Src/init.c    **** 
 1217              		.loc 1 92 3 is_stmt 1 view .LVU400
  92:Src/init.c    **** 
 1218              		.loc 1 92 31 is_stmt 0 view .LVU401
 1219 006e 8DF84400 		strb	r0, [sp, #68]
  94:Src/init.c    **** 
 1220              		.loc 1 94 3 is_stmt 1 view .LVU402
 1221 0072 0821     		movs	r1, #8
 1222 0074 0948     		ldr	r0, .L71
 1223 0076 FFF7FEFF 		bl	HAL_TIM_PWM_Start
 1224              	.LVL50:
  96:Src/init.c    ****   /* USER CODE END 2 */
 1225              		.loc 1 96 3 view .LVU403
 1226 007a 0122     		movs	r2, #1
 1227 007c 4FF48041 		mov	r1, #16384
 1228 0080 0748     		ldr	r0, .L71+4
 1229 0082 FFF7FEFF 		bl	HAL_GPIO_WritePin
 1230              	.LVL51:
  98:Src/init.c    **** 
 1231              		.loc 1 98 1 is_stmt 0 view .LVU404
 1232 0086 0BB0     		add	sp, sp, #44
 1233              	.LCFI18:
 1234              		.cfi_remember_state
 1235              		.cfi_def_cfa_offset 20
 1236              		@ sp needed
 1237 0088 5DF804EB 		ldr	lr, [sp], #4
 1238              	.LCFI19:
 1239              		.cfi_restore 14
 1240              		.cfi_def_cfa_offset 16
 1241 008c 04B0     		add	sp, sp, #16
 1242              	.LCFI20:
 1243              		.cfi_def_cfa_offset 0
 1244 008e 7047     		bx	lr
ARM GAS  /tmp/ccu8nWO0.s 			page 52


 1245              	.L68:
 1246              	.LCFI21:
 1247              		.cfi_restore_state
  72:Src/init.c    ****   }
 1248              		.loc 1 72 7 is_stmt 1 view .LVU405
 1249 0090 FFF7FEFF 		bl	Error_Handler
 1250              	.LVL52:
 1251              	.L69:
  78:Src/init.c    ****   }
 1252              		.loc 1 78 7 view .LVU406
 1253 0094 FFF7FEFF 		bl	Error_Handler
 1254              	.LVL53:
 1255              	.L70:
  84:Src/init.c    ****   }
 1256              		.loc 1 84 7 view .LVU407
 1257 0098 FFF7FEFF 		bl	Error_Handler
 1258              	.LVL54:
 1259              	.L72:
 1260              		.align	2
 1261              	.L71:
 1262 009c 00000000 		.word	htim2
 1263 00a0 00140240 		.word	1073878016
 1264              		.cfi_endproc
 1265              	.LFE134:
 1267              		.global	TxMailbox
 1268              		.section	.bss.TxMailbox,"aw",%nobits
 1269              		.align	2
 1272              	TxMailbox:
 1273 0000 00000000 		.space	4
 1274              		.global	RxData
 1275              		.section	.bss.RxData,"aw",%nobits
 1276              		.align	2
 1279              	RxData:
 1280 0000 00000000 		.space	8
 1280      00000000 
 1281              		.global	TxData
 1282              		.section	.bss.TxData,"aw",%nobits
 1283              		.align	2
 1286              	TxData:
 1287 0000 00000000 		.space	8
 1287      00000000 
 1288              		.global	RxHeader
 1289              		.section	.bss.RxHeader,"aw",%nobits
 1290              		.align	2
 1293              	RxHeader:
 1294 0000 00000000 		.space	28
 1294      00000000 
 1294      00000000 
 1294      00000000 
 1294      00000000 
 1295              		.global	TxHeader
 1296              		.section	.bss.TxHeader,"aw",%nobits
 1297              		.align	2
 1300              	TxHeader:
 1301 0000 00000000 		.space	24
 1301      00000000 
 1301      00000000 
ARM GAS  /tmp/ccu8nWO0.s 			page 53


 1301      00000000 
 1301      00000000 
 1302              		.global	hpcd_USB_OTG_FS
 1303              		.section	.bss.hpcd_USB_OTG_FS,"aw",%nobits
 1304              		.align	2
 1307              	hpcd_USB_OTG_FS:
 1308 0000 00000000 		.space	1252
 1308      00000000 
 1308      00000000 
 1308      00000000 
 1308      00000000 
 1309              		.global	huart3
 1310              		.section	.bss.huart3,"aw",%nobits
 1311              		.align	2
 1314              	huart3:
 1315 0000 00000000 		.space	72
 1315      00000000 
 1315      00000000 
 1315      00000000 
 1315      00000000 
 1316              		.global	htim2
 1317              		.section	.bss.htim2,"aw",%nobits
 1318              		.align	2
 1321              	htim2:
 1322 0000 00000000 		.space	72
 1322      00000000 
 1322      00000000 
 1322      00000000 
 1322      00000000 
 1323              		.global	hcan1
 1324              		.section	.bss.hcan1,"aw",%nobits
 1325              		.align	2
 1328              	hcan1:
 1329 0000 00000000 		.space	40
 1329      00000000 
 1329      00000000 
 1329      00000000 
 1329      00000000 
 1330              		.text
 1331              	.Letext0:
 1332              		.file 3 "/usr/arm-none-eabi/include/machine/_default_types.h"
 1333              		.file 4 "/usr/arm-none-eabi/include/sys/_stdint.h"
 1334              		.file 5 "Drivers/CMSIS/Device/ST/STM32F4xx/Include/stm32f413xx.h"
 1335              		.file 6 "Drivers/CMSIS/Device/ST/STM32F4xx/Include/stm32f4xx.h"
 1336              		.file 7 "Drivers/STM32F4xx_HAL_Driver/Inc/stm32f4xx_hal_def.h"
 1337              		.file 8 "Drivers/STM32F4xx_HAL_Driver/Inc/stm32f4xx_hal_rcc_ex.h"
 1338              		.file 9 "Drivers/STM32F4xx_HAL_Driver/Inc/stm32f4xx_hal_rcc.h"
 1339              		.file 10 "Drivers/STM32F4xx_HAL_Driver/Inc/stm32f4xx_hal_gpio.h"
 1340              		.file 11 "Drivers/STM32F4xx_HAL_Driver/Inc/stm32f4xx_hal_dma.h"
 1341              		.file 12 "Drivers/STM32F4xx_HAL_Driver/Inc/stm32f4xx_hal_can.h"
 1342              		.file 13 "Drivers/STM32F4xx_HAL_Driver/Inc/stm32f4xx_hal_tim.h"
 1343              		.file 14 "Drivers/STM32F4xx_HAL_Driver/Inc/stm32f4xx_hal_uart.h"
 1344              		.file 15 "Drivers/STM32F4xx_HAL_Driver/Inc/stm32f4xx_ll_usb.h"
 1345              		.file 16 "Drivers/STM32F4xx_HAL_Driver/Inc/stm32f4xx_hal_pcd.h"
 1346              		.file 17 "Inc/init.h"
 1347              		.file 18 "Drivers/STM32F4xx_HAL_Driver/Inc/stm32f4xx_hal_tim_ex.h"
 1348              		.file 19 "Drivers/STM32F4xx_HAL_Driver/Inc/stm32f4xx_hal.h"
ARM GAS  /tmp/ccu8nWO0.s 			page 54


 1349              		.file 20 "<built-in>"
ARM GAS  /tmp/ccu8nWO0.s 			page 55

