ARM GAS  /tmp/cc0ThgoX.s 			page 1


   1              		.cpu cortex-m4
   2              		.arch armv7e-m
   3              		.fpu fpv4-sp-d16
   4              		.eabi_attribute 27, 1
   5              		.eabi_attribute 28, 1
   6              		.eabi_attribute 20, 1
   7              		.eabi_attribute 21, 1
   8              		.eabi_attribute 23, 3
   9              		.eabi_attribute 24, 1
  10              		.eabi_attribute 25, 1
  11              		.eabi_attribute 26, 1
  12              		.eabi_attribute 30, 1
  13              		.eabi_attribute 34, 1
  14              		.eabi_attribute 18, 4
  15              		.file	"stm32f4xx_ll_usb.c"
  16              		.text
  17              	.Ltext0:
  18              		.cfi_sections	.debug_frame
  19              		.file 1 "Drivers/STM32F4xx_HAL_Driver/Src/stm32f4xx_ll_usb.c"
  20              		.section	.text.USB_CoreReset,"ax",%progbits
  21              		.align	1
  22              		.syntax unified
  23              		.thumb
  24              		.thumb_func
  26              	USB_CoreReset:
  27              	.LVL0:
  28              	.LFB168:
   1:Drivers/STM32F4xx_HAL_Driver/Src/stm32f4xx_ll_usb.c **** /**
   2:Drivers/STM32F4xx_HAL_Driver/Src/stm32f4xx_ll_usb.c ****   ******************************************************************************
   3:Drivers/STM32F4xx_HAL_Driver/Src/stm32f4xx_ll_usb.c ****   * @file    stm32f4xx_ll_usb.c
   4:Drivers/STM32F4xx_HAL_Driver/Src/stm32f4xx_ll_usb.c ****   * @author  MCD Application Team
   5:Drivers/STM32F4xx_HAL_Driver/Src/stm32f4xx_ll_usb.c ****   * @brief   USB Low Layer HAL module driver.
   6:Drivers/STM32F4xx_HAL_Driver/Src/stm32f4xx_ll_usb.c ****   *
   7:Drivers/STM32F4xx_HAL_Driver/Src/stm32f4xx_ll_usb.c ****   *          This file provides firmware functions to manage the following
   8:Drivers/STM32F4xx_HAL_Driver/Src/stm32f4xx_ll_usb.c ****   *          functionalities of the USB Peripheral Controller:
   9:Drivers/STM32F4xx_HAL_Driver/Src/stm32f4xx_ll_usb.c ****   *           + Initialization/de-initialization functions
  10:Drivers/STM32F4xx_HAL_Driver/Src/stm32f4xx_ll_usb.c ****   *           + I/O operation functions
  11:Drivers/STM32F4xx_HAL_Driver/Src/stm32f4xx_ll_usb.c ****   *           + Peripheral Control functions
  12:Drivers/STM32F4xx_HAL_Driver/Src/stm32f4xx_ll_usb.c ****   *           + Peripheral State functions
  13:Drivers/STM32F4xx_HAL_Driver/Src/stm32f4xx_ll_usb.c ****   *
  14:Drivers/STM32F4xx_HAL_Driver/Src/stm32f4xx_ll_usb.c ****   ******************************************************************************
  15:Drivers/STM32F4xx_HAL_Driver/Src/stm32f4xx_ll_usb.c ****   * @attention
  16:Drivers/STM32F4xx_HAL_Driver/Src/stm32f4xx_ll_usb.c ****   *
  17:Drivers/STM32F4xx_HAL_Driver/Src/stm32f4xx_ll_usb.c ****   * Copyright (c) 2016 STMicroelectronics.
  18:Drivers/STM32F4xx_HAL_Driver/Src/stm32f4xx_ll_usb.c ****   * All rights reserved.
  19:Drivers/STM32F4xx_HAL_Driver/Src/stm32f4xx_ll_usb.c ****   *
  20:Drivers/STM32F4xx_HAL_Driver/Src/stm32f4xx_ll_usb.c ****   * This software is licensed under terms that can be found in the LICENSE file
  21:Drivers/STM32F4xx_HAL_Driver/Src/stm32f4xx_ll_usb.c ****   * in the root directory of this software component.
  22:Drivers/STM32F4xx_HAL_Driver/Src/stm32f4xx_ll_usb.c ****   * If no LICENSE file comes with this software, it is provided AS-IS.
  23:Drivers/STM32F4xx_HAL_Driver/Src/stm32f4xx_ll_usb.c ****   *
  24:Drivers/STM32F4xx_HAL_Driver/Src/stm32f4xx_ll_usb.c ****   ******************************************************************************
  25:Drivers/STM32F4xx_HAL_Driver/Src/stm32f4xx_ll_usb.c ****   @verbatim
  26:Drivers/STM32F4xx_HAL_Driver/Src/stm32f4xx_ll_usb.c ****   ==============================================================================
  27:Drivers/STM32F4xx_HAL_Driver/Src/stm32f4xx_ll_usb.c ****                     ##### How to use this driver #####
  28:Drivers/STM32F4xx_HAL_Driver/Src/stm32f4xx_ll_usb.c ****   ==============================================================================
  29:Drivers/STM32F4xx_HAL_Driver/Src/stm32f4xx_ll_usb.c ****     [..]
  30:Drivers/STM32F4xx_HAL_Driver/Src/stm32f4xx_ll_usb.c ****       (#) Fill parameters of Init structure in USB_CfgTypeDef structure.
ARM GAS  /tmp/cc0ThgoX.s 			page 2


  31:Drivers/STM32F4xx_HAL_Driver/Src/stm32f4xx_ll_usb.c **** 
  32:Drivers/STM32F4xx_HAL_Driver/Src/stm32f4xx_ll_usb.c ****       (#) Call USB_CoreInit() API to initialize the USB Core peripheral.
  33:Drivers/STM32F4xx_HAL_Driver/Src/stm32f4xx_ll_usb.c **** 
  34:Drivers/STM32F4xx_HAL_Driver/Src/stm32f4xx_ll_usb.c ****       (#) The upper HAL HCD/PCD driver will call the right routines for its internal processes.
  35:Drivers/STM32F4xx_HAL_Driver/Src/stm32f4xx_ll_usb.c **** 
  36:Drivers/STM32F4xx_HAL_Driver/Src/stm32f4xx_ll_usb.c ****   @endverbatim
  37:Drivers/STM32F4xx_HAL_Driver/Src/stm32f4xx_ll_usb.c **** 
  38:Drivers/STM32F4xx_HAL_Driver/Src/stm32f4xx_ll_usb.c ****   ******************************************************************************
  39:Drivers/STM32F4xx_HAL_Driver/Src/stm32f4xx_ll_usb.c ****   */
  40:Drivers/STM32F4xx_HAL_Driver/Src/stm32f4xx_ll_usb.c **** 
  41:Drivers/STM32F4xx_HAL_Driver/Src/stm32f4xx_ll_usb.c **** /* Includes ------------------------------------------------------------------*/
  42:Drivers/STM32F4xx_HAL_Driver/Src/stm32f4xx_ll_usb.c **** #include "stm32f4xx_hal.h"
  43:Drivers/STM32F4xx_HAL_Driver/Src/stm32f4xx_ll_usb.c **** 
  44:Drivers/STM32F4xx_HAL_Driver/Src/stm32f4xx_ll_usb.c **** /** @addtogroup STM32F4xx_LL_USB_DRIVER
  45:Drivers/STM32F4xx_HAL_Driver/Src/stm32f4xx_ll_usb.c ****   * @{
  46:Drivers/STM32F4xx_HAL_Driver/Src/stm32f4xx_ll_usb.c ****   */
  47:Drivers/STM32F4xx_HAL_Driver/Src/stm32f4xx_ll_usb.c **** 
  48:Drivers/STM32F4xx_HAL_Driver/Src/stm32f4xx_ll_usb.c **** #if defined (HAL_PCD_MODULE_ENABLED) || defined (HAL_HCD_MODULE_ENABLED)
  49:Drivers/STM32F4xx_HAL_Driver/Src/stm32f4xx_ll_usb.c **** #if defined (USB_OTG_FS) || defined (USB_OTG_HS)
  50:Drivers/STM32F4xx_HAL_Driver/Src/stm32f4xx_ll_usb.c **** /* Private typedef -----------------------------------------------------------*/
  51:Drivers/STM32F4xx_HAL_Driver/Src/stm32f4xx_ll_usb.c **** /* Private define ------------------------------------------------------------*/
  52:Drivers/STM32F4xx_HAL_Driver/Src/stm32f4xx_ll_usb.c **** /* Private macro -------------------------------------------------------------*/
  53:Drivers/STM32F4xx_HAL_Driver/Src/stm32f4xx_ll_usb.c **** /* Private variables ---------------------------------------------------------*/
  54:Drivers/STM32F4xx_HAL_Driver/Src/stm32f4xx_ll_usb.c **** /* Private function prototypes -----------------------------------------------*/
  55:Drivers/STM32F4xx_HAL_Driver/Src/stm32f4xx_ll_usb.c **** /* Private functions ---------------------------------------------------------*/
  56:Drivers/STM32F4xx_HAL_Driver/Src/stm32f4xx_ll_usb.c **** #if defined (USB_OTG_FS) || defined (USB_OTG_HS)
  57:Drivers/STM32F4xx_HAL_Driver/Src/stm32f4xx_ll_usb.c **** static HAL_StatusTypeDef USB_CoreReset(USB_OTG_GlobalTypeDef *USBx);
  58:Drivers/STM32F4xx_HAL_Driver/Src/stm32f4xx_ll_usb.c **** 
  59:Drivers/STM32F4xx_HAL_Driver/Src/stm32f4xx_ll_usb.c **** /* Exported functions --------------------------------------------------------*/
  60:Drivers/STM32F4xx_HAL_Driver/Src/stm32f4xx_ll_usb.c **** /** @defgroup USB_LL_Exported_Functions USB Low Layer Exported Functions
  61:Drivers/STM32F4xx_HAL_Driver/Src/stm32f4xx_ll_usb.c ****   * @{
  62:Drivers/STM32F4xx_HAL_Driver/Src/stm32f4xx_ll_usb.c ****   */
  63:Drivers/STM32F4xx_HAL_Driver/Src/stm32f4xx_ll_usb.c **** 
  64:Drivers/STM32F4xx_HAL_Driver/Src/stm32f4xx_ll_usb.c **** /** @defgroup USB_LL_Exported_Functions_Group1 Initialization/de-initialization functions
  65:Drivers/STM32F4xx_HAL_Driver/Src/stm32f4xx_ll_usb.c ****   *  @brief    Initialization and Configuration functions
  66:Drivers/STM32F4xx_HAL_Driver/Src/stm32f4xx_ll_usb.c ****   *
  67:Drivers/STM32F4xx_HAL_Driver/Src/stm32f4xx_ll_usb.c **** @verbatim
  68:Drivers/STM32F4xx_HAL_Driver/Src/stm32f4xx_ll_usb.c ****  ===============================================================================
  69:Drivers/STM32F4xx_HAL_Driver/Src/stm32f4xx_ll_usb.c ****                       ##### Initialization/de-initialization functions #####
  70:Drivers/STM32F4xx_HAL_Driver/Src/stm32f4xx_ll_usb.c ****  ===============================================================================
  71:Drivers/STM32F4xx_HAL_Driver/Src/stm32f4xx_ll_usb.c **** 
  72:Drivers/STM32F4xx_HAL_Driver/Src/stm32f4xx_ll_usb.c **** @endverbatim
  73:Drivers/STM32F4xx_HAL_Driver/Src/stm32f4xx_ll_usb.c ****   * @{
  74:Drivers/STM32F4xx_HAL_Driver/Src/stm32f4xx_ll_usb.c ****   */
  75:Drivers/STM32F4xx_HAL_Driver/Src/stm32f4xx_ll_usb.c **** 
  76:Drivers/STM32F4xx_HAL_Driver/Src/stm32f4xx_ll_usb.c **** /**
  77:Drivers/STM32F4xx_HAL_Driver/Src/stm32f4xx_ll_usb.c ****   * @brief  Initializes the USB Core
  78:Drivers/STM32F4xx_HAL_Driver/Src/stm32f4xx_ll_usb.c ****   * @param  USBx USB Instance
  79:Drivers/STM32F4xx_HAL_Driver/Src/stm32f4xx_ll_usb.c ****   * @param  cfg pointer to a USB_OTG_CfgTypeDef structure that contains
  80:Drivers/STM32F4xx_HAL_Driver/Src/stm32f4xx_ll_usb.c ****   *         the configuration information for the specified USBx peripheral.
  81:Drivers/STM32F4xx_HAL_Driver/Src/stm32f4xx_ll_usb.c ****   * @retval HAL status
  82:Drivers/STM32F4xx_HAL_Driver/Src/stm32f4xx_ll_usb.c ****   */
  83:Drivers/STM32F4xx_HAL_Driver/Src/stm32f4xx_ll_usb.c **** HAL_StatusTypeDef USB_CoreInit(USB_OTG_GlobalTypeDef *USBx, USB_OTG_CfgTypeDef cfg)
  84:Drivers/STM32F4xx_HAL_Driver/Src/stm32f4xx_ll_usb.c **** {
  85:Drivers/STM32F4xx_HAL_Driver/Src/stm32f4xx_ll_usb.c ****   HAL_StatusTypeDef ret;
  86:Drivers/STM32F4xx_HAL_Driver/Src/stm32f4xx_ll_usb.c ****   if (cfg.phy_itface == USB_OTG_ULPI_PHY)
  87:Drivers/STM32F4xx_HAL_Driver/Src/stm32f4xx_ll_usb.c ****   {
ARM GAS  /tmp/cc0ThgoX.s 			page 3


  88:Drivers/STM32F4xx_HAL_Driver/Src/stm32f4xx_ll_usb.c ****     USBx->GCCFG &= ~(USB_OTG_GCCFG_PWRDWN);
  89:Drivers/STM32F4xx_HAL_Driver/Src/stm32f4xx_ll_usb.c **** 
  90:Drivers/STM32F4xx_HAL_Driver/Src/stm32f4xx_ll_usb.c ****     /* Init The ULPI Interface */
  91:Drivers/STM32F4xx_HAL_Driver/Src/stm32f4xx_ll_usb.c ****     USBx->GUSBCFG &= ~(USB_OTG_GUSBCFG_TSDPS | USB_OTG_GUSBCFG_ULPIFSLS | USB_OTG_GUSBCFG_PHYSEL);
  92:Drivers/STM32F4xx_HAL_Driver/Src/stm32f4xx_ll_usb.c **** 
  93:Drivers/STM32F4xx_HAL_Driver/Src/stm32f4xx_ll_usb.c ****     /* Select vbus source */
  94:Drivers/STM32F4xx_HAL_Driver/Src/stm32f4xx_ll_usb.c ****     USBx->GUSBCFG &= ~(USB_OTG_GUSBCFG_ULPIEVBUSD | USB_OTG_GUSBCFG_ULPIEVBUSI);
  95:Drivers/STM32F4xx_HAL_Driver/Src/stm32f4xx_ll_usb.c ****     if (cfg.use_external_vbus == 1U)
  96:Drivers/STM32F4xx_HAL_Driver/Src/stm32f4xx_ll_usb.c ****     {
  97:Drivers/STM32F4xx_HAL_Driver/Src/stm32f4xx_ll_usb.c ****       USBx->GUSBCFG |= USB_OTG_GUSBCFG_ULPIEVBUSD;
  98:Drivers/STM32F4xx_HAL_Driver/Src/stm32f4xx_ll_usb.c ****     }
  99:Drivers/STM32F4xx_HAL_Driver/Src/stm32f4xx_ll_usb.c **** 
 100:Drivers/STM32F4xx_HAL_Driver/Src/stm32f4xx_ll_usb.c ****     /* Reset after a PHY select */
 101:Drivers/STM32F4xx_HAL_Driver/Src/stm32f4xx_ll_usb.c ****     ret = USB_CoreReset(USBx);
 102:Drivers/STM32F4xx_HAL_Driver/Src/stm32f4xx_ll_usb.c ****   }
 103:Drivers/STM32F4xx_HAL_Driver/Src/stm32f4xx_ll_usb.c ****   else /* FS interface (embedded Phy) */
 104:Drivers/STM32F4xx_HAL_Driver/Src/stm32f4xx_ll_usb.c ****   {
 105:Drivers/STM32F4xx_HAL_Driver/Src/stm32f4xx_ll_usb.c ****     /* Select FS Embedded PHY */
 106:Drivers/STM32F4xx_HAL_Driver/Src/stm32f4xx_ll_usb.c ****     USBx->GUSBCFG |= USB_OTG_GUSBCFG_PHYSEL;
 107:Drivers/STM32F4xx_HAL_Driver/Src/stm32f4xx_ll_usb.c **** 
 108:Drivers/STM32F4xx_HAL_Driver/Src/stm32f4xx_ll_usb.c ****     /* Reset after a PHY select */
 109:Drivers/STM32F4xx_HAL_Driver/Src/stm32f4xx_ll_usb.c ****     ret = USB_CoreReset(USBx);
 110:Drivers/STM32F4xx_HAL_Driver/Src/stm32f4xx_ll_usb.c **** 
 111:Drivers/STM32F4xx_HAL_Driver/Src/stm32f4xx_ll_usb.c ****     if (cfg.battery_charging_enable == 0U)
 112:Drivers/STM32F4xx_HAL_Driver/Src/stm32f4xx_ll_usb.c ****     {
 113:Drivers/STM32F4xx_HAL_Driver/Src/stm32f4xx_ll_usb.c ****       /* Activate the USB Transceiver */
 114:Drivers/STM32F4xx_HAL_Driver/Src/stm32f4xx_ll_usb.c ****       USBx->GCCFG |= USB_OTG_GCCFG_PWRDWN;
 115:Drivers/STM32F4xx_HAL_Driver/Src/stm32f4xx_ll_usb.c ****     }
 116:Drivers/STM32F4xx_HAL_Driver/Src/stm32f4xx_ll_usb.c ****     else
 117:Drivers/STM32F4xx_HAL_Driver/Src/stm32f4xx_ll_usb.c ****     {
 118:Drivers/STM32F4xx_HAL_Driver/Src/stm32f4xx_ll_usb.c ****       /* Deactivate the USB Transceiver */
 119:Drivers/STM32F4xx_HAL_Driver/Src/stm32f4xx_ll_usb.c ****       USBx->GCCFG &= ~(USB_OTG_GCCFG_PWRDWN);
 120:Drivers/STM32F4xx_HAL_Driver/Src/stm32f4xx_ll_usb.c ****     }
 121:Drivers/STM32F4xx_HAL_Driver/Src/stm32f4xx_ll_usb.c ****   }
 122:Drivers/STM32F4xx_HAL_Driver/Src/stm32f4xx_ll_usb.c **** 
 123:Drivers/STM32F4xx_HAL_Driver/Src/stm32f4xx_ll_usb.c ****   if (cfg.dma_enable == 1U)
 124:Drivers/STM32F4xx_HAL_Driver/Src/stm32f4xx_ll_usb.c ****   {
 125:Drivers/STM32F4xx_HAL_Driver/Src/stm32f4xx_ll_usb.c ****     USBx->GAHBCFG |= USB_OTG_GAHBCFG_HBSTLEN_2;
 126:Drivers/STM32F4xx_HAL_Driver/Src/stm32f4xx_ll_usb.c ****     USBx->GAHBCFG |= USB_OTG_GAHBCFG_DMAEN;
 127:Drivers/STM32F4xx_HAL_Driver/Src/stm32f4xx_ll_usb.c ****   }
 128:Drivers/STM32F4xx_HAL_Driver/Src/stm32f4xx_ll_usb.c **** 
 129:Drivers/STM32F4xx_HAL_Driver/Src/stm32f4xx_ll_usb.c ****   return ret;
 130:Drivers/STM32F4xx_HAL_Driver/Src/stm32f4xx_ll_usb.c **** }
 131:Drivers/STM32F4xx_HAL_Driver/Src/stm32f4xx_ll_usb.c **** 
 132:Drivers/STM32F4xx_HAL_Driver/Src/stm32f4xx_ll_usb.c **** 
 133:Drivers/STM32F4xx_HAL_Driver/Src/stm32f4xx_ll_usb.c **** /**
 134:Drivers/STM32F4xx_HAL_Driver/Src/stm32f4xx_ll_usb.c ****   * @brief  Set the USB turnaround time
 135:Drivers/STM32F4xx_HAL_Driver/Src/stm32f4xx_ll_usb.c ****   * @param  USBx USB Instance
 136:Drivers/STM32F4xx_HAL_Driver/Src/stm32f4xx_ll_usb.c ****   * @param  hclk: AHB clock frequency
 137:Drivers/STM32F4xx_HAL_Driver/Src/stm32f4xx_ll_usb.c ****   * @retval USB turnaround time In PHY Clocks number
 138:Drivers/STM32F4xx_HAL_Driver/Src/stm32f4xx_ll_usb.c ****   */
 139:Drivers/STM32F4xx_HAL_Driver/Src/stm32f4xx_ll_usb.c **** HAL_StatusTypeDef USB_SetTurnaroundTime(USB_OTG_GlobalTypeDef *USBx,
 140:Drivers/STM32F4xx_HAL_Driver/Src/stm32f4xx_ll_usb.c ****                                         uint32_t hclk, uint8_t speed)
 141:Drivers/STM32F4xx_HAL_Driver/Src/stm32f4xx_ll_usb.c **** {
 142:Drivers/STM32F4xx_HAL_Driver/Src/stm32f4xx_ll_usb.c ****   uint32_t UsbTrd;
 143:Drivers/STM32F4xx_HAL_Driver/Src/stm32f4xx_ll_usb.c **** 
 144:Drivers/STM32F4xx_HAL_Driver/Src/stm32f4xx_ll_usb.c ****   /* The USBTRD is configured according to the tables below, depending on AHB frequency
ARM GAS  /tmp/cc0ThgoX.s 			page 4


 145:Drivers/STM32F4xx_HAL_Driver/Src/stm32f4xx_ll_usb.c ****   used by application. In the low AHB frequency range it is used to stretch enough the USB response
 146:Drivers/STM32F4xx_HAL_Driver/Src/stm32f4xx_ll_usb.c ****   time to IN tokens, the USB turnaround time, so to compensate for the longer AHB read access
 147:Drivers/STM32F4xx_HAL_Driver/Src/stm32f4xx_ll_usb.c ****   latency to the Data FIFO */
 148:Drivers/STM32F4xx_HAL_Driver/Src/stm32f4xx_ll_usb.c ****   if (speed == USBD_FS_SPEED)
 149:Drivers/STM32F4xx_HAL_Driver/Src/stm32f4xx_ll_usb.c ****   {
 150:Drivers/STM32F4xx_HAL_Driver/Src/stm32f4xx_ll_usb.c ****     if ((hclk >= 14200000U) && (hclk < 15000000U))
 151:Drivers/STM32F4xx_HAL_Driver/Src/stm32f4xx_ll_usb.c ****     {
 152:Drivers/STM32F4xx_HAL_Driver/Src/stm32f4xx_ll_usb.c ****       /* hclk Clock Range between 14.2-15 MHz */
 153:Drivers/STM32F4xx_HAL_Driver/Src/stm32f4xx_ll_usb.c ****       UsbTrd = 0xFU;
 154:Drivers/STM32F4xx_HAL_Driver/Src/stm32f4xx_ll_usb.c ****     }
 155:Drivers/STM32F4xx_HAL_Driver/Src/stm32f4xx_ll_usb.c ****     else if ((hclk >= 15000000U) && (hclk < 16000000U))
 156:Drivers/STM32F4xx_HAL_Driver/Src/stm32f4xx_ll_usb.c ****     {
 157:Drivers/STM32F4xx_HAL_Driver/Src/stm32f4xx_ll_usb.c ****       /* hclk Clock Range between 15-16 MHz */
 158:Drivers/STM32F4xx_HAL_Driver/Src/stm32f4xx_ll_usb.c ****       UsbTrd = 0xEU;
 159:Drivers/STM32F4xx_HAL_Driver/Src/stm32f4xx_ll_usb.c ****     }
 160:Drivers/STM32F4xx_HAL_Driver/Src/stm32f4xx_ll_usb.c ****     else if ((hclk >= 16000000U) && (hclk < 17200000U))
 161:Drivers/STM32F4xx_HAL_Driver/Src/stm32f4xx_ll_usb.c ****     {
 162:Drivers/STM32F4xx_HAL_Driver/Src/stm32f4xx_ll_usb.c ****       /* hclk Clock Range between 16-17.2 MHz */
 163:Drivers/STM32F4xx_HAL_Driver/Src/stm32f4xx_ll_usb.c ****       UsbTrd = 0xDU;
 164:Drivers/STM32F4xx_HAL_Driver/Src/stm32f4xx_ll_usb.c ****     }
 165:Drivers/STM32F4xx_HAL_Driver/Src/stm32f4xx_ll_usb.c ****     else if ((hclk >= 17200000U) && (hclk < 18500000U))
 166:Drivers/STM32F4xx_HAL_Driver/Src/stm32f4xx_ll_usb.c ****     {
 167:Drivers/STM32F4xx_HAL_Driver/Src/stm32f4xx_ll_usb.c ****       /* hclk Clock Range between 17.2-18.5 MHz */
 168:Drivers/STM32F4xx_HAL_Driver/Src/stm32f4xx_ll_usb.c ****       UsbTrd = 0xCU;
 169:Drivers/STM32F4xx_HAL_Driver/Src/stm32f4xx_ll_usb.c ****     }
 170:Drivers/STM32F4xx_HAL_Driver/Src/stm32f4xx_ll_usb.c ****     else if ((hclk >= 18500000U) && (hclk < 20000000U))
 171:Drivers/STM32F4xx_HAL_Driver/Src/stm32f4xx_ll_usb.c ****     {
 172:Drivers/STM32F4xx_HAL_Driver/Src/stm32f4xx_ll_usb.c ****       /* hclk Clock Range between 18.5-20 MHz */
 173:Drivers/STM32F4xx_HAL_Driver/Src/stm32f4xx_ll_usb.c ****       UsbTrd = 0xBU;
 174:Drivers/STM32F4xx_HAL_Driver/Src/stm32f4xx_ll_usb.c ****     }
 175:Drivers/STM32F4xx_HAL_Driver/Src/stm32f4xx_ll_usb.c ****     else if ((hclk >= 20000000U) && (hclk < 21800000U))
 176:Drivers/STM32F4xx_HAL_Driver/Src/stm32f4xx_ll_usb.c ****     {
 177:Drivers/STM32F4xx_HAL_Driver/Src/stm32f4xx_ll_usb.c ****       /* hclk Clock Range between 20-21.8 MHz */
 178:Drivers/STM32F4xx_HAL_Driver/Src/stm32f4xx_ll_usb.c ****       UsbTrd = 0xAU;
 179:Drivers/STM32F4xx_HAL_Driver/Src/stm32f4xx_ll_usb.c ****     }
 180:Drivers/STM32F4xx_HAL_Driver/Src/stm32f4xx_ll_usb.c ****     else if ((hclk >= 21800000U) && (hclk < 24000000U))
 181:Drivers/STM32F4xx_HAL_Driver/Src/stm32f4xx_ll_usb.c ****     {
 182:Drivers/STM32F4xx_HAL_Driver/Src/stm32f4xx_ll_usb.c ****       /* hclk Clock Range between 21.8-24 MHz */
 183:Drivers/STM32F4xx_HAL_Driver/Src/stm32f4xx_ll_usb.c ****       UsbTrd = 0x9U;
 184:Drivers/STM32F4xx_HAL_Driver/Src/stm32f4xx_ll_usb.c ****     }
 185:Drivers/STM32F4xx_HAL_Driver/Src/stm32f4xx_ll_usb.c ****     else if ((hclk >= 24000000U) && (hclk < 27700000U))
 186:Drivers/STM32F4xx_HAL_Driver/Src/stm32f4xx_ll_usb.c ****     {
 187:Drivers/STM32F4xx_HAL_Driver/Src/stm32f4xx_ll_usb.c ****       /* hclk Clock Range between 24-27.7 MHz */
 188:Drivers/STM32F4xx_HAL_Driver/Src/stm32f4xx_ll_usb.c ****       UsbTrd = 0x8U;
 189:Drivers/STM32F4xx_HAL_Driver/Src/stm32f4xx_ll_usb.c ****     }
 190:Drivers/STM32F4xx_HAL_Driver/Src/stm32f4xx_ll_usb.c ****     else if ((hclk >= 27700000U) && (hclk < 32000000U))
 191:Drivers/STM32F4xx_HAL_Driver/Src/stm32f4xx_ll_usb.c ****     {
 192:Drivers/STM32F4xx_HAL_Driver/Src/stm32f4xx_ll_usb.c ****       /* hclk Clock Range between 27.7-32 MHz */
 193:Drivers/STM32F4xx_HAL_Driver/Src/stm32f4xx_ll_usb.c ****       UsbTrd = 0x7U;
 194:Drivers/STM32F4xx_HAL_Driver/Src/stm32f4xx_ll_usb.c ****     }
 195:Drivers/STM32F4xx_HAL_Driver/Src/stm32f4xx_ll_usb.c ****     else /* if(hclk >= 32000000) */
 196:Drivers/STM32F4xx_HAL_Driver/Src/stm32f4xx_ll_usb.c ****     {
 197:Drivers/STM32F4xx_HAL_Driver/Src/stm32f4xx_ll_usb.c ****       /* hclk Clock Range between 32-200 MHz */
 198:Drivers/STM32F4xx_HAL_Driver/Src/stm32f4xx_ll_usb.c ****       UsbTrd = 0x6U;
 199:Drivers/STM32F4xx_HAL_Driver/Src/stm32f4xx_ll_usb.c ****     }
 200:Drivers/STM32F4xx_HAL_Driver/Src/stm32f4xx_ll_usb.c ****   }
 201:Drivers/STM32F4xx_HAL_Driver/Src/stm32f4xx_ll_usb.c ****   else if (speed == USBD_HS_SPEED)
ARM GAS  /tmp/cc0ThgoX.s 			page 5


 202:Drivers/STM32F4xx_HAL_Driver/Src/stm32f4xx_ll_usb.c ****   {
 203:Drivers/STM32F4xx_HAL_Driver/Src/stm32f4xx_ll_usb.c ****     UsbTrd = USBD_HS_TRDT_VALUE;
 204:Drivers/STM32F4xx_HAL_Driver/Src/stm32f4xx_ll_usb.c ****   }
 205:Drivers/STM32F4xx_HAL_Driver/Src/stm32f4xx_ll_usb.c ****   else
 206:Drivers/STM32F4xx_HAL_Driver/Src/stm32f4xx_ll_usb.c ****   {
 207:Drivers/STM32F4xx_HAL_Driver/Src/stm32f4xx_ll_usb.c ****     UsbTrd = USBD_DEFAULT_TRDT_VALUE;
 208:Drivers/STM32F4xx_HAL_Driver/Src/stm32f4xx_ll_usb.c ****   }
 209:Drivers/STM32F4xx_HAL_Driver/Src/stm32f4xx_ll_usb.c **** 
 210:Drivers/STM32F4xx_HAL_Driver/Src/stm32f4xx_ll_usb.c ****   USBx->GUSBCFG &= ~USB_OTG_GUSBCFG_TRDT;
 211:Drivers/STM32F4xx_HAL_Driver/Src/stm32f4xx_ll_usb.c ****   USBx->GUSBCFG |= (uint32_t)((UsbTrd << 10) & USB_OTG_GUSBCFG_TRDT);
 212:Drivers/STM32F4xx_HAL_Driver/Src/stm32f4xx_ll_usb.c **** 
 213:Drivers/STM32F4xx_HAL_Driver/Src/stm32f4xx_ll_usb.c ****   return HAL_OK;
 214:Drivers/STM32F4xx_HAL_Driver/Src/stm32f4xx_ll_usb.c **** }
 215:Drivers/STM32F4xx_HAL_Driver/Src/stm32f4xx_ll_usb.c **** 
 216:Drivers/STM32F4xx_HAL_Driver/Src/stm32f4xx_ll_usb.c **** /**
 217:Drivers/STM32F4xx_HAL_Driver/Src/stm32f4xx_ll_usb.c ****   * @brief  USB_EnableGlobalInt
 218:Drivers/STM32F4xx_HAL_Driver/Src/stm32f4xx_ll_usb.c ****   *         Enables the controller's Global Int in the AHB Config reg
 219:Drivers/STM32F4xx_HAL_Driver/Src/stm32f4xx_ll_usb.c ****   * @param  USBx  Selected device
 220:Drivers/STM32F4xx_HAL_Driver/Src/stm32f4xx_ll_usb.c ****   * @retval HAL status
 221:Drivers/STM32F4xx_HAL_Driver/Src/stm32f4xx_ll_usb.c ****   */
 222:Drivers/STM32F4xx_HAL_Driver/Src/stm32f4xx_ll_usb.c **** HAL_StatusTypeDef USB_EnableGlobalInt(USB_OTG_GlobalTypeDef *USBx)
 223:Drivers/STM32F4xx_HAL_Driver/Src/stm32f4xx_ll_usb.c **** {
 224:Drivers/STM32F4xx_HAL_Driver/Src/stm32f4xx_ll_usb.c ****   USBx->GAHBCFG |= USB_OTG_GAHBCFG_GINT;
 225:Drivers/STM32F4xx_HAL_Driver/Src/stm32f4xx_ll_usb.c ****   return HAL_OK;
 226:Drivers/STM32F4xx_HAL_Driver/Src/stm32f4xx_ll_usb.c **** }
 227:Drivers/STM32F4xx_HAL_Driver/Src/stm32f4xx_ll_usb.c **** 
 228:Drivers/STM32F4xx_HAL_Driver/Src/stm32f4xx_ll_usb.c **** /**
 229:Drivers/STM32F4xx_HAL_Driver/Src/stm32f4xx_ll_usb.c ****   * @brief  USB_DisableGlobalInt
 230:Drivers/STM32F4xx_HAL_Driver/Src/stm32f4xx_ll_usb.c ****   *         Disable the controller's Global Int in the AHB Config reg
 231:Drivers/STM32F4xx_HAL_Driver/Src/stm32f4xx_ll_usb.c ****   * @param  USBx  Selected device
 232:Drivers/STM32F4xx_HAL_Driver/Src/stm32f4xx_ll_usb.c ****   * @retval HAL status
 233:Drivers/STM32F4xx_HAL_Driver/Src/stm32f4xx_ll_usb.c ****   */
 234:Drivers/STM32F4xx_HAL_Driver/Src/stm32f4xx_ll_usb.c **** HAL_StatusTypeDef USB_DisableGlobalInt(USB_OTG_GlobalTypeDef *USBx)
 235:Drivers/STM32F4xx_HAL_Driver/Src/stm32f4xx_ll_usb.c **** {
 236:Drivers/STM32F4xx_HAL_Driver/Src/stm32f4xx_ll_usb.c ****   USBx->GAHBCFG &= ~USB_OTG_GAHBCFG_GINT;
 237:Drivers/STM32F4xx_HAL_Driver/Src/stm32f4xx_ll_usb.c ****   return HAL_OK;
 238:Drivers/STM32F4xx_HAL_Driver/Src/stm32f4xx_ll_usb.c **** }
 239:Drivers/STM32F4xx_HAL_Driver/Src/stm32f4xx_ll_usb.c **** 
 240:Drivers/STM32F4xx_HAL_Driver/Src/stm32f4xx_ll_usb.c **** /**
 241:Drivers/STM32F4xx_HAL_Driver/Src/stm32f4xx_ll_usb.c ****   * @brief  USB_SetCurrentMode Set functional mode
 242:Drivers/STM32F4xx_HAL_Driver/Src/stm32f4xx_ll_usb.c ****   * @param  USBx  Selected device
 243:Drivers/STM32F4xx_HAL_Driver/Src/stm32f4xx_ll_usb.c ****   * @param  mode  current core mode
 244:Drivers/STM32F4xx_HAL_Driver/Src/stm32f4xx_ll_usb.c ****   *          This parameter can be one of these values:
 245:Drivers/STM32F4xx_HAL_Driver/Src/stm32f4xx_ll_usb.c ****   *            @arg USB_DEVICE_MODE Peripheral mode
 246:Drivers/STM32F4xx_HAL_Driver/Src/stm32f4xx_ll_usb.c ****   *            @arg USB_HOST_MODE Host mode
 247:Drivers/STM32F4xx_HAL_Driver/Src/stm32f4xx_ll_usb.c ****   * @retval HAL status
 248:Drivers/STM32F4xx_HAL_Driver/Src/stm32f4xx_ll_usb.c ****   */
 249:Drivers/STM32F4xx_HAL_Driver/Src/stm32f4xx_ll_usb.c **** HAL_StatusTypeDef USB_SetCurrentMode(USB_OTG_GlobalTypeDef *USBx, USB_OTG_ModeTypeDef mode)
 250:Drivers/STM32F4xx_HAL_Driver/Src/stm32f4xx_ll_usb.c **** {
 251:Drivers/STM32F4xx_HAL_Driver/Src/stm32f4xx_ll_usb.c ****   uint32_t ms = 0U;
 252:Drivers/STM32F4xx_HAL_Driver/Src/stm32f4xx_ll_usb.c **** 
 253:Drivers/STM32F4xx_HAL_Driver/Src/stm32f4xx_ll_usb.c ****   USBx->GUSBCFG &= ~(USB_OTG_GUSBCFG_FHMOD | USB_OTG_GUSBCFG_FDMOD);
 254:Drivers/STM32F4xx_HAL_Driver/Src/stm32f4xx_ll_usb.c **** 
 255:Drivers/STM32F4xx_HAL_Driver/Src/stm32f4xx_ll_usb.c ****   if (mode == USB_HOST_MODE)
 256:Drivers/STM32F4xx_HAL_Driver/Src/stm32f4xx_ll_usb.c ****   {
 257:Drivers/STM32F4xx_HAL_Driver/Src/stm32f4xx_ll_usb.c ****     USBx->GUSBCFG |= USB_OTG_GUSBCFG_FHMOD;
 258:Drivers/STM32F4xx_HAL_Driver/Src/stm32f4xx_ll_usb.c **** 
ARM GAS  /tmp/cc0ThgoX.s 			page 6


 259:Drivers/STM32F4xx_HAL_Driver/Src/stm32f4xx_ll_usb.c ****     do
 260:Drivers/STM32F4xx_HAL_Driver/Src/stm32f4xx_ll_usb.c ****     {
 261:Drivers/STM32F4xx_HAL_Driver/Src/stm32f4xx_ll_usb.c ****       HAL_Delay(10U);
 262:Drivers/STM32F4xx_HAL_Driver/Src/stm32f4xx_ll_usb.c ****       ms += 10U;
 263:Drivers/STM32F4xx_HAL_Driver/Src/stm32f4xx_ll_usb.c ****     } while ((USB_GetMode(USBx) != (uint32_t)USB_HOST_MODE) && (ms < HAL_USB_CURRENT_MODE_MAX_DELAY
 264:Drivers/STM32F4xx_HAL_Driver/Src/stm32f4xx_ll_usb.c ****   }
 265:Drivers/STM32F4xx_HAL_Driver/Src/stm32f4xx_ll_usb.c ****   else if (mode == USB_DEVICE_MODE)
 266:Drivers/STM32F4xx_HAL_Driver/Src/stm32f4xx_ll_usb.c ****   {
 267:Drivers/STM32F4xx_HAL_Driver/Src/stm32f4xx_ll_usb.c ****     USBx->GUSBCFG |= USB_OTG_GUSBCFG_FDMOD;
 268:Drivers/STM32F4xx_HAL_Driver/Src/stm32f4xx_ll_usb.c **** 
 269:Drivers/STM32F4xx_HAL_Driver/Src/stm32f4xx_ll_usb.c ****     do
 270:Drivers/STM32F4xx_HAL_Driver/Src/stm32f4xx_ll_usb.c ****     {
 271:Drivers/STM32F4xx_HAL_Driver/Src/stm32f4xx_ll_usb.c ****       HAL_Delay(10U);
 272:Drivers/STM32F4xx_HAL_Driver/Src/stm32f4xx_ll_usb.c ****       ms += 10U;
 273:Drivers/STM32F4xx_HAL_Driver/Src/stm32f4xx_ll_usb.c ****     } while ((USB_GetMode(USBx) != (uint32_t)USB_DEVICE_MODE) && (ms < HAL_USB_CURRENT_MODE_MAX_DEL
 274:Drivers/STM32F4xx_HAL_Driver/Src/stm32f4xx_ll_usb.c ****   }
 275:Drivers/STM32F4xx_HAL_Driver/Src/stm32f4xx_ll_usb.c ****   else
 276:Drivers/STM32F4xx_HAL_Driver/Src/stm32f4xx_ll_usb.c ****   {
 277:Drivers/STM32F4xx_HAL_Driver/Src/stm32f4xx_ll_usb.c ****     return HAL_ERROR;
 278:Drivers/STM32F4xx_HAL_Driver/Src/stm32f4xx_ll_usb.c ****   }
 279:Drivers/STM32F4xx_HAL_Driver/Src/stm32f4xx_ll_usb.c **** 
 280:Drivers/STM32F4xx_HAL_Driver/Src/stm32f4xx_ll_usb.c ****   if (ms == HAL_USB_CURRENT_MODE_MAX_DELAY_MS)
 281:Drivers/STM32F4xx_HAL_Driver/Src/stm32f4xx_ll_usb.c ****   {
 282:Drivers/STM32F4xx_HAL_Driver/Src/stm32f4xx_ll_usb.c ****     return HAL_ERROR;
 283:Drivers/STM32F4xx_HAL_Driver/Src/stm32f4xx_ll_usb.c ****   }
 284:Drivers/STM32F4xx_HAL_Driver/Src/stm32f4xx_ll_usb.c **** 
 285:Drivers/STM32F4xx_HAL_Driver/Src/stm32f4xx_ll_usb.c ****   return HAL_OK;
 286:Drivers/STM32F4xx_HAL_Driver/Src/stm32f4xx_ll_usb.c **** }
 287:Drivers/STM32F4xx_HAL_Driver/Src/stm32f4xx_ll_usb.c **** 
 288:Drivers/STM32F4xx_HAL_Driver/Src/stm32f4xx_ll_usb.c **** /**
 289:Drivers/STM32F4xx_HAL_Driver/Src/stm32f4xx_ll_usb.c ****   * @brief  USB_DevInit Initializes the USB_OTG controller registers
 290:Drivers/STM32F4xx_HAL_Driver/Src/stm32f4xx_ll_usb.c ****   *         for device mode
 291:Drivers/STM32F4xx_HAL_Driver/Src/stm32f4xx_ll_usb.c ****   * @param  USBx  Selected device
 292:Drivers/STM32F4xx_HAL_Driver/Src/stm32f4xx_ll_usb.c ****   * @param  cfg   pointer to a USB_OTG_CfgTypeDef structure that contains
 293:Drivers/STM32F4xx_HAL_Driver/Src/stm32f4xx_ll_usb.c ****   *         the configuration information for the specified USBx peripheral.
 294:Drivers/STM32F4xx_HAL_Driver/Src/stm32f4xx_ll_usb.c ****   * @retval HAL status
 295:Drivers/STM32F4xx_HAL_Driver/Src/stm32f4xx_ll_usb.c ****   */
 296:Drivers/STM32F4xx_HAL_Driver/Src/stm32f4xx_ll_usb.c **** HAL_StatusTypeDef USB_DevInit(USB_OTG_GlobalTypeDef *USBx, USB_OTG_CfgTypeDef cfg)
 297:Drivers/STM32F4xx_HAL_Driver/Src/stm32f4xx_ll_usb.c **** {
 298:Drivers/STM32F4xx_HAL_Driver/Src/stm32f4xx_ll_usb.c ****   HAL_StatusTypeDef ret = HAL_OK;
 299:Drivers/STM32F4xx_HAL_Driver/Src/stm32f4xx_ll_usb.c ****   uint32_t USBx_BASE = (uint32_t)USBx;
 300:Drivers/STM32F4xx_HAL_Driver/Src/stm32f4xx_ll_usb.c ****   uint32_t i;
 301:Drivers/STM32F4xx_HAL_Driver/Src/stm32f4xx_ll_usb.c **** 
 302:Drivers/STM32F4xx_HAL_Driver/Src/stm32f4xx_ll_usb.c ****   for (i = 0U; i < 15U; i++)
 303:Drivers/STM32F4xx_HAL_Driver/Src/stm32f4xx_ll_usb.c ****   {
 304:Drivers/STM32F4xx_HAL_Driver/Src/stm32f4xx_ll_usb.c ****     USBx->DIEPTXF[i] = 0U;
 305:Drivers/STM32F4xx_HAL_Driver/Src/stm32f4xx_ll_usb.c ****   }
 306:Drivers/STM32F4xx_HAL_Driver/Src/stm32f4xx_ll_usb.c **** 
 307:Drivers/STM32F4xx_HAL_Driver/Src/stm32f4xx_ll_usb.c **** #if defined(STM32F446xx) || defined(STM32F469xx) || defined(STM32F479xx) || defined(STM32F412Zx) \
 308:Drivers/STM32F4xx_HAL_Driver/Src/stm32f4xx_ll_usb.c ****  || defined(STM32F412Vx) || defined(STM32F412Rx) || defined(STM32F412Cx) || defined(STM32F413xx) \
 309:Drivers/STM32F4xx_HAL_Driver/Src/stm32f4xx_ll_usb.c ****  || defined(STM32F423xx)
 310:Drivers/STM32F4xx_HAL_Driver/Src/stm32f4xx_ll_usb.c ****   /* VBUS Sensing setup */
 311:Drivers/STM32F4xx_HAL_Driver/Src/stm32f4xx_ll_usb.c ****   if (cfg.vbus_sensing_enable == 0U)
 312:Drivers/STM32F4xx_HAL_Driver/Src/stm32f4xx_ll_usb.c ****   {
 313:Drivers/STM32F4xx_HAL_Driver/Src/stm32f4xx_ll_usb.c ****     USBx_DEVICE->DCTL |= USB_OTG_DCTL_SDIS;
 314:Drivers/STM32F4xx_HAL_Driver/Src/stm32f4xx_ll_usb.c **** 
 315:Drivers/STM32F4xx_HAL_Driver/Src/stm32f4xx_ll_usb.c ****     /* Deactivate VBUS Sensing B */
ARM GAS  /tmp/cc0ThgoX.s 			page 7


 316:Drivers/STM32F4xx_HAL_Driver/Src/stm32f4xx_ll_usb.c ****     USBx->GCCFG &= ~USB_OTG_GCCFG_VBDEN;
 317:Drivers/STM32F4xx_HAL_Driver/Src/stm32f4xx_ll_usb.c **** 
 318:Drivers/STM32F4xx_HAL_Driver/Src/stm32f4xx_ll_usb.c ****     /* B-peripheral session valid override enable */
 319:Drivers/STM32F4xx_HAL_Driver/Src/stm32f4xx_ll_usb.c ****     USBx->GOTGCTL |= USB_OTG_GOTGCTL_BVALOEN;
 320:Drivers/STM32F4xx_HAL_Driver/Src/stm32f4xx_ll_usb.c ****     USBx->GOTGCTL |= USB_OTG_GOTGCTL_BVALOVAL;
 321:Drivers/STM32F4xx_HAL_Driver/Src/stm32f4xx_ll_usb.c ****   }
 322:Drivers/STM32F4xx_HAL_Driver/Src/stm32f4xx_ll_usb.c ****   else
 323:Drivers/STM32F4xx_HAL_Driver/Src/stm32f4xx_ll_usb.c ****   {
 324:Drivers/STM32F4xx_HAL_Driver/Src/stm32f4xx_ll_usb.c ****     /* Enable HW VBUS sensing */
 325:Drivers/STM32F4xx_HAL_Driver/Src/stm32f4xx_ll_usb.c ****     USBx->GCCFG |= USB_OTG_GCCFG_VBDEN;
 326:Drivers/STM32F4xx_HAL_Driver/Src/stm32f4xx_ll_usb.c ****   }
 327:Drivers/STM32F4xx_HAL_Driver/Src/stm32f4xx_ll_usb.c **** #else
 328:Drivers/STM32F4xx_HAL_Driver/Src/stm32f4xx_ll_usb.c ****   /* VBUS Sensing setup */
 329:Drivers/STM32F4xx_HAL_Driver/Src/stm32f4xx_ll_usb.c ****   if (cfg.vbus_sensing_enable == 0U)
 330:Drivers/STM32F4xx_HAL_Driver/Src/stm32f4xx_ll_usb.c ****   {
 331:Drivers/STM32F4xx_HAL_Driver/Src/stm32f4xx_ll_usb.c ****     /*
 332:Drivers/STM32F4xx_HAL_Driver/Src/stm32f4xx_ll_usb.c ****      * Disable HW VBUS sensing. VBUS is internally considered to be always
 333:Drivers/STM32F4xx_HAL_Driver/Src/stm32f4xx_ll_usb.c ****      * at VBUS-Valid level (5V).
 334:Drivers/STM32F4xx_HAL_Driver/Src/stm32f4xx_ll_usb.c ****      */
 335:Drivers/STM32F4xx_HAL_Driver/Src/stm32f4xx_ll_usb.c ****     USBx_DEVICE->DCTL |= USB_OTG_DCTL_SDIS;
 336:Drivers/STM32F4xx_HAL_Driver/Src/stm32f4xx_ll_usb.c ****     USBx->GCCFG |= USB_OTG_GCCFG_NOVBUSSENS;
 337:Drivers/STM32F4xx_HAL_Driver/Src/stm32f4xx_ll_usb.c ****     USBx->GCCFG &= ~USB_OTG_GCCFG_VBUSBSEN;
 338:Drivers/STM32F4xx_HAL_Driver/Src/stm32f4xx_ll_usb.c ****     USBx->GCCFG &= ~USB_OTG_GCCFG_VBUSASEN;
 339:Drivers/STM32F4xx_HAL_Driver/Src/stm32f4xx_ll_usb.c ****   }
 340:Drivers/STM32F4xx_HAL_Driver/Src/stm32f4xx_ll_usb.c ****   else
 341:Drivers/STM32F4xx_HAL_Driver/Src/stm32f4xx_ll_usb.c ****   {
 342:Drivers/STM32F4xx_HAL_Driver/Src/stm32f4xx_ll_usb.c ****     /* Enable HW VBUS sensing */
 343:Drivers/STM32F4xx_HAL_Driver/Src/stm32f4xx_ll_usb.c ****     USBx->GCCFG &= ~USB_OTG_GCCFG_NOVBUSSENS;
 344:Drivers/STM32F4xx_HAL_Driver/Src/stm32f4xx_ll_usb.c ****     USBx->GCCFG |= USB_OTG_GCCFG_VBUSBSEN;
 345:Drivers/STM32F4xx_HAL_Driver/Src/stm32f4xx_ll_usb.c ****   }
 346:Drivers/STM32F4xx_HAL_Driver/Src/stm32f4xx_ll_usb.c **** #endif /* defined(STM32F446xx) || defined(STM32F469xx) || defined(STM32F479xx) || defined(STM32F412
 347:Drivers/STM32F4xx_HAL_Driver/Src/stm32f4xx_ll_usb.c ****           defined(STM32F412Vx) || defined(STM32F412Rx) || defined(STM32F412Cx) || defined(STM32F413
 348:Drivers/STM32F4xx_HAL_Driver/Src/stm32f4xx_ll_usb.c ****           defined(STM32F423xx) */
 349:Drivers/STM32F4xx_HAL_Driver/Src/stm32f4xx_ll_usb.c **** 
 350:Drivers/STM32F4xx_HAL_Driver/Src/stm32f4xx_ll_usb.c ****   /* Restart the Phy Clock */
 351:Drivers/STM32F4xx_HAL_Driver/Src/stm32f4xx_ll_usb.c ****   USBx_PCGCCTL = 0U;
 352:Drivers/STM32F4xx_HAL_Driver/Src/stm32f4xx_ll_usb.c **** 
 353:Drivers/STM32F4xx_HAL_Driver/Src/stm32f4xx_ll_usb.c ****   if (cfg.phy_itface == USB_OTG_ULPI_PHY)
 354:Drivers/STM32F4xx_HAL_Driver/Src/stm32f4xx_ll_usb.c ****   {
 355:Drivers/STM32F4xx_HAL_Driver/Src/stm32f4xx_ll_usb.c ****     if (cfg.speed == USBD_HS_SPEED)
 356:Drivers/STM32F4xx_HAL_Driver/Src/stm32f4xx_ll_usb.c ****     {
 357:Drivers/STM32F4xx_HAL_Driver/Src/stm32f4xx_ll_usb.c ****       /* Set Core speed to High speed mode */
 358:Drivers/STM32F4xx_HAL_Driver/Src/stm32f4xx_ll_usb.c ****       (void)USB_SetDevSpeed(USBx, USB_OTG_SPEED_HIGH);
 359:Drivers/STM32F4xx_HAL_Driver/Src/stm32f4xx_ll_usb.c ****     }
 360:Drivers/STM32F4xx_HAL_Driver/Src/stm32f4xx_ll_usb.c ****     else
 361:Drivers/STM32F4xx_HAL_Driver/Src/stm32f4xx_ll_usb.c ****     {
 362:Drivers/STM32F4xx_HAL_Driver/Src/stm32f4xx_ll_usb.c ****       /* Set Core speed to Full speed mode */
 363:Drivers/STM32F4xx_HAL_Driver/Src/stm32f4xx_ll_usb.c ****       (void)USB_SetDevSpeed(USBx, USB_OTG_SPEED_HIGH_IN_FULL);
 364:Drivers/STM32F4xx_HAL_Driver/Src/stm32f4xx_ll_usb.c ****     }
 365:Drivers/STM32F4xx_HAL_Driver/Src/stm32f4xx_ll_usb.c ****   }
 366:Drivers/STM32F4xx_HAL_Driver/Src/stm32f4xx_ll_usb.c ****   else
 367:Drivers/STM32F4xx_HAL_Driver/Src/stm32f4xx_ll_usb.c ****   {
 368:Drivers/STM32F4xx_HAL_Driver/Src/stm32f4xx_ll_usb.c ****     /* Set Core speed to Full speed mode */
 369:Drivers/STM32F4xx_HAL_Driver/Src/stm32f4xx_ll_usb.c ****     (void)USB_SetDevSpeed(USBx, USB_OTG_SPEED_FULL);
 370:Drivers/STM32F4xx_HAL_Driver/Src/stm32f4xx_ll_usb.c ****   }
 371:Drivers/STM32F4xx_HAL_Driver/Src/stm32f4xx_ll_usb.c **** 
 372:Drivers/STM32F4xx_HAL_Driver/Src/stm32f4xx_ll_usb.c ****   /* Flush the FIFOs */
ARM GAS  /tmp/cc0ThgoX.s 			page 8


 373:Drivers/STM32F4xx_HAL_Driver/Src/stm32f4xx_ll_usb.c ****   if (USB_FlushTxFifo(USBx, 0x10U) != HAL_OK) /* all Tx FIFOs */
 374:Drivers/STM32F4xx_HAL_Driver/Src/stm32f4xx_ll_usb.c ****   {
 375:Drivers/STM32F4xx_HAL_Driver/Src/stm32f4xx_ll_usb.c ****     ret = HAL_ERROR;
 376:Drivers/STM32F4xx_HAL_Driver/Src/stm32f4xx_ll_usb.c ****   }
 377:Drivers/STM32F4xx_HAL_Driver/Src/stm32f4xx_ll_usb.c **** 
 378:Drivers/STM32F4xx_HAL_Driver/Src/stm32f4xx_ll_usb.c ****   if (USB_FlushRxFifo(USBx) != HAL_OK)
 379:Drivers/STM32F4xx_HAL_Driver/Src/stm32f4xx_ll_usb.c ****   {
 380:Drivers/STM32F4xx_HAL_Driver/Src/stm32f4xx_ll_usb.c ****     ret = HAL_ERROR;
 381:Drivers/STM32F4xx_HAL_Driver/Src/stm32f4xx_ll_usb.c ****   }
 382:Drivers/STM32F4xx_HAL_Driver/Src/stm32f4xx_ll_usb.c **** 
 383:Drivers/STM32F4xx_HAL_Driver/Src/stm32f4xx_ll_usb.c ****   /* Clear all pending Device Interrupts */
 384:Drivers/STM32F4xx_HAL_Driver/Src/stm32f4xx_ll_usb.c ****   USBx_DEVICE->DIEPMSK = 0U;
 385:Drivers/STM32F4xx_HAL_Driver/Src/stm32f4xx_ll_usb.c ****   USBx_DEVICE->DOEPMSK = 0U;
 386:Drivers/STM32F4xx_HAL_Driver/Src/stm32f4xx_ll_usb.c ****   USBx_DEVICE->DAINTMSK = 0U;
 387:Drivers/STM32F4xx_HAL_Driver/Src/stm32f4xx_ll_usb.c **** 
 388:Drivers/STM32F4xx_HAL_Driver/Src/stm32f4xx_ll_usb.c ****   for (i = 0U; i < cfg.dev_endpoints; i++)
 389:Drivers/STM32F4xx_HAL_Driver/Src/stm32f4xx_ll_usb.c ****   {
 390:Drivers/STM32F4xx_HAL_Driver/Src/stm32f4xx_ll_usb.c ****     if ((USBx_INEP(i)->DIEPCTL & USB_OTG_DIEPCTL_EPENA) == USB_OTG_DIEPCTL_EPENA)
 391:Drivers/STM32F4xx_HAL_Driver/Src/stm32f4xx_ll_usb.c ****     {
 392:Drivers/STM32F4xx_HAL_Driver/Src/stm32f4xx_ll_usb.c ****       if (i == 0U)
 393:Drivers/STM32F4xx_HAL_Driver/Src/stm32f4xx_ll_usb.c ****       {
 394:Drivers/STM32F4xx_HAL_Driver/Src/stm32f4xx_ll_usb.c ****         USBx_INEP(i)->DIEPCTL = USB_OTG_DIEPCTL_SNAK;
 395:Drivers/STM32F4xx_HAL_Driver/Src/stm32f4xx_ll_usb.c ****       }
 396:Drivers/STM32F4xx_HAL_Driver/Src/stm32f4xx_ll_usb.c ****       else
 397:Drivers/STM32F4xx_HAL_Driver/Src/stm32f4xx_ll_usb.c ****       {
 398:Drivers/STM32F4xx_HAL_Driver/Src/stm32f4xx_ll_usb.c ****         USBx_INEP(i)->DIEPCTL = USB_OTG_DIEPCTL_EPDIS | USB_OTG_DIEPCTL_SNAK;
 399:Drivers/STM32F4xx_HAL_Driver/Src/stm32f4xx_ll_usb.c ****       }
 400:Drivers/STM32F4xx_HAL_Driver/Src/stm32f4xx_ll_usb.c ****     }
 401:Drivers/STM32F4xx_HAL_Driver/Src/stm32f4xx_ll_usb.c ****     else
 402:Drivers/STM32F4xx_HAL_Driver/Src/stm32f4xx_ll_usb.c ****     {
 403:Drivers/STM32F4xx_HAL_Driver/Src/stm32f4xx_ll_usb.c ****       USBx_INEP(i)->DIEPCTL = 0U;
 404:Drivers/STM32F4xx_HAL_Driver/Src/stm32f4xx_ll_usb.c ****     }
 405:Drivers/STM32F4xx_HAL_Driver/Src/stm32f4xx_ll_usb.c **** 
 406:Drivers/STM32F4xx_HAL_Driver/Src/stm32f4xx_ll_usb.c ****     USBx_INEP(i)->DIEPTSIZ = 0U;
 407:Drivers/STM32F4xx_HAL_Driver/Src/stm32f4xx_ll_usb.c ****     USBx_INEP(i)->DIEPINT  = 0xFB7FU;
 408:Drivers/STM32F4xx_HAL_Driver/Src/stm32f4xx_ll_usb.c ****   }
 409:Drivers/STM32F4xx_HAL_Driver/Src/stm32f4xx_ll_usb.c **** 
 410:Drivers/STM32F4xx_HAL_Driver/Src/stm32f4xx_ll_usb.c ****   for (i = 0U; i < cfg.dev_endpoints; i++)
 411:Drivers/STM32F4xx_HAL_Driver/Src/stm32f4xx_ll_usb.c ****   {
 412:Drivers/STM32F4xx_HAL_Driver/Src/stm32f4xx_ll_usb.c ****     if ((USBx_OUTEP(i)->DOEPCTL & USB_OTG_DOEPCTL_EPENA) == USB_OTG_DOEPCTL_EPENA)
 413:Drivers/STM32F4xx_HAL_Driver/Src/stm32f4xx_ll_usb.c ****     {
 414:Drivers/STM32F4xx_HAL_Driver/Src/stm32f4xx_ll_usb.c ****       if (i == 0U)
 415:Drivers/STM32F4xx_HAL_Driver/Src/stm32f4xx_ll_usb.c ****       {
 416:Drivers/STM32F4xx_HAL_Driver/Src/stm32f4xx_ll_usb.c ****         USBx_OUTEP(i)->DOEPCTL = USB_OTG_DOEPCTL_SNAK;
 417:Drivers/STM32F4xx_HAL_Driver/Src/stm32f4xx_ll_usb.c ****       }
 418:Drivers/STM32F4xx_HAL_Driver/Src/stm32f4xx_ll_usb.c ****       else
 419:Drivers/STM32F4xx_HAL_Driver/Src/stm32f4xx_ll_usb.c ****       {
 420:Drivers/STM32F4xx_HAL_Driver/Src/stm32f4xx_ll_usb.c ****         USBx_OUTEP(i)->DOEPCTL = USB_OTG_DOEPCTL_EPDIS | USB_OTG_DOEPCTL_SNAK;
 421:Drivers/STM32F4xx_HAL_Driver/Src/stm32f4xx_ll_usb.c ****       }
 422:Drivers/STM32F4xx_HAL_Driver/Src/stm32f4xx_ll_usb.c ****     }
 423:Drivers/STM32F4xx_HAL_Driver/Src/stm32f4xx_ll_usb.c ****     else
 424:Drivers/STM32F4xx_HAL_Driver/Src/stm32f4xx_ll_usb.c ****     {
 425:Drivers/STM32F4xx_HAL_Driver/Src/stm32f4xx_ll_usb.c ****       USBx_OUTEP(i)->DOEPCTL = 0U;
 426:Drivers/STM32F4xx_HAL_Driver/Src/stm32f4xx_ll_usb.c ****     }
 427:Drivers/STM32F4xx_HAL_Driver/Src/stm32f4xx_ll_usb.c **** 
 428:Drivers/STM32F4xx_HAL_Driver/Src/stm32f4xx_ll_usb.c ****     USBx_OUTEP(i)->DOEPTSIZ = 0U;
 429:Drivers/STM32F4xx_HAL_Driver/Src/stm32f4xx_ll_usb.c ****     USBx_OUTEP(i)->DOEPINT  = 0xFB7FU;
ARM GAS  /tmp/cc0ThgoX.s 			page 9


 430:Drivers/STM32F4xx_HAL_Driver/Src/stm32f4xx_ll_usb.c ****   }
 431:Drivers/STM32F4xx_HAL_Driver/Src/stm32f4xx_ll_usb.c **** 
 432:Drivers/STM32F4xx_HAL_Driver/Src/stm32f4xx_ll_usb.c ****   USBx_DEVICE->DIEPMSK &= ~(USB_OTG_DIEPMSK_TXFURM);
 433:Drivers/STM32F4xx_HAL_Driver/Src/stm32f4xx_ll_usb.c **** 
 434:Drivers/STM32F4xx_HAL_Driver/Src/stm32f4xx_ll_usb.c ****   /* Disable all interrupts. */
 435:Drivers/STM32F4xx_HAL_Driver/Src/stm32f4xx_ll_usb.c ****   USBx->GINTMSK = 0U;
 436:Drivers/STM32F4xx_HAL_Driver/Src/stm32f4xx_ll_usb.c **** 
 437:Drivers/STM32F4xx_HAL_Driver/Src/stm32f4xx_ll_usb.c ****   /* Clear any pending interrupts */
 438:Drivers/STM32F4xx_HAL_Driver/Src/stm32f4xx_ll_usb.c ****   USBx->GINTSTS = 0xBFFFFFFFU;
 439:Drivers/STM32F4xx_HAL_Driver/Src/stm32f4xx_ll_usb.c **** 
 440:Drivers/STM32F4xx_HAL_Driver/Src/stm32f4xx_ll_usb.c ****   /* Enable the common interrupts */
 441:Drivers/STM32F4xx_HAL_Driver/Src/stm32f4xx_ll_usb.c ****   if (cfg.dma_enable == 0U)
 442:Drivers/STM32F4xx_HAL_Driver/Src/stm32f4xx_ll_usb.c ****   {
 443:Drivers/STM32F4xx_HAL_Driver/Src/stm32f4xx_ll_usb.c ****     USBx->GINTMSK |= USB_OTG_GINTMSK_RXFLVLM;
 444:Drivers/STM32F4xx_HAL_Driver/Src/stm32f4xx_ll_usb.c ****   }
 445:Drivers/STM32F4xx_HAL_Driver/Src/stm32f4xx_ll_usb.c **** 
 446:Drivers/STM32F4xx_HAL_Driver/Src/stm32f4xx_ll_usb.c ****   /* Enable interrupts matching to the Device mode ONLY */
 447:Drivers/STM32F4xx_HAL_Driver/Src/stm32f4xx_ll_usb.c ****   USBx->GINTMSK |= USB_OTG_GINTMSK_USBSUSPM | USB_OTG_GINTMSK_USBRST |
 448:Drivers/STM32F4xx_HAL_Driver/Src/stm32f4xx_ll_usb.c ****                    USB_OTG_GINTMSK_ENUMDNEM | USB_OTG_GINTMSK_IEPINT |
 449:Drivers/STM32F4xx_HAL_Driver/Src/stm32f4xx_ll_usb.c ****                    USB_OTG_GINTMSK_OEPINT   | USB_OTG_GINTMSK_IISOIXFRM |
 450:Drivers/STM32F4xx_HAL_Driver/Src/stm32f4xx_ll_usb.c ****                    USB_OTG_GINTMSK_PXFRM_IISOOXFRM | USB_OTG_GINTMSK_WUIM;
 451:Drivers/STM32F4xx_HAL_Driver/Src/stm32f4xx_ll_usb.c **** 
 452:Drivers/STM32F4xx_HAL_Driver/Src/stm32f4xx_ll_usb.c ****   if (cfg.Sof_enable != 0U)
 453:Drivers/STM32F4xx_HAL_Driver/Src/stm32f4xx_ll_usb.c ****   {
 454:Drivers/STM32F4xx_HAL_Driver/Src/stm32f4xx_ll_usb.c ****     USBx->GINTMSK |= USB_OTG_GINTMSK_SOFM;
 455:Drivers/STM32F4xx_HAL_Driver/Src/stm32f4xx_ll_usb.c ****   }
 456:Drivers/STM32F4xx_HAL_Driver/Src/stm32f4xx_ll_usb.c **** 
 457:Drivers/STM32F4xx_HAL_Driver/Src/stm32f4xx_ll_usb.c ****   if (cfg.vbus_sensing_enable == 1U)
 458:Drivers/STM32F4xx_HAL_Driver/Src/stm32f4xx_ll_usb.c ****   {
 459:Drivers/STM32F4xx_HAL_Driver/Src/stm32f4xx_ll_usb.c ****     USBx->GINTMSK |= (USB_OTG_GINTMSK_SRQIM | USB_OTG_GINTMSK_OTGINT);
 460:Drivers/STM32F4xx_HAL_Driver/Src/stm32f4xx_ll_usb.c ****   }
 461:Drivers/STM32F4xx_HAL_Driver/Src/stm32f4xx_ll_usb.c **** 
 462:Drivers/STM32F4xx_HAL_Driver/Src/stm32f4xx_ll_usb.c ****   return ret;
 463:Drivers/STM32F4xx_HAL_Driver/Src/stm32f4xx_ll_usb.c **** }
 464:Drivers/STM32F4xx_HAL_Driver/Src/stm32f4xx_ll_usb.c **** 
 465:Drivers/STM32F4xx_HAL_Driver/Src/stm32f4xx_ll_usb.c **** /**
 466:Drivers/STM32F4xx_HAL_Driver/Src/stm32f4xx_ll_usb.c ****   * @brief  USB_FlushTxFifo Flush a Tx FIFO
 467:Drivers/STM32F4xx_HAL_Driver/Src/stm32f4xx_ll_usb.c ****   * @param  USBx  Selected device
 468:Drivers/STM32F4xx_HAL_Driver/Src/stm32f4xx_ll_usb.c ****   * @param  num  FIFO number
 469:Drivers/STM32F4xx_HAL_Driver/Src/stm32f4xx_ll_usb.c ****   *         This parameter can be a value from 1 to 15
 470:Drivers/STM32F4xx_HAL_Driver/Src/stm32f4xx_ll_usb.c ****             15 means Flush all Tx FIFOs
 471:Drivers/STM32F4xx_HAL_Driver/Src/stm32f4xx_ll_usb.c ****   * @retval HAL status
 472:Drivers/STM32F4xx_HAL_Driver/Src/stm32f4xx_ll_usb.c ****   */
 473:Drivers/STM32F4xx_HAL_Driver/Src/stm32f4xx_ll_usb.c **** HAL_StatusTypeDef USB_FlushTxFifo(USB_OTG_GlobalTypeDef *USBx, uint32_t num)
 474:Drivers/STM32F4xx_HAL_Driver/Src/stm32f4xx_ll_usb.c **** {
 475:Drivers/STM32F4xx_HAL_Driver/Src/stm32f4xx_ll_usb.c ****   __IO uint32_t count = 0U;
 476:Drivers/STM32F4xx_HAL_Driver/Src/stm32f4xx_ll_usb.c **** 
 477:Drivers/STM32F4xx_HAL_Driver/Src/stm32f4xx_ll_usb.c ****   /* Wait for AHB master IDLE state. */
 478:Drivers/STM32F4xx_HAL_Driver/Src/stm32f4xx_ll_usb.c ****   do
 479:Drivers/STM32F4xx_HAL_Driver/Src/stm32f4xx_ll_usb.c ****   {
 480:Drivers/STM32F4xx_HAL_Driver/Src/stm32f4xx_ll_usb.c ****     count++;
 481:Drivers/STM32F4xx_HAL_Driver/Src/stm32f4xx_ll_usb.c **** 
 482:Drivers/STM32F4xx_HAL_Driver/Src/stm32f4xx_ll_usb.c ****     if (count > HAL_USB_TIMEOUT)
 483:Drivers/STM32F4xx_HAL_Driver/Src/stm32f4xx_ll_usb.c ****     {
 484:Drivers/STM32F4xx_HAL_Driver/Src/stm32f4xx_ll_usb.c ****       return HAL_TIMEOUT;
 485:Drivers/STM32F4xx_HAL_Driver/Src/stm32f4xx_ll_usb.c ****     }
 486:Drivers/STM32F4xx_HAL_Driver/Src/stm32f4xx_ll_usb.c ****   } while ((USBx->GRSTCTL & USB_OTG_GRSTCTL_AHBIDL) == 0U);
ARM GAS  /tmp/cc0ThgoX.s 			page 10


 487:Drivers/STM32F4xx_HAL_Driver/Src/stm32f4xx_ll_usb.c **** 
 488:Drivers/STM32F4xx_HAL_Driver/Src/stm32f4xx_ll_usb.c ****   /* Flush TX Fifo */
 489:Drivers/STM32F4xx_HAL_Driver/Src/stm32f4xx_ll_usb.c ****   count = 0U;
 490:Drivers/STM32F4xx_HAL_Driver/Src/stm32f4xx_ll_usb.c ****   USBx->GRSTCTL = (USB_OTG_GRSTCTL_TXFFLSH | (num << 6));
 491:Drivers/STM32F4xx_HAL_Driver/Src/stm32f4xx_ll_usb.c **** 
 492:Drivers/STM32F4xx_HAL_Driver/Src/stm32f4xx_ll_usb.c ****   do
 493:Drivers/STM32F4xx_HAL_Driver/Src/stm32f4xx_ll_usb.c ****   {
 494:Drivers/STM32F4xx_HAL_Driver/Src/stm32f4xx_ll_usb.c ****     count++;
 495:Drivers/STM32F4xx_HAL_Driver/Src/stm32f4xx_ll_usb.c **** 
 496:Drivers/STM32F4xx_HAL_Driver/Src/stm32f4xx_ll_usb.c ****     if (count > HAL_USB_TIMEOUT)
 497:Drivers/STM32F4xx_HAL_Driver/Src/stm32f4xx_ll_usb.c ****     {
 498:Drivers/STM32F4xx_HAL_Driver/Src/stm32f4xx_ll_usb.c ****       return HAL_TIMEOUT;
 499:Drivers/STM32F4xx_HAL_Driver/Src/stm32f4xx_ll_usb.c ****     }
 500:Drivers/STM32F4xx_HAL_Driver/Src/stm32f4xx_ll_usb.c ****   } while ((USBx->GRSTCTL & USB_OTG_GRSTCTL_TXFFLSH) == USB_OTG_GRSTCTL_TXFFLSH);
 501:Drivers/STM32F4xx_HAL_Driver/Src/stm32f4xx_ll_usb.c **** 
 502:Drivers/STM32F4xx_HAL_Driver/Src/stm32f4xx_ll_usb.c ****   return HAL_OK;
 503:Drivers/STM32F4xx_HAL_Driver/Src/stm32f4xx_ll_usb.c **** }
 504:Drivers/STM32F4xx_HAL_Driver/Src/stm32f4xx_ll_usb.c **** 
 505:Drivers/STM32F4xx_HAL_Driver/Src/stm32f4xx_ll_usb.c **** /**
 506:Drivers/STM32F4xx_HAL_Driver/Src/stm32f4xx_ll_usb.c ****   * @brief  USB_FlushRxFifo  Flush Rx FIFO
 507:Drivers/STM32F4xx_HAL_Driver/Src/stm32f4xx_ll_usb.c ****   * @param  USBx  Selected device
 508:Drivers/STM32F4xx_HAL_Driver/Src/stm32f4xx_ll_usb.c ****   * @retval HAL status
 509:Drivers/STM32F4xx_HAL_Driver/Src/stm32f4xx_ll_usb.c ****   */
 510:Drivers/STM32F4xx_HAL_Driver/Src/stm32f4xx_ll_usb.c **** HAL_StatusTypeDef USB_FlushRxFifo(USB_OTG_GlobalTypeDef *USBx)
 511:Drivers/STM32F4xx_HAL_Driver/Src/stm32f4xx_ll_usb.c **** {
 512:Drivers/STM32F4xx_HAL_Driver/Src/stm32f4xx_ll_usb.c ****   __IO uint32_t count = 0U;
 513:Drivers/STM32F4xx_HAL_Driver/Src/stm32f4xx_ll_usb.c **** 
 514:Drivers/STM32F4xx_HAL_Driver/Src/stm32f4xx_ll_usb.c ****   /* Wait for AHB master IDLE state. */
 515:Drivers/STM32F4xx_HAL_Driver/Src/stm32f4xx_ll_usb.c ****   do
 516:Drivers/STM32F4xx_HAL_Driver/Src/stm32f4xx_ll_usb.c ****   {
 517:Drivers/STM32F4xx_HAL_Driver/Src/stm32f4xx_ll_usb.c ****     count++;
 518:Drivers/STM32F4xx_HAL_Driver/Src/stm32f4xx_ll_usb.c **** 
 519:Drivers/STM32F4xx_HAL_Driver/Src/stm32f4xx_ll_usb.c ****     if (count > HAL_USB_TIMEOUT)
 520:Drivers/STM32F4xx_HAL_Driver/Src/stm32f4xx_ll_usb.c ****     {
 521:Drivers/STM32F4xx_HAL_Driver/Src/stm32f4xx_ll_usb.c ****       return HAL_TIMEOUT;
 522:Drivers/STM32F4xx_HAL_Driver/Src/stm32f4xx_ll_usb.c ****     }
 523:Drivers/STM32F4xx_HAL_Driver/Src/stm32f4xx_ll_usb.c ****   } while ((USBx->GRSTCTL & USB_OTG_GRSTCTL_AHBIDL) == 0U);
 524:Drivers/STM32F4xx_HAL_Driver/Src/stm32f4xx_ll_usb.c **** 
 525:Drivers/STM32F4xx_HAL_Driver/Src/stm32f4xx_ll_usb.c ****   /* Flush RX Fifo */
 526:Drivers/STM32F4xx_HAL_Driver/Src/stm32f4xx_ll_usb.c ****   count = 0U;
 527:Drivers/STM32F4xx_HAL_Driver/Src/stm32f4xx_ll_usb.c ****   USBx->GRSTCTL = USB_OTG_GRSTCTL_RXFFLSH;
 528:Drivers/STM32F4xx_HAL_Driver/Src/stm32f4xx_ll_usb.c **** 
 529:Drivers/STM32F4xx_HAL_Driver/Src/stm32f4xx_ll_usb.c ****   do
 530:Drivers/STM32F4xx_HAL_Driver/Src/stm32f4xx_ll_usb.c ****   {
 531:Drivers/STM32F4xx_HAL_Driver/Src/stm32f4xx_ll_usb.c ****     count++;
 532:Drivers/STM32F4xx_HAL_Driver/Src/stm32f4xx_ll_usb.c **** 
 533:Drivers/STM32F4xx_HAL_Driver/Src/stm32f4xx_ll_usb.c ****     if (count > HAL_USB_TIMEOUT)
 534:Drivers/STM32F4xx_HAL_Driver/Src/stm32f4xx_ll_usb.c ****     {
 535:Drivers/STM32F4xx_HAL_Driver/Src/stm32f4xx_ll_usb.c ****       return HAL_TIMEOUT;
 536:Drivers/STM32F4xx_HAL_Driver/Src/stm32f4xx_ll_usb.c ****     }
 537:Drivers/STM32F4xx_HAL_Driver/Src/stm32f4xx_ll_usb.c ****   } while ((USBx->GRSTCTL & USB_OTG_GRSTCTL_RXFFLSH) == USB_OTG_GRSTCTL_RXFFLSH);
 538:Drivers/STM32F4xx_HAL_Driver/Src/stm32f4xx_ll_usb.c **** 
 539:Drivers/STM32F4xx_HAL_Driver/Src/stm32f4xx_ll_usb.c ****   return HAL_OK;
 540:Drivers/STM32F4xx_HAL_Driver/Src/stm32f4xx_ll_usb.c **** }
 541:Drivers/STM32F4xx_HAL_Driver/Src/stm32f4xx_ll_usb.c **** 
 542:Drivers/STM32F4xx_HAL_Driver/Src/stm32f4xx_ll_usb.c **** /**
 543:Drivers/STM32F4xx_HAL_Driver/Src/stm32f4xx_ll_usb.c ****   * @brief  USB_SetDevSpeed  Initializes the DevSpd field of DCFG register
ARM GAS  /tmp/cc0ThgoX.s 			page 11


 544:Drivers/STM32F4xx_HAL_Driver/Src/stm32f4xx_ll_usb.c ****   *         depending the PHY type and the enumeration speed of the device.
 545:Drivers/STM32F4xx_HAL_Driver/Src/stm32f4xx_ll_usb.c ****   * @param  USBx  Selected device
 546:Drivers/STM32F4xx_HAL_Driver/Src/stm32f4xx_ll_usb.c ****   * @param  speed  device speed
 547:Drivers/STM32F4xx_HAL_Driver/Src/stm32f4xx_ll_usb.c ****   *          This parameter can be one of these values:
 548:Drivers/STM32F4xx_HAL_Driver/Src/stm32f4xx_ll_usb.c ****   *            @arg USB_OTG_SPEED_HIGH: High speed mode
 549:Drivers/STM32F4xx_HAL_Driver/Src/stm32f4xx_ll_usb.c ****   *            @arg USB_OTG_SPEED_HIGH_IN_FULL: High speed core in Full Speed mode
 550:Drivers/STM32F4xx_HAL_Driver/Src/stm32f4xx_ll_usb.c ****   *            @arg USB_OTG_SPEED_FULL: Full speed mode
 551:Drivers/STM32F4xx_HAL_Driver/Src/stm32f4xx_ll_usb.c ****   * @retval  Hal status
 552:Drivers/STM32F4xx_HAL_Driver/Src/stm32f4xx_ll_usb.c ****   */
 553:Drivers/STM32F4xx_HAL_Driver/Src/stm32f4xx_ll_usb.c **** HAL_StatusTypeDef USB_SetDevSpeed(const USB_OTG_GlobalTypeDef *USBx, uint8_t speed)
 554:Drivers/STM32F4xx_HAL_Driver/Src/stm32f4xx_ll_usb.c **** {
 555:Drivers/STM32F4xx_HAL_Driver/Src/stm32f4xx_ll_usb.c ****   uint32_t USBx_BASE = (uint32_t)USBx;
 556:Drivers/STM32F4xx_HAL_Driver/Src/stm32f4xx_ll_usb.c **** 
 557:Drivers/STM32F4xx_HAL_Driver/Src/stm32f4xx_ll_usb.c ****   USBx_DEVICE->DCFG |= speed;
 558:Drivers/STM32F4xx_HAL_Driver/Src/stm32f4xx_ll_usb.c ****   return HAL_OK;
 559:Drivers/STM32F4xx_HAL_Driver/Src/stm32f4xx_ll_usb.c **** }
 560:Drivers/STM32F4xx_HAL_Driver/Src/stm32f4xx_ll_usb.c **** 
 561:Drivers/STM32F4xx_HAL_Driver/Src/stm32f4xx_ll_usb.c **** /**
 562:Drivers/STM32F4xx_HAL_Driver/Src/stm32f4xx_ll_usb.c ****   * @brief  USB_GetDevSpeed  Return the Dev Speed
 563:Drivers/STM32F4xx_HAL_Driver/Src/stm32f4xx_ll_usb.c ****   * @param  USBx  Selected device
 564:Drivers/STM32F4xx_HAL_Driver/Src/stm32f4xx_ll_usb.c ****   * @retval speed  device speed
 565:Drivers/STM32F4xx_HAL_Driver/Src/stm32f4xx_ll_usb.c ****   *          This parameter can be one of these values:
 566:Drivers/STM32F4xx_HAL_Driver/Src/stm32f4xx_ll_usb.c ****   *            @arg USBD_HS_SPEED: High speed mode
 567:Drivers/STM32F4xx_HAL_Driver/Src/stm32f4xx_ll_usb.c ****   *            @arg USBD_FS_SPEED: Full speed mode
 568:Drivers/STM32F4xx_HAL_Driver/Src/stm32f4xx_ll_usb.c ****   */
 569:Drivers/STM32F4xx_HAL_Driver/Src/stm32f4xx_ll_usb.c **** uint8_t USB_GetDevSpeed(const USB_OTG_GlobalTypeDef *USBx)
 570:Drivers/STM32F4xx_HAL_Driver/Src/stm32f4xx_ll_usb.c **** {
 571:Drivers/STM32F4xx_HAL_Driver/Src/stm32f4xx_ll_usb.c ****   uint32_t USBx_BASE = (uint32_t)USBx;
 572:Drivers/STM32F4xx_HAL_Driver/Src/stm32f4xx_ll_usb.c ****   uint8_t speed;
 573:Drivers/STM32F4xx_HAL_Driver/Src/stm32f4xx_ll_usb.c ****   uint32_t DevEnumSpeed = USBx_DEVICE->DSTS & USB_OTG_DSTS_ENUMSPD;
 574:Drivers/STM32F4xx_HAL_Driver/Src/stm32f4xx_ll_usb.c **** 
 575:Drivers/STM32F4xx_HAL_Driver/Src/stm32f4xx_ll_usb.c ****   if (DevEnumSpeed == DSTS_ENUMSPD_HS_PHY_30MHZ_OR_60MHZ)
 576:Drivers/STM32F4xx_HAL_Driver/Src/stm32f4xx_ll_usb.c ****   {
 577:Drivers/STM32F4xx_HAL_Driver/Src/stm32f4xx_ll_usb.c ****     speed = USBD_HS_SPEED;
 578:Drivers/STM32F4xx_HAL_Driver/Src/stm32f4xx_ll_usb.c ****   }
 579:Drivers/STM32F4xx_HAL_Driver/Src/stm32f4xx_ll_usb.c ****   else if ((DevEnumSpeed == DSTS_ENUMSPD_FS_PHY_30MHZ_OR_60MHZ) ||
 580:Drivers/STM32F4xx_HAL_Driver/Src/stm32f4xx_ll_usb.c ****            (DevEnumSpeed == DSTS_ENUMSPD_FS_PHY_48MHZ))
 581:Drivers/STM32F4xx_HAL_Driver/Src/stm32f4xx_ll_usb.c ****   {
 582:Drivers/STM32F4xx_HAL_Driver/Src/stm32f4xx_ll_usb.c ****     speed = USBD_FS_SPEED;
 583:Drivers/STM32F4xx_HAL_Driver/Src/stm32f4xx_ll_usb.c ****   }
 584:Drivers/STM32F4xx_HAL_Driver/Src/stm32f4xx_ll_usb.c ****   else
 585:Drivers/STM32F4xx_HAL_Driver/Src/stm32f4xx_ll_usb.c ****   {
 586:Drivers/STM32F4xx_HAL_Driver/Src/stm32f4xx_ll_usb.c ****     speed = 0xFU;
 587:Drivers/STM32F4xx_HAL_Driver/Src/stm32f4xx_ll_usb.c ****   }
 588:Drivers/STM32F4xx_HAL_Driver/Src/stm32f4xx_ll_usb.c **** 
 589:Drivers/STM32F4xx_HAL_Driver/Src/stm32f4xx_ll_usb.c ****   return speed;
 590:Drivers/STM32F4xx_HAL_Driver/Src/stm32f4xx_ll_usb.c **** }
 591:Drivers/STM32F4xx_HAL_Driver/Src/stm32f4xx_ll_usb.c **** 
 592:Drivers/STM32F4xx_HAL_Driver/Src/stm32f4xx_ll_usb.c **** /**
 593:Drivers/STM32F4xx_HAL_Driver/Src/stm32f4xx_ll_usb.c ****   * @brief  Activate and configure an endpoint
 594:Drivers/STM32F4xx_HAL_Driver/Src/stm32f4xx_ll_usb.c ****   * @param  USBx  Selected device
 595:Drivers/STM32F4xx_HAL_Driver/Src/stm32f4xx_ll_usb.c ****   * @param  ep pointer to endpoint structure
 596:Drivers/STM32F4xx_HAL_Driver/Src/stm32f4xx_ll_usb.c ****   * @retval HAL status
 597:Drivers/STM32F4xx_HAL_Driver/Src/stm32f4xx_ll_usb.c ****   */
 598:Drivers/STM32F4xx_HAL_Driver/Src/stm32f4xx_ll_usb.c **** HAL_StatusTypeDef USB_ActivateEndpoint(const USB_OTG_GlobalTypeDef *USBx, const USB_OTG_EPTypeDef *
 599:Drivers/STM32F4xx_HAL_Driver/Src/stm32f4xx_ll_usb.c **** {
 600:Drivers/STM32F4xx_HAL_Driver/Src/stm32f4xx_ll_usb.c ****   uint32_t USBx_BASE = (uint32_t)USBx;
ARM GAS  /tmp/cc0ThgoX.s 			page 12


 601:Drivers/STM32F4xx_HAL_Driver/Src/stm32f4xx_ll_usb.c ****   uint32_t epnum = (uint32_t)ep->num;
 602:Drivers/STM32F4xx_HAL_Driver/Src/stm32f4xx_ll_usb.c **** 
 603:Drivers/STM32F4xx_HAL_Driver/Src/stm32f4xx_ll_usb.c ****   if (ep->is_in == 1U)
 604:Drivers/STM32F4xx_HAL_Driver/Src/stm32f4xx_ll_usb.c ****   {
 605:Drivers/STM32F4xx_HAL_Driver/Src/stm32f4xx_ll_usb.c ****     USBx_DEVICE->DAINTMSK |= USB_OTG_DAINTMSK_IEPM & (uint32_t)(1UL << (ep->num & EP_ADDR_MSK));
 606:Drivers/STM32F4xx_HAL_Driver/Src/stm32f4xx_ll_usb.c **** 
 607:Drivers/STM32F4xx_HAL_Driver/Src/stm32f4xx_ll_usb.c ****     if ((USBx_INEP(epnum)->DIEPCTL & USB_OTG_DIEPCTL_USBAEP) == 0U)
 608:Drivers/STM32F4xx_HAL_Driver/Src/stm32f4xx_ll_usb.c ****     {
 609:Drivers/STM32F4xx_HAL_Driver/Src/stm32f4xx_ll_usb.c ****       USBx_INEP(epnum)->DIEPCTL |= (ep->maxpacket & USB_OTG_DIEPCTL_MPSIZ) |
 610:Drivers/STM32F4xx_HAL_Driver/Src/stm32f4xx_ll_usb.c ****                                    ((uint32_t)ep->type << 18) | (epnum << 22) |
 611:Drivers/STM32F4xx_HAL_Driver/Src/stm32f4xx_ll_usb.c ****                                    USB_OTG_DIEPCTL_SD0PID_SEVNFRM |
 612:Drivers/STM32F4xx_HAL_Driver/Src/stm32f4xx_ll_usb.c ****                                    USB_OTG_DIEPCTL_USBAEP;
 613:Drivers/STM32F4xx_HAL_Driver/Src/stm32f4xx_ll_usb.c ****     }
 614:Drivers/STM32F4xx_HAL_Driver/Src/stm32f4xx_ll_usb.c ****   }
 615:Drivers/STM32F4xx_HAL_Driver/Src/stm32f4xx_ll_usb.c ****   else
 616:Drivers/STM32F4xx_HAL_Driver/Src/stm32f4xx_ll_usb.c ****   {
 617:Drivers/STM32F4xx_HAL_Driver/Src/stm32f4xx_ll_usb.c ****     USBx_DEVICE->DAINTMSK |= USB_OTG_DAINTMSK_OEPM & ((uint32_t)(1UL << (ep->num & EP_ADDR_MSK)) <<
 618:Drivers/STM32F4xx_HAL_Driver/Src/stm32f4xx_ll_usb.c **** 
 619:Drivers/STM32F4xx_HAL_Driver/Src/stm32f4xx_ll_usb.c ****     if (((USBx_OUTEP(epnum)->DOEPCTL) & USB_OTG_DOEPCTL_USBAEP) == 0U)
 620:Drivers/STM32F4xx_HAL_Driver/Src/stm32f4xx_ll_usb.c ****     {
 621:Drivers/STM32F4xx_HAL_Driver/Src/stm32f4xx_ll_usb.c ****       USBx_OUTEP(epnum)->DOEPCTL |= (ep->maxpacket & USB_OTG_DOEPCTL_MPSIZ) |
 622:Drivers/STM32F4xx_HAL_Driver/Src/stm32f4xx_ll_usb.c ****                                     ((uint32_t)ep->type << 18) |
 623:Drivers/STM32F4xx_HAL_Driver/Src/stm32f4xx_ll_usb.c ****                                     USB_OTG_DIEPCTL_SD0PID_SEVNFRM |
 624:Drivers/STM32F4xx_HAL_Driver/Src/stm32f4xx_ll_usb.c ****                                     USB_OTG_DOEPCTL_USBAEP;
 625:Drivers/STM32F4xx_HAL_Driver/Src/stm32f4xx_ll_usb.c ****     }
 626:Drivers/STM32F4xx_HAL_Driver/Src/stm32f4xx_ll_usb.c ****   }
 627:Drivers/STM32F4xx_HAL_Driver/Src/stm32f4xx_ll_usb.c ****   return HAL_OK;
 628:Drivers/STM32F4xx_HAL_Driver/Src/stm32f4xx_ll_usb.c **** }
 629:Drivers/STM32F4xx_HAL_Driver/Src/stm32f4xx_ll_usb.c **** 
 630:Drivers/STM32F4xx_HAL_Driver/Src/stm32f4xx_ll_usb.c **** /**
 631:Drivers/STM32F4xx_HAL_Driver/Src/stm32f4xx_ll_usb.c ****   * @brief  Activate and configure a dedicated endpoint
 632:Drivers/STM32F4xx_HAL_Driver/Src/stm32f4xx_ll_usb.c ****   * @param  USBx  Selected device
 633:Drivers/STM32F4xx_HAL_Driver/Src/stm32f4xx_ll_usb.c ****   * @param  ep pointer to endpoint structure
 634:Drivers/STM32F4xx_HAL_Driver/Src/stm32f4xx_ll_usb.c ****   * @retval HAL status
 635:Drivers/STM32F4xx_HAL_Driver/Src/stm32f4xx_ll_usb.c ****   */
 636:Drivers/STM32F4xx_HAL_Driver/Src/stm32f4xx_ll_usb.c **** HAL_StatusTypeDef USB_ActivateDedicatedEndpoint(const USB_OTG_GlobalTypeDef *USBx, const USB_OTG_EP
 637:Drivers/STM32F4xx_HAL_Driver/Src/stm32f4xx_ll_usb.c **** {
 638:Drivers/STM32F4xx_HAL_Driver/Src/stm32f4xx_ll_usb.c ****   uint32_t USBx_BASE = (uint32_t)USBx;
 639:Drivers/STM32F4xx_HAL_Driver/Src/stm32f4xx_ll_usb.c ****   uint32_t epnum = (uint32_t)ep->num;
 640:Drivers/STM32F4xx_HAL_Driver/Src/stm32f4xx_ll_usb.c **** 
 641:Drivers/STM32F4xx_HAL_Driver/Src/stm32f4xx_ll_usb.c ****   /* Read DEPCTLn register */
 642:Drivers/STM32F4xx_HAL_Driver/Src/stm32f4xx_ll_usb.c ****   if (ep->is_in == 1U)
 643:Drivers/STM32F4xx_HAL_Driver/Src/stm32f4xx_ll_usb.c ****   {
 644:Drivers/STM32F4xx_HAL_Driver/Src/stm32f4xx_ll_usb.c ****     if (((USBx_INEP(epnum)->DIEPCTL) & USB_OTG_DIEPCTL_USBAEP) == 0U)
 645:Drivers/STM32F4xx_HAL_Driver/Src/stm32f4xx_ll_usb.c ****     {
 646:Drivers/STM32F4xx_HAL_Driver/Src/stm32f4xx_ll_usb.c ****       USBx_INEP(epnum)->DIEPCTL |= (ep->maxpacket & USB_OTG_DIEPCTL_MPSIZ) |
 647:Drivers/STM32F4xx_HAL_Driver/Src/stm32f4xx_ll_usb.c ****                                    ((uint32_t)ep->type << 18) | (epnum << 22) |
 648:Drivers/STM32F4xx_HAL_Driver/Src/stm32f4xx_ll_usb.c ****                                    USB_OTG_DIEPCTL_SD0PID_SEVNFRM |
 649:Drivers/STM32F4xx_HAL_Driver/Src/stm32f4xx_ll_usb.c ****                                    USB_OTG_DIEPCTL_USBAEP;
 650:Drivers/STM32F4xx_HAL_Driver/Src/stm32f4xx_ll_usb.c ****     }
 651:Drivers/STM32F4xx_HAL_Driver/Src/stm32f4xx_ll_usb.c **** 
 652:Drivers/STM32F4xx_HAL_Driver/Src/stm32f4xx_ll_usb.c ****     USBx_DEVICE->DEACHMSK |= USB_OTG_DAINTMSK_IEPM & (uint32_t)(1UL << (ep->num & EP_ADDR_MSK));
 653:Drivers/STM32F4xx_HAL_Driver/Src/stm32f4xx_ll_usb.c ****   }
 654:Drivers/STM32F4xx_HAL_Driver/Src/stm32f4xx_ll_usb.c ****   else
 655:Drivers/STM32F4xx_HAL_Driver/Src/stm32f4xx_ll_usb.c ****   {
 656:Drivers/STM32F4xx_HAL_Driver/Src/stm32f4xx_ll_usb.c ****     if (((USBx_OUTEP(epnum)->DOEPCTL) & USB_OTG_DOEPCTL_USBAEP) == 0U)
 657:Drivers/STM32F4xx_HAL_Driver/Src/stm32f4xx_ll_usb.c ****     {
ARM GAS  /tmp/cc0ThgoX.s 			page 13


 658:Drivers/STM32F4xx_HAL_Driver/Src/stm32f4xx_ll_usb.c ****       USBx_OUTEP(epnum)->DOEPCTL |= (ep->maxpacket & USB_OTG_DOEPCTL_MPSIZ) |
 659:Drivers/STM32F4xx_HAL_Driver/Src/stm32f4xx_ll_usb.c ****                                     ((uint32_t)ep->type << 18) | (epnum << 22) |
 660:Drivers/STM32F4xx_HAL_Driver/Src/stm32f4xx_ll_usb.c ****                                     USB_OTG_DOEPCTL_USBAEP;
 661:Drivers/STM32F4xx_HAL_Driver/Src/stm32f4xx_ll_usb.c ****     }
 662:Drivers/STM32F4xx_HAL_Driver/Src/stm32f4xx_ll_usb.c **** 
 663:Drivers/STM32F4xx_HAL_Driver/Src/stm32f4xx_ll_usb.c ****     USBx_DEVICE->DEACHMSK |= USB_OTG_DAINTMSK_OEPM & ((uint32_t)(1UL << (ep->num & EP_ADDR_MSK)) <<
 664:Drivers/STM32F4xx_HAL_Driver/Src/stm32f4xx_ll_usb.c ****   }
 665:Drivers/STM32F4xx_HAL_Driver/Src/stm32f4xx_ll_usb.c **** 
 666:Drivers/STM32F4xx_HAL_Driver/Src/stm32f4xx_ll_usb.c ****   return HAL_OK;
 667:Drivers/STM32F4xx_HAL_Driver/Src/stm32f4xx_ll_usb.c **** }
 668:Drivers/STM32F4xx_HAL_Driver/Src/stm32f4xx_ll_usb.c **** 
 669:Drivers/STM32F4xx_HAL_Driver/Src/stm32f4xx_ll_usb.c **** /**
 670:Drivers/STM32F4xx_HAL_Driver/Src/stm32f4xx_ll_usb.c ****   * @brief  De-activate and de-initialize an endpoint
 671:Drivers/STM32F4xx_HAL_Driver/Src/stm32f4xx_ll_usb.c ****   * @param  USBx  Selected device
 672:Drivers/STM32F4xx_HAL_Driver/Src/stm32f4xx_ll_usb.c ****   * @param  ep pointer to endpoint structure
 673:Drivers/STM32F4xx_HAL_Driver/Src/stm32f4xx_ll_usb.c ****   * @retval HAL status
 674:Drivers/STM32F4xx_HAL_Driver/Src/stm32f4xx_ll_usb.c ****   */
 675:Drivers/STM32F4xx_HAL_Driver/Src/stm32f4xx_ll_usb.c **** HAL_StatusTypeDef USB_DeactivateEndpoint(const USB_OTG_GlobalTypeDef *USBx, const USB_OTG_EPTypeDef
 676:Drivers/STM32F4xx_HAL_Driver/Src/stm32f4xx_ll_usb.c **** {
 677:Drivers/STM32F4xx_HAL_Driver/Src/stm32f4xx_ll_usb.c ****   uint32_t USBx_BASE = (uint32_t)USBx;
 678:Drivers/STM32F4xx_HAL_Driver/Src/stm32f4xx_ll_usb.c ****   uint32_t epnum = (uint32_t)ep->num;
 679:Drivers/STM32F4xx_HAL_Driver/Src/stm32f4xx_ll_usb.c **** 
 680:Drivers/STM32F4xx_HAL_Driver/Src/stm32f4xx_ll_usb.c ****   /* Read DEPCTLn register */
 681:Drivers/STM32F4xx_HAL_Driver/Src/stm32f4xx_ll_usb.c ****   if (ep->is_in == 1U)
 682:Drivers/STM32F4xx_HAL_Driver/Src/stm32f4xx_ll_usb.c ****   {
 683:Drivers/STM32F4xx_HAL_Driver/Src/stm32f4xx_ll_usb.c ****     if ((USBx_INEP(epnum)->DIEPCTL & USB_OTG_DIEPCTL_EPENA) == USB_OTG_DIEPCTL_EPENA)
 684:Drivers/STM32F4xx_HAL_Driver/Src/stm32f4xx_ll_usb.c ****     {
 685:Drivers/STM32F4xx_HAL_Driver/Src/stm32f4xx_ll_usb.c ****       USBx_INEP(epnum)->DIEPCTL |= USB_OTG_DIEPCTL_SNAK;
 686:Drivers/STM32F4xx_HAL_Driver/Src/stm32f4xx_ll_usb.c ****       USBx_INEP(epnum)->DIEPCTL |= USB_OTG_DIEPCTL_EPDIS;
 687:Drivers/STM32F4xx_HAL_Driver/Src/stm32f4xx_ll_usb.c ****     }
 688:Drivers/STM32F4xx_HAL_Driver/Src/stm32f4xx_ll_usb.c **** 
 689:Drivers/STM32F4xx_HAL_Driver/Src/stm32f4xx_ll_usb.c ****     USBx_DEVICE->DEACHMSK &= ~(USB_OTG_DAINTMSK_IEPM & (uint32_t)(1UL << (ep->num & EP_ADDR_MSK)));
 690:Drivers/STM32F4xx_HAL_Driver/Src/stm32f4xx_ll_usb.c ****     USBx_DEVICE->DAINTMSK &= ~(USB_OTG_DAINTMSK_IEPM & (uint32_t)(1UL << (ep->num & EP_ADDR_MSK)));
 691:Drivers/STM32F4xx_HAL_Driver/Src/stm32f4xx_ll_usb.c ****     USBx_INEP(epnum)->DIEPCTL &= ~(USB_OTG_DIEPCTL_USBAEP |
 692:Drivers/STM32F4xx_HAL_Driver/Src/stm32f4xx_ll_usb.c ****                                    USB_OTG_DIEPCTL_MPSIZ |
 693:Drivers/STM32F4xx_HAL_Driver/Src/stm32f4xx_ll_usb.c ****                                    USB_OTG_DIEPCTL_TXFNUM |
 694:Drivers/STM32F4xx_HAL_Driver/Src/stm32f4xx_ll_usb.c ****                                    USB_OTG_DIEPCTL_SD0PID_SEVNFRM |
 695:Drivers/STM32F4xx_HAL_Driver/Src/stm32f4xx_ll_usb.c ****                                    USB_OTG_DIEPCTL_EPTYP);
 696:Drivers/STM32F4xx_HAL_Driver/Src/stm32f4xx_ll_usb.c ****   }
 697:Drivers/STM32F4xx_HAL_Driver/Src/stm32f4xx_ll_usb.c ****   else
 698:Drivers/STM32F4xx_HAL_Driver/Src/stm32f4xx_ll_usb.c ****   {
 699:Drivers/STM32F4xx_HAL_Driver/Src/stm32f4xx_ll_usb.c ****     if ((USBx_OUTEP(epnum)->DOEPCTL & USB_OTG_DOEPCTL_EPENA) == USB_OTG_DOEPCTL_EPENA)
 700:Drivers/STM32F4xx_HAL_Driver/Src/stm32f4xx_ll_usb.c ****     {
 701:Drivers/STM32F4xx_HAL_Driver/Src/stm32f4xx_ll_usb.c ****       USBx_OUTEP(epnum)->DOEPCTL |= USB_OTG_DOEPCTL_SNAK;
 702:Drivers/STM32F4xx_HAL_Driver/Src/stm32f4xx_ll_usb.c ****       USBx_OUTEP(epnum)->DOEPCTL |= USB_OTG_DOEPCTL_EPDIS;
 703:Drivers/STM32F4xx_HAL_Driver/Src/stm32f4xx_ll_usb.c ****     }
 704:Drivers/STM32F4xx_HAL_Driver/Src/stm32f4xx_ll_usb.c **** 
 705:Drivers/STM32F4xx_HAL_Driver/Src/stm32f4xx_ll_usb.c ****     USBx_DEVICE->DEACHMSK &= ~(USB_OTG_DAINTMSK_OEPM & ((uint32_t)(1UL << (ep->num & EP_ADDR_MSK)) 
 706:Drivers/STM32F4xx_HAL_Driver/Src/stm32f4xx_ll_usb.c ****     USBx_DEVICE->DAINTMSK &= ~(USB_OTG_DAINTMSK_OEPM & ((uint32_t)(1UL << (ep->num & EP_ADDR_MSK)) 
 707:Drivers/STM32F4xx_HAL_Driver/Src/stm32f4xx_ll_usb.c ****     USBx_OUTEP(epnum)->DOEPCTL &= ~(USB_OTG_DOEPCTL_USBAEP |
 708:Drivers/STM32F4xx_HAL_Driver/Src/stm32f4xx_ll_usb.c ****                                     USB_OTG_DOEPCTL_MPSIZ |
 709:Drivers/STM32F4xx_HAL_Driver/Src/stm32f4xx_ll_usb.c ****                                     USB_OTG_DOEPCTL_SD0PID_SEVNFRM |
 710:Drivers/STM32F4xx_HAL_Driver/Src/stm32f4xx_ll_usb.c ****                                     USB_OTG_DOEPCTL_EPTYP);
 711:Drivers/STM32F4xx_HAL_Driver/Src/stm32f4xx_ll_usb.c ****   }
 712:Drivers/STM32F4xx_HAL_Driver/Src/stm32f4xx_ll_usb.c **** 
 713:Drivers/STM32F4xx_HAL_Driver/Src/stm32f4xx_ll_usb.c ****   return HAL_OK;
 714:Drivers/STM32F4xx_HAL_Driver/Src/stm32f4xx_ll_usb.c **** }
ARM GAS  /tmp/cc0ThgoX.s 			page 14


 715:Drivers/STM32F4xx_HAL_Driver/Src/stm32f4xx_ll_usb.c **** 
 716:Drivers/STM32F4xx_HAL_Driver/Src/stm32f4xx_ll_usb.c **** /**
 717:Drivers/STM32F4xx_HAL_Driver/Src/stm32f4xx_ll_usb.c ****   * @brief  De-activate and de-initialize a dedicated endpoint
 718:Drivers/STM32F4xx_HAL_Driver/Src/stm32f4xx_ll_usb.c ****   * @param  USBx  Selected device
 719:Drivers/STM32F4xx_HAL_Driver/Src/stm32f4xx_ll_usb.c ****   * @param  ep pointer to endpoint structure
 720:Drivers/STM32F4xx_HAL_Driver/Src/stm32f4xx_ll_usb.c ****   * @retval HAL status
 721:Drivers/STM32F4xx_HAL_Driver/Src/stm32f4xx_ll_usb.c ****   */
 722:Drivers/STM32F4xx_HAL_Driver/Src/stm32f4xx_ll_usb.c **** HAL_StatusTypeDef USB_DeactivateDedicatedEndpoint(const USB_OTG_GlobalTypeDef *USBx, const USB_OTG_
 723:Drivers/STM32F4xx_HAL_Driver/Src/stm32f4xx_ll_usb.c **** {
 724:Drivers/STM32F4xx_HAL_Driver/Src/stm32f4xx_ll_usb.c ****   uint32_t USBx_BASE = (uint32_t)USBx;
 725:Drivers/STM32F4xx_HAL_Driver/Src/stm32f4xx_ll_usb.c ****   uint32_t epnum = (uint32_t)ep->num;
 726:Drivers/STM32F4xx_HAL_Driver/Src/stm32f4xx_ll_usb.c **** 
 727:Drivers/STM32F4xx_HAL_Driver/Src/stm32f4xx_ll_usb.c ****   /* Read DEPCTLn register */
 728:Drivers/STM32F4xx_HAL_Driver/Src/stm32f4xx_ll_usb.c ****   if (ep->is_in == 1U)
 729:Drivers/STM32F4xx_HAL_Driver/Src/stm32f4xx_ll_usb.c ****   {
 730:Drivers/STM32F4xx_HAL_Driver/Src/stm32f4xx_ll_usb.c ****     if ((USBx_INEP(epnum)->DIEPCTL & USB_OTG_DIEPCTL_EPENA) == USB_OTG_DIEPCTL_EPENA)
 731:Drivers/STM32F4xx_HAL_Driver/Src/stm32f4xx_ll_usb.c ****     {
 732:Drivers/STM32F4xx_HAL_Driver/Src/stm32f4xx_ll_usb.c ****       USBx_INEP(epnum)->DIEPCTL  |= USB_OTG_DIEPCTL_SNAK;
 733:Drivers/STM32F4xx_HAL_Driver/Src/stm32f4xx_ll_usb.c ****       USBx_INEP(epnum)->DIEPCTL  |= USB_OTG_DIEPCTL_EPDIS;
 734:Drivers/STM32F4xx_HAL_Driver/Src/stm32f4xx_ll_usb.c ****     }
 735:Drivers/STM32F4xx_HAL_Driver/Src/stm32f4xx_ll_usb.c **** 
 736:Drivers/STM32F4xx_HAL_Driver/Src/stm32f4xx_ll_usb.c ****     USBx_INEP(epnum)->DIEPCTL &= ~ USB_OTG_DIEPCTL_USBAEP;
 737:Drivers/STM32F4xx_HAL_Driver/Src/stm32f4xx_ll_usb.c ****     USBx_DEVICE->DAINTMSK &= ~(USB_OTG_DAINTMSK_IEPM & (uint32_t)(1UL << (ep->num & EP_ADDR_MSK)));
 738:Drivers/STM32F4xx_HAL_Driver/Src/stm32f4xx_ll_usb.c ****   }
 739:Drivers/STM32F4xx_HAL_Driver/Src/stm32f4xx_ll_usb.c ****   else
 740:Drivers/STM32F4xx_HAL_Driver/Src/stm32f4xx_ll_usb.c ****   {
 741:Drivers/STM32F4xx_HAL_Driver/Src/stm32f4xx_ll_usb.c ****     if ((USBx_OUTEP(epnum)->DOEPCTL & USB_OTG_DOEPCTL_EPENA) == USB_OTG_DOEPCTL_EPENA)
 742:Drivers/STM32F4xx_HAL_Driver/Src/stm32f4xx_ll_usb.c ****     {
 743:Drivers/STM32F4xx_HAL_Driver/Src/stm32f4xx_ll_usb.c ****       USBx_OUTEP(epnum)->DOEPCTL  |= USB_OTG_DOEPCTL_SNAK;
 744:Drivers/STM32F4xx_HAL_Driver/Src/stm32f4xx_ll_usb.c ****       USBx_OUTEP(epnum)->DOEPCTL  |= USB_OTG_DOEPCTL_EPDIS;
 745:Drivers/STM32F4xx_HAL_Driver/Src/stm32f4xx_ll_usb.c ****     }
 746:Drivers/STM32F4xx_HAL_Driver/Src/stm32f4xx_ll_usb.c **** 
 747:Drivers/STM32F4xx_HAL_Driver/Src/stm32f4xx_ll_usb.c ****     USBx_OUTEP(epnum)->DOEPCTL &= ~USB_OTG_DOEPCTL_USBAEP;
 748:Drivers/STM32F4xx_HAL_Driver/Src/stm32f4xx_ll_usb.c ****     USBx_DEVICE->DAINTMSK &= ~(USB_OTG_DAINTMSK_OEPM & ((uint32_t)(1UL << (ep->num & EP_ADDR_MSK)) 
 749:Drivers/STM32F4xx_HAL_Driver/Src/stm32f4xx_ll_usb.c ****   }
 750:Drivers/STM32F4xx_HAL_Driver/Src/stm32f4xx_ll_usb.c **** 
 751:Drivers/STM32F4xx_HAL_Driver/Src/stm32f4xx_ll_usb.c ****   return HAL_OK;
 752:Drivers/STM32F4xx_HAL_Driver/Src/stm32f4xx_ll_usb.c **** }
 753:Drivers/STM32F4xx_HAL_Driver/Src/stm32f4xx_ll_usb.c **** 
 754:Drivers/STM32F4xx_HAL_Driver/Src/stm32f4xx_ll_usb.c **** /**
 755:Drivers/STM32F4xx_HAL_Driver/Src/stm32f4xx_ll_usb.c ****   * @brief  USB_EPStartXfer : setup and starts a transfer over an EP
 756:Drivers/STM32F4xx_HAL_Driver/Src/stm32f4xx_ll_usb.c ****   * @param  USBx  Selected device
 757:Drivers/STM32F4xx_HAL_Driver/Src/stm32f4xx_ll_usb.c ****   * @param  ep pointer to endpoint structure
 758:Drivers/STM32F4xx_HAL_Driver/Src/stm32f4xx_ll_usb.c ****   * @param  dma USB dma enabled or disabled
 759:Drivers/STM32F4xx_HAL_Driver/Src/stm32f4xx_ll_usb.c ****   *          This parameter can be one of these values:
 760:Drivers/STM32F4xx_HAL_Driver/Src/stm32f4xx_ll_usb.c ****   *           0 : DMA feature not used
 761:Drivers/STM32F4xx_HAL_Driver/Src/stm32f4xx_ll_usb.c ****   *           1 : DMA feature used
 762:Drivers/STM32F4xx_HAL_Driver/Src/stm32f4xx_ll_usb.c ****   * @retval HAL status
 763:Drivers/STM32F4xx_HAL_Driver/Src/stm32f4xx_ll_usb.c ****   */
 764:Drivers/STM32F4xx_HAL_Driver/Src/stm32f4xx_ll_usb.c **** HAL_StatusTypeDef USB_EPStartXfer(USB_OTG_GlobalTypeDef *USBx, USB_OTG_EPTypeDef *ep, uint8_t dma)
 765:Drivers/STM32F4xx_HAL_Driver/Src/stm32f4xx_ll_usb.c **** {
 766:Drivers/STM32F4xx_HAL_Driver/Src/stm32f4xx_ll_usb.c ****   uint32_t USBx_BASE = (uint32_t)USBx;
 767:Drivers/STM32F4xx_HAL_Driver/Src/stm32f4xx_ll_usb.c ****   uint32_t epnum = (uint32_t)ep->num;
 768:Drivers/STM32F4xx_HAL_Driver/Src/stm32f4xx_ll_usb.c ****   uint16_t pktcnt;
 769:Drivers/STM32F4xx_HAL_Driver/Src/stm32f4xx_ll_usb.c **** 
 770:Drivers/STM32F4xx_HAL_Driver/Src/stm32f4xx_ll_usb.c ****   /* IN endpoint */
 771:Drivers/STM32F4xx_HAL_Driver/Src/stm32f4xx_ll_usb.c ****   if (ep->is_in == 1U)
ARM GAS  /tmp/cc0ThgoX.s 			page 15


 772:Drivers/STM32F4xx_HAL_Driver/Src/stm32f4xx_ll_usb.c ****   {
 773:Drivers/STM32F4xx_HAL_Driver/Src/stm32f4xx_ll_usb.c ****     /* Zero Length Packet? */
 774:Drivers/STM32F4xx_HAL_Driver/Src/stm32f4xx_ll_usb.c ****     if (ep->xfer_len == 0U)
 775:Drivers/STM32F4xx_HAL_Driver/Src/stm32f4xx_ll_usb.c ****     {
 776:Drivers/STM32F4xx_HAL_Driver/Src/stm32f4xx_ll_usb.c ****       USBx_INEP(epnum)->DIEPTSIZ &= ~(USB_OTG_DIEPTSIZ_PKTCNT);
 777:Drivers/STM32F4xx_HAL_Driver/Src/stm32f4xx_ll_usb.c ****       USBx_INEP(epnum)->DIEPTSIZ |= (USB_OTG_DIEPTSIZ_PKTCNT & (1U << 19));
 778:Drivers/STM32F4xx_HAL_Driver/Src/stm32f4xx_ll_usb.c ****       USBx_INEP(epnum)->DIEPTSIZ &= ~(USB_OTG_DIEPTSIZ_XFRSIZ);
 779:Drivers/STM32F4xx_HAL_Driver/Src/stm32f4xx_ll_usb.c ****     }
 780:Drivers/STM32F4xx_HAL_Driver/Src/stm32f4xx_ll_usb.c ****     else
 781:Drivers/STM32F4xx_HAL_Driver/Src/stm32f4xx_ll_usb.c ****     {
 782:Drivers/STM32F4xx_HAL_Driver/Src/stm32f4xx_ll_usb.c ****       /* Program the transfer size and packet count
 783:Drivers/STM32F4xx_HAL_Driver/Src/stm32f4xx_ll_usb.c ****       * as follows: xfersize = N * maxpacket +
 784:Drivers/STM32F4xx_HAL_Driver/Src/stm32f4xx_ll_usb.c ****       * short_packet pktcnt = N + (short_packet
 785:Drivers/STM32F4xx_HAL_Driver/Src/stm32f4xx_ll_usb.c ****       * exist ? 1 : 0)
 786:Drivers/STM32F4xx_HAL_Driver/Src/stm32f4xx_ll_usb.c ****       */
 787:Drivers/STM32F4xx_HAL_Driver/Src/stm32f4xx_ll_usb.c ****       USBx_INEP(epnum)->DIEPTSIZ &= ~(USB_OTG_DIEPTSIZ_XFRSIZ);
 788:Drivers/STM32F4xx_HAL_Driver/Src/stm32f4xx_ll_usb.c ****       USBx_INEP(epnum)->DIEPTSIZ &= ~(USB_OTG_DIEPTSIZ_PKTCNT);
 789:Drivers/STM32F4xx_HAL_Driver/Src/stm32f4xx_ll_usb.c **** 
 790:Drivers/STM32F4xx_HAL_Driver/Src/stm32f4xx_ll_usb.c ****       if (epnum == 0U)
 791:Drivers/STM32F4xx_HAL_Driver/Src/stm32f4xx_ll_usb.c ****       {
 792:Drivers/STM32F4xx_HAL_Driver/Src/stm32f4xx_ll_usb.c ****         if (ep->xfer_len > ep->maxpacket)
 793:Drivers/STM32F4xx_HAL_Driver/Src/stm32f4xx_ll_usb.c ****         {
 794:Drivers/STM32F4xx_HAL_Driver/Src/stm32f4xx_ll_usb.c ****           ep->xfer_len = ep->maxpacket;
 795:Drivers/STM32F4xx_HAL_Driver/Src/stm32f4xx_ll_usb.c ****         }
 796:Drivers/STM32F4xx_HAL_Driver/Src/stm32f4xx_ll_usb.c **** 
 797:Drivers/STM32F4xx_HAL_Driver/Src/stm32f4xx_ll_usb.c ****         USBx_INEP(epnum)->DIEPTSIZ |= (USB_OTG_DIEPTSIZ_PKTCNT & (1U << 19));
 798:Drivers/STM32F4xx_HAL_Driver/Src/stm32f4xx_ll_usb.c ****       }
 799:Drivers/STM32F4xx_HAL_Driver/Src/stm32f4xx_ll_usb.c ****       else
 800:Drivers/STM32F4xx_HAL_Driver/Src/stm32f4xx_ll_usb.c ****       {
 801:Drivers/STM32F4xx_HAL_Driver/Src/stm32f4xx_ll_usb.c ****         pktcnt = (uint16_t)((ep->xfer_len + ep->maxpacket - 1U) / ep->maxpacket);
 802:Drivers/STM32F4xx_HAL_Driver/Src/stm32f4xx_ll_usb.c ****         USBx_INEP(epnum)->DIEPTSIZ |= (USB_OTG_DIEPTSIZ_PKTCNT & ((uint32_t)pktcnt << 19));
 803:Drivers/STM32F4xx_HAL_Driver/Src/stm32f4xx_ll_usb.c **** 
 804:Drivers/STM32F4xx_HAL_Driver/Src/stm32f4xx_ll_usb.c ****         if (ep->type == EP_TYPE_ISOC)
 805:Drivers/STM32F4xx_HAL_Driver/Src/stm32f4xx_ll_usb.c ****         {
 806:Drivers/STM32F4xx_HAL_Driver/Src/stm32f4xx_ll_usb.c ****           USBx_INEP(epnum)->DIEPTSIZ &= ~(USB_OTG_DIEPTSIZ_MULCNT);
 807:Drivers/STM32F4xx_HAL_Driver/Src/stm32f4xx_ll_usb.c ****           USBx_INEP(epnum)->DIEPTSIZ |= (USB_OTG_DIEPTSIZ_MULCNT & ((uint32_t)pktcnt << 29));
 808:Drivers/STM32F4xx_HAL_Driver/Src/stm32f4xx_ll_usb.c ****         }
 809:Drivers/STM32F4xx_HAL_Driver/Src/stm32f4xx_ll_usb.c ****       }
 810:Drivers/STM32F4xx_HAL_Driver/Src/stm32f4xx_ll_usb.c **** 
 811:Drivers/STM32F4xx_HAL_Driver/Src/stm32f4xx_ll_usb.c ****       USBx_INEP(epnum)->DIEPTSIZ |= (USB_OTG_DIEPTSIZ_XFRSIZ & ep->xfer_len);
 812:Drivers/STM32F4xx_HAL_Driver/Src/stm32f4xx_ll_usb.c ****     }
 813:Drivers/STM32F4xx_HAL_Driver/Src/stm32f4xx_ll_usb.c **** 
 814:Drivers/STM32F4xx_HAL_Driver/Src/stm32f4xx_ll_usb.c ****     if (dma == 1U)
 815:Drivers/STM32F4xx_HAL_Driver/Src/stm32f4xx_ll_usb.c ****     {
 816:Drivers/STM32F4xx_HAL_Driver/Src/stm32f4xx_ll_usb.c ****       if ((uint32_t)ep->dma_addr != 0U)
 817:Drivers/STM32F4xx_HAL_Driver/Src/stm32f4xx_ll_usb.c ****       {
 818:Drivers/STM32F4xx_HAL_Driver/Src/stm32f4xx_ll_usb.c ****         USBx_INEP(epnum)->DIEPDMA = (uint32_t)(ep->dma_addr);
 819:Drivers/STM32F4xx_HAL_Driver/Src/stm32f4xx_ll_usb.c ****       }
 820:Drivers/STM32F4xx_HAL_Driver/Src/stm32f4xx_ll_usb.c **** 
 821:Drivers/STM32F4xx_HAL_Driver/Src/stm32f4xx_ll_usb.c ****       if (ep->type == EP_TYPE_ISOC)
 822:Drivers/STM32F4xx_HAL_Driver/Src/stm32f4xx_ll_usb.c ****       {
 823:Drivers/STM32F4xx_HAL_Driver/Src/stm32f4xx_ll_usb.c ****         if ((USBx_DEVICE->DSTS & (1U << 8)) == 0U)
 824:Drivers/STM32F4xx_HAL_Driver/Src/stm32f4xx_ll_usb.c ****         {
 825:Drivers/STM32F4xx_HAL_Driver/Src/stm32f4xx_ll_usb.c ****           USBx_INEP(epnum)->DIEPCTL |= USB_OTG_DIEPCTL_SODDFRM;
 826:Drivers/STM32F4xx_HAL_Driver/Src/stm32f4xx_ll_usb.c ****         }
 827:Drivers/STM32F4xx_HAL_Driver/Src/stm32f4xx_ll_usb.c ****         else
 828:Drivers/STM32F4xx_HAL_Driver/Src/stm32f4xx_ll_usb.c ****         {
ARM GAS  /tmp/cc0ThgoX.s 			page 16


 829:Drivers/STM32F4xx_HAL_Driver/Src/stm32f4xx_ll_usb.c ****           USBx_INEP(epnum)->DIEPCTL |= USB_OTG_DIEPCTL_SD0PID_SEVNFRM;
 830:Drivers/STM32F4xx_HAL_Driver/Src/stm32f4xx_ll_usb.c ****         }
 831:Drivers/STM32F4xx_HAL_Driver/Src/stm32f4xx_ll_usb.c ****       }
 832:Drivers/STM32F4xx_HAL_Driver/Src/stm32f4xx_ll_usb.c **** 
 833:Drivers/STM32F4xx_HAL_Driver/Src/stm32f4xx_ll_usb.c ****       /* EP enable, IN data in FIFO */
 834:Drivers/STM32F4xx_HAL_Driver/Src/stm32f4xx_ll_usb.c ****       USBx_INEP(epnum)->DIEPCTL |= (USB_OTG_DIEPCTL_CNAK | USB_OTG_DIEPCTL_EPENA);
 835:Drivers/STM32F4xx_HAL_Driver/Src/stm32f4xx_ll_usb.c ****     }
 836:Drivers/STM32F4xx_HAL_Driver/Src/stm32f4xx_ll_usb.c ****     else
 837:Drivers/STM32F4xx_HAL_Driver/Src/stm32f4xx_ll_usb.c ****     {
 838:Drivers/STM32F4xx_HAL_Driver/Src/stm32f4xx_ll_usb.c ****       /* EP enable, IN data in FIFO */
 839:Drivers/STM32F4xx_HAL_Driver/Src/stm32f4xx_ll_usb.c ****       USBx_INEP(epnum)->DIEPCTL |= (USB_OTG_DIEPCTL_CNAK | USB_OTG_DIEPCTL_EPENA);
 840:Drivers/STM32F4xx_HAL_Driver/Src/stm32f4xx_ll_usb.c **** 
 841:Drivers/STM32F4xx_HAL_Driver/Src/stm32f4xx_ll_usb.c ****       if (ep->type != EP_TYPE_ISOC)
 842:Drivers/STM32F4xx_HAL_Driver/Src/stm32f4xx_ll_usb.c ****       {
 843:Drivers/STM32F4xx_HAL_Driver/Src/stm32f4xx_ll_usb.c ****         /* Enable the Tx FIFO Empty Interrupt for this EP */
 844:Drivers/STM32F4xx_HAL_Driver/Src/stm32f4xx_ll_usb.c ****         if (ep->xfer_len > 0U)
 845:Drivers/STM32F4xx_HAL_Driver/Src/stm32f4xx_ll_usb.c ****         {
 846:Drivers/STM32F4xx_HAL_Driver/Src/stm32f4xx_ll_usb.c ****           USBx_DEVICE->DIEPEMPMSK |= 1UL << (ep->num & EP_ADDR_MSK);
 847:Drivers/STM32F4xx_HAL_Driver/Src/stm32f4xx_ll_usb.c ****         }
 848:Drivers/STM32F4xx_HAL_Driver/Src/stm32f4xx_ll_usb.c ****       }
 849:Drivers/STM32F4xx_HAL_Driver/Src/stm32f4xx_ll_usb.c ****       else
 850:Drivers/STM32F4xx_HAL_Driver/Src/stm32f4xx_ll_usb.c ****       {
 851:Drivers/STM32F4xx_HAL_Driver/Src/stm32f4xx_ll_usb.c ****         if ((USBx_DEVICE->DSTS & (1U << 8)) == 0U)
 852:Drivers/STM32F4xx_HAL_Driver/Src/stm32f4xx_ll_usb.c ****         {
 853:Drivers/STM32F4xx_HAL_Driver/Src/stm32f4xx_ll_usb.c ****           USBx_INEP(epnum)->DIEPCTL |= USB_OTG_DIEPCTL_SODDFRM;
 854:Drivers/STM32F4xx_HAL_Driver/Src/stm32f4xx_ll_usb.c ****         }
 855:Drivers/STM32F4xx_HAL_Driver/Src/stm32f4xx_ll_usb.c ****         else
 856:Drivers/STM32F4xx_HAL_Driver/Src/stm32f4xx_ll_usb.c ****         {
 857:Drivers/STM32F4xx_HAL_Driver/Src/stm32f4xx_ll_usb.c ****           USBx_INEP(epnum)->DIEPCTL |= USB_OTG_DIEPCTL_SD0PID_SEVNFRM;
 858:Drivers/STM32F4xx_HAL_Driver/Src/stm32f4xx_ll_usb.c ****         }
 859:Drivers/STM32F4xx_HAL_Driver/Src/stm32f4xx_ll_usb.c **** 
 860:Drivers/STM32F4xx_HAL_Driver/Src/stm32f4xx_ll_usb.c ****         (void)USB_WritePacket(USBx, ep->xfer_buff, ep->num, (uint16_t)ep->xfer_len, dma);
 861:Drivers/STM32F4xx_HAL_Driver/Src/stm32f4xx_ll_usb.c ****       }
 862:Drivers/STM32F4xx_HAL_Driver/Src/stm32f4xx_ll_usb.c ****     }
 863:Drivers/STM32F4xx_HAL_Driver/Src/stm32f4xx_ll_usb.c ****   }
 864:Drivers/STM32F4xx_HAL_Driver/Src/stm32f4xx_ll_usb.c ****   else /* OUT endpoint */
 865:Drivers/STM32F4xx_HAL_Driver/Src/stm32f4xx_ll_usb.c ****   {
 866:Drivers/STM32F4xx_HAL_Driver/Src/stm32f4xx_ll_usb.c ****     /* Program the transfer size and packet count as follows:
 867:Drivers/STM32F4xx_HAL_Driver/Src/stm32f4xx_ll_usb.c ****     * pktcnt = N
 868:Drivers/STM32F4xx_HAL_Driver/Src/stm32f4xx_ll_usb.c ****     * xfersize = N * maxpacket
 869:Drivers/STM32F4xx_HAL_Driver/Src/stm32f4xx_ll_usb.c ****     */
 870:Drivers/STM32F4xx_HAL_Driver/Src/stm32f4xx_ll_usb.c ****     USBx_OUTEP(epnum)->DOEPTSIZ &= ~(USB_OTG_DOEPTSIZ_XFRSIZ);
 871:Drivers/STM32F4xx_HAL_Driver/Src/stm32f4xx_ll_usb.c ****     USBx_OUTEP(epnum)->DOEPTSIZ &= ~(USB_OTG_DOEPTSIZ_PKTCNT);
 872:Drivers/STM32F4xx_HAL_Driver/Src/stm32f4xx_ll_usb.c **** 
 873:Drivers/STM32F4xx_HAL_Driver/Src/stm32f4xx_ll_usb.c ****     if (epnum == 0U)
 874:Drivers/STM32F4xx_HAL_Driver/Src/stm32f4xx_ll_usb.c ****     {
 875:Drivers/STM32F4xx_HAL_Driver/Src/stm32f4xx_ll_usb.c ****       if (ep->xfer_len > 0U)
 876:Drivers/STM32F4xx_HAL_Driver/Src/stm32f4xx_ll_usb.c ****       {
 877:Drivers/STM32F4xx_HAL_Driver/Src/stm32f4xx_ll_usb.c ****         ep->xfer_len = ep->maxpacket;
 878:Drivers/STM32F4xx_HAL_Driver/Src/stm32f4xx_ll_usb.c ****       }
 879:Drivers/STM32F4xx_HAL_Driver/Src/stm32f4xx_ll_usb.c **** 
 880:Drivers/STM32F4xx_HAL_Driver/Src/stm32f4xx_ll_usb.c ****       /* Store transfer size, for EP0 this is equal to endpoint max packet size */
 881:Drivers/STM32F4xx_HAL_Driver/Src/stm32f4xx_ll_usb.c ****       ep->xfer_size = ep->maxpacket;
 882:Drivers/STM32F4xx_HAL_Driver/Src/stm32f4xx_ll_usb.c **** 
 883:Drivers/STM32F4xx_HAL_Driver/Src/stm32f4xx_ll_usb.c ****       USBx_OUTEP(epnum)->DOEPTSIZ |= (USB_OTG_DOEPTSIZ_XFRSIZ & ep->xfer_size);
 884:Drivers/STM32F4xx_HAL_Driver/Src/stm32f4xx_ll_usb.c ****       USBx_OUTEP(epnum)->DOEPTSIZ |= (USB_OTG_DOEPTSIZ_PKTCNT & (1U << 19));
 885:Drivers/STM32F4xx_HAL_Driver/Src/stm32f4xx_ll_usb.c ****     }
ARM GAS  /tmp/cc0ThgoX.s 			page 17


 886:Drivers/STM32F4xx_HAL_Driver/Src/stm32f4xx_ll_usb.c ****     else
 887:Drivers/STM32F4xx_HAL_Driver/Src/stm32f4xx_ll_usb.c ****     {
 888:Drivers/STM32F4xx_HAL_Driver/Src/stm32f4xx_ll_usb.c ****       if (ep->xfer_len == 0U)
 889:Drivers/STM32F4xx_HAL_Driver/Src/stm32f4xx_ll_usb.c ****       {
 890:Drivers/STM32F4xx_HAL_Driver/Src/stm32f4xx_ll_usb.c ****         USBx_OUTEP(epnum)->DOEPTSIZ |= (USB_OTG_DOEPTSIZ_XFRSIZ & ep->maxpacket);
 891:Drivers/STM32F4xx_HAL_Driver/Src/stm32f4xx_ll_usb.c ****         USBx_OUTEP(epnum)->DOEPTSIZ |= (USB_OTG_DOEPTSIZ_PKTCNT & (1U << 19));
 892:Drivers/STM32F4xx_HAL_Driver/Src/stm32f4xx_ll_usb.c ****       }
 893:Drivers/STM32F4xx_HAL_Driver/Src/stm32f4xx_ll_usb.c ****       else
 894:Drivers/STM32F4xx_HAL_Driver/Src/stm32f4xx_ll_usb.c ****       {
 895:Drivers/STM32F4xx_HAL_Driver/Src/stm32f4xx_ll_usb.c ****         pktcnt = (uint16_t)((ep->xfer_len + ep->maxpacket - 1U) / ep->maxpacket);
 896:Drivers/STM32F4xx_HAL_Driver/Src/stm32f4xx_ll_usb.c ****         ep->xfer_size = ep->maxpacket * pktcnt;
 897:Drivers/STM32F4xx_HAL_Driver/Src/stm32f4xx_ll_usb.c **** 
 898:Drivers/STM32F4xx_HAL_Driver/Src/stm32f4xx_ll_usb.c ****         USBx_OUTEP(epnum)->DOEPTSIZ |= USB_OTG_DOEPTSIZ_PKTCNT & ((uint32_t)pktcnt << 19);
 899:Drivers/STM32F4xx_HAL_Driver/Src/stm32f4xx_ll_usb.c ****         USBx_OUTEP(epnum)->DOEPTSIZ |= USB_OTG_DOEPTSIZ_XFRSIZ & ep->xfer_size;
 900:Drivers/STM32F4xx_HAL_Driver/Src/stm32f4xx_ll_usb.c ****       }
 901:Drivers/STM32F4xx_HAL_Driver/Src/stm32f4xx_ll_usb.c ****     }
 902:Drivers/STM32F4xx_HAL_Driver/Src/stm32f4xx_ll_usb.c **** 
 903:Drivers/STM32F4xx_HAL_Driver/Src/stm32f4xx_ll_usb.c ****     if (dma == 1U)
 904:Drivers/STM32F4xx_HAL_Driver/Src/stm32f4xx_ll_usb.c ****     {
 905:Drivers/STM32F4xx_HAL_Driver/Src/stm32f4xx_ll_usb.c ****       if ((uint32_t)ep->xfer_buff != 0U)
 906:Drivers/STM32F4xx_HAL_Driver/Src/stm32f4xx_ll_usb.c ****       {
 907:Drivers/STM32F4xx_HAL_Driver/Src/stm32f4xx_ll_usb.c ****         USBx_OUTEP(epnum)->DOEPDMA = (uint32_t)(ep->xfer_buff);
 908:Drivers/STM32F4xx_HAL_Driver/Src/stm32f4xx_ll_usb.c ****       }
 909:Drivers/STM32F4xx_HAL_Driver/Src/stm32f4xx_ll_usb.c ****     }
 910:Drivers/STM32F4xx_HAL_Driver/Src/stm32f4xx_ll_usb.c **** 
 911:Drivers/STM32F4xx_HAL_Driver/Src/stm32f4xx_ll_usb.c ****     if (ep->type == EP_TYPE_ISOC)
 912:Drivers/STM32F4xx_HAL_Driver/Src/stm32f4xx_ll_usb.c ****     {
 913:Drivers/STM32F4xx_HAL_Driver/Src/stm32f4xx_ll_usb.c ****       if ((USBx_DEVICE->DSTS & (1U << 8)) == 0U)
 914:Drivers/STM32F4xx_HAL_Driver/Src/stm32f4xx_ll_usb.c ****       {
 915:Drivers/STM32F4xx_HAL_Driver/Src/stm32f4xx_ll_usb.c ****         USBx_OUTEP(epnum)->DOEPCTL |= USB_OTG_DOEPCTL_SODDFRM;
 916:Drivers/STM32F4xx_HAL_Driver/Src/stm32f4xx_ll_usb.c ****       }
 917:Drivers/STM32F4xx_HAL_Driver/Src/stm32f4xx_ll_usb.c ****       else
 918:Drivers/STM32F4xx_HAL_Driver/Src/stm32f4xx_ll_usb.c ****       {
 919:Drivers/STM32F4xx_HAL_Driver/Src/stm32f4xx_ll_usb.c ****         USBx_OUTEP(epnum)->DOEPCTL |= USB_OTG_DOEPCTL_SD0PID_SEVNFRM;
 920:Drivers/STM32F4xx_HAL_Driver/Src/stm32f4xx_ll_usb.c ****       }
 921:Drivers/STM32F4xx_HAL_Driver/Src/stm32f4xx_ll_usb.c ****     }
 922:Drivers/STM32F4xx_HAL_Driver/Src/stm32f4xx_ll_usb.c ****     /* EP enable */
 923:Drivers/STM32F4xx_HAL_Driver/Src/stm32f4xx_ll_usb.c ****     USBx_OUTEP(epnum)->DOEPCTL |= (USB_OTG_DOEPCTL_CNAK | USB_OTG_DOEPCTL_EPENA);
 924:Drivers/STM32F4xx_HAL_Driver/Src/stm32f4xx_ll_usb.c ****   }
 925:Drivers/STM32F4xx_HAL_Driver/Src/stm32f4xx_ll_usb.c **** 
 926:Drivers/STM32F4xx_HAL_Driver/Src/stm32f4xx_ll_usb.c ****   return HAL_OK;
 927:Drivers/STM32F4xx_HAL_Driver/Src/stm32f4xx_ll_usb.c **** }
 928:Drivers/STM32F4xx_HAL_Driver/Src/stm32f4xx_ll_usb.c **** 
 929:Drivers/STM32F4xx_HAL_Driver/Src/stm32f4xx_ll_usb.c **** 
 930:Drivers/STM32F4xx_HAL_Driver/Src/stm32f4xx_ll_usb.c **** /**
 931:Drivers/STM32F4xx_HAL_Driver/Src/stm32f4xx_ll_usb.c ****    * @brief  USB_EPStoptXfer  Stop transfer on an EP
 932:Drivers/STM32F4xx_HAL_Driver/Src/stm32f4xx_ll_usb.c ****    * @param  USBx  usb device instance
 933:Drivers/STM32F4xx_HAL_Driver/Src/stm32f4xx_ll_usb.c ****    * @param  ep pointer to endpoint structure
 934:Drivers/STM32F4xx_HAL_Driver/Src/stm32f4xx_ll_usb.c ****    * @retval HAL status
 935:Drivers/STM32F4xx_HAL_Driver/Src/stm32f4xx_ll_usb.c ****    */
 936:Drivers/STM32F4xx_HAL_Driver/Src/stm32f4xx_ll_usb.c **** HAL_StatusTypeDef USB_EPStopXfer(const USB_OTG_GlobalTypeDef *USBx, USB_OTG_EPTypeDef *ep)
 937:Drivers/STM32F4xx_HAL_Driver/Src/stm32f4xx_ll_usb.c **** {
 938:Drivers/STM32F4xx_HAL_Driver/Src/stm32f4xx_ll_usb.c ****   __IO uint32_t count = 0U;
 939:Drivers/STM32F4xx_HAL_Driver/Src/stm32f4xx_ll_usb.c ****   HAL_StatusTypeDef ret = HAL_OK;
 940:Drivers/STM32F4xx_HAL_Driver/Src/stm32f4xx_ll_usb.c ****   uint32_t USBx_BASE = (uint32_t)USBx;
 941:Drivers/STM32F4xx_HAL_Driver/Src/stm32f4xx_ll_usb.c **** 
 942:Drivers/STM32F4xx_HAL_Driver/Src/stm32f4xx_ll_usb.c ****   /* IN endpoint */
ARM GAS  /tmp/cc0ThgoX.s 			page 18


 943:Drivers/STM32F4xx_HAL_Driver/Src/stm32f4xx_ll_usb.c ****   if (ep->is_in == 1U)
 944:Drivers/STM32F4xx_HAL_Driver/Src/stm32f4xx_ll_usb.c ****   {
 945:Drivers/STM32F4xx_HAL_Driver/Src/stm32f4xx_ll_usb.c ****     /* EP enable, IN data in FIFO */
 946:Drivers/STM32F4xx_HAL_Driver/Src/stm32f4xx_ll_usb.c ****     if (((USBx_INEP(ep->num)->DIEPCTL) & USB_OTG_DIEPCTL_EPENA) == USB_OTG_DIEPCTL_EPENA)
 947:Drivers/STM32F4xx_HAL_Driver/Src/stm32f4xx_ll_usb.c ****     {
 948:Drivers/STM32F4xx_HAL_Driver/Src/stm32f4xx_ll_usb.c ****       USBx_INEP(ep->num)->DIEPCTL |= (USB_OTG_DIEPCTL_SNAK);
 949:Drivers/STM32F4xx_HAL_Driver/Src/stm32f4xx_ll_usb.c ****       USBx_INEP(ep->num)->DIEPCTL |= (USB_OTG_DIEPCTL_EPDIS);
 950:Drivers/STM32F4xx_HAL_Driver/Src/stm32f4xx_ll_usb.c **** 
 951:Drivers/STM32F4xx_HAL_Driver/Src/stm32f4xx_ll_usb.c ****       do
 952:Drivers/STM32F4xx_HAL_Driver/Src/stm32f4xx_ll_usb.c ****       {
 953:Drivers/STM32F4xx_HAL_Driver/Src/stm32f4xx_ll_usb.c ****         count++;
 954:Drivers/STM32F4xx_HAL_Driver/Src/stm32f4xx_ll_usb.c **** 
 955:Drivers/STM32F4xx_HAL_Driver/Src/stm32f4xx_ll_usb.c ****         if (count > 10000U)
 956:Drivers/STM32F4xx_HAL_Driver/Src/stm32f4xx_ll_usb.c ****         {
 957:Drivers/STM32F4xx_HAL_Driver/Src/stm32f4xx_ll_usb.c ****           ret = HAL_ERROR;
 958:Drivers/STM32F4xx_HAL_Driver/Src/stm32f4xx_ll_usb.c ****           break;
 959:Drivers/STM32F4xx_HAL_Driver/Src/stm32f4xx_ll_usb.c ****         }
 960:Drivers/STM32F4xx_HAL_Driver/Src/stm32f4xx_ll_usb.c ****       } while (((USBx_INEP(ep->num)->DIEPCTL) & USB_OTG_DIEPCTL_EPENA) ==  USB_OTG_DIEPCTL_EPENA);
 961:Drivers/STM32F4xx_HAL_Driver/Src/stm32f4xx_ll_usb.c ****     }
 962:Drivers/STM32F4xx_HAL_Driver/Src/stm32f4xx_ll_usb.c ****   }
 963:Drivers/STM32F4xx_HAL_Driver/Src/stm32f4xx_ll_usb.c ****   else /* OUT endpoint */
 964:Drivers/STM32F4xx_HAL_Driver/Src/stm32f4xx_ll_usb.c ****   {
 965:Drivers/STM32F4xx_HAL_Driver/Src/stm32f4xx_ll_usb.c ****     if (((USBx_OUTEP(ep->num)->DOEPCTL) & USB_OTG_DOEPCTL_EPENA) == USB_OTG_DOEPCTL_EPENA)
 966:Drivers/STM32F4xx_HAL_Driver/Src/stm32f4xx_ll_usb.c ****     {
 967:Drivers/STM32F4xx_HAL_Driver/Src/stm32f4xx_ll_usb.c ****       USBx_OUTEP(ep->num)->DOEPCTL |= (USB_OTG_DOEPCTL_SNAK);
 968:Drivers/STM32F4xx_HAL_Driver/Src/stm32f4xx_ll_usb.c ****       USBx_OUTEP(ep->num)->DOEPCTL |= (USB_OTG_DOEPCTL_EPDIS);
 969:Drivers/STM32F4xx_HAL_Driver/Src/stm32f4xx_ll_usb.c **** 
 970:Drivers/STM32F4xx_HAL_Driver/Src/stm32f4xx_ll_usb.c ****       do
 971:Drivers/STM32F4xx_HAL_Driver/Src/stm32f4xx_ll_usb.c ****       {
 972:Drivers/STM32F4xx_HAL_Driver/Src/stm32f4xx_ll_usb.c ****         count++;
 973:Drivers/STM32F4xx_HAL_Driver/Src/stm32f4xx_ll_usb.c **** 
 974:Drivers/STM32F4xx_HAL_Driver/Src/stm32f4xx_ll_usb.c ****         if (count > 10000U)
 975:Drivers/STM32F4xx_HAL_Driver/Src/stm32f4xx_ll_usb.c ****         {
 976:Drivers/STM32F4xx_HAL_Driver/Src/stm32f4xx_ll_usb.c ****           ret = HAL_ERROR;
 977:Drivers/STM32F4xx_HAL_Driver/Src/stm32f4xx_ll_usb.c ****           break;
 978:Drivers/STM32F4xx_HAL_Driver/Src/stm32f4xx_ll_usb.c ****         }
 979:Drivers/STM32F4xx_HAL_Driver/Src/stm32f4xx_ll_usb.c ****       } while (((USBx_OUTEP(ep->num)->DOEPCTL) & USB_OTG_DOEPCTL_EPENA) ==  USB_OTG_DOEPCTL_EPENA);
 980:Drivers/STM32F4xx_HAL_Driver/Src/stm32f4xx_ll_usb.c ****     }
 981:Drivers/STM32F4xx_HAL_Driver/Src/stm32f4xx_ll_usb.c ****   }
 982:Drivers/STM32F4xx_HAL_Driver/Src/stm32f4xx_ll_usb.c **** 
 983:Drivers/STM32F4xx_HAL_Driver/Src/stm32f4xx_ll_usb.c ****   return ret;
 984:Drivers/STM32F4xx_HAL_Driver/Src/stm32f4xx_ll_usb.c **** }
 985:Drivers/STM32F4xx_HAL_Driver/Src/stm32f4xx_ll_usb.c **** 
 986:Drivers/STM32F4xx_HAL_Driver/Src/stm32f4xx_ll_usb.c **** 
 987:Drivers/STM32F4xx_HAL_Driver/Src/stm32f4xx_ll_usb.c **** /**
 988:Drivers/STM32F4xx_HAL_Driver/Src/stm32f4xx_ll_usb.c ****   * @brief  USB_WritePacket : Writes a packet into the Tx FIFO associated
 989:Drivers/STM32F4xx_HAL_Driver/Src/stm32f4xx_ll_usb.c ****   *         with the EP/channel
 990:Drivers/STM32F4xx_HAL_Driver/Src/stm32f4xx_ll_usb.c ****   * @param  USBx  Selected device
 991:Drivers/STM32F4xx_HAL_Driver/Src/stm32f4xx_ll_usb.c ****   * @param  src   pointer to source buffer
 992:Drivers/STM32F4xx_HAL_Driver/Src/stm32f4xx_ll_usb.c ****   * @param  ch_ep_num  endpoint or host channel number
 993:Drivers/STM32F4xx_HAL_Driver/Src/stm32f4xx_ll_usb.c ****   * @param  len  Number of bytes to write
 994:Drivers/STM32F4xx_HAL_Driver/Src/stm32f4xx_ll_usb.c ****   * @param  dma USB dma enabled or disabled
 995:Drivers/STM32F4xx_HAL_Driver/Src/stm32f4xx_ll_usb.c ****   *          This parameter can be one of these values:
 996:Drivers/STM32F4xx_HAL_Driver/Src/stm32f4xx_ll_usb.c ****   *           0 : DMA feature not used
 997:Drivers/STM32F4xx_HAL_Driver/Src/stm32f4xx_ll_usb.c ****   *           1 : DMA feature used
 998:Drivers/STM32F4xx_HAL_Driver/Src/stm32f4xx_ll_usb.c ****   * @retval HAL status
 999:Drivers/STM32F4xx_HAL_Driver/Src/stm32f4xx_ll_usb.c ****   */
ARM GAS  /tmp/cc0ThgoX.s 			page 19


1000:Drivers/STM32F4xx_HAL_Driver/Src/stm32f4xx_ll_usb.c **** HAL_StatusTypeDef USB_WritePacket(const USB_OTG_GlobalTypeDef *USBx, uint8_t *src,
1001:Drivers/STM32F4xx_HAL_Driver/Src/stm32f4xx_ll_usb.c ****                                   uint8_t ch_ep_num, uint16_t len, uint8_t dma)
1002:Drivers/STM32F4xx_HAL_Driver/Src/stm32f4xx_ll_usb.c **** {
1003:Drivers/STM32F4xx_HAL_Driver/Src/stm32f4xx_ll_usb.c ****   uint32_t USBx_BASE = (uint32_t)USBx;
1004:Drivers/STM32F4xx_HAL_Driver/Src/stm32f4xx_ll_usb.c ****   uint8_t *pSrc = src;
1005:Drivers/STM32F4xx_HAL_Driver/Src/stm32f4xx_ll_usb.c ****   uint32_t count32b;
1006:Drivers/STM32F4xx_HAL_Driver/Src/stm32f4xx_ll_usb.c ****   uint32_t i;
1007:Drivers/STM32F4xx_HAL_Driver/Src/stm32f4xx_ll_usb.c **** 
1008:Drivers/STM32F4xx_HAL_Driver/Src/stm32f4xx_ll_usb.c ****   if (dma == 0U)
1009:Drivers/STM32F4xx_HAL_Driver/Src/stm32f4xx_ll_usb.c ****   {
1010:Drivers/STM32F4xx_HAL_Driver/Src/stm32f4xx_ll_usb.c ****     count32b = ((uint32_t)len + 3U) / 4U;
1011:Drivers/STM32F4xx_HAL_Driver/Src/stm32f4xx_ll_usb.c ****     for (i = 0U; i < count32b; i++)
1012:Drivers/STM32F4xx_HAL_Driver/Src/stm32f4xx_ll_usb.c ****     {
1013:Drivers/STM32F4xx_HAL_Driver/Src/stm32f4xx_ll_usb.c ****       USBx_DFIFO((uint32_t)ch_ep_num) = __UNALIGNED_UINT32_READ(pSrc);
1014:Drivers/STM32F4xx_HAL_Driver/Src/stm32f4xx_ll_usb.c ****       pSrc++;
1015:Drivers/STM32F4xx_HAL_Driver/Src/stm32f4xx_ll_usb.c ****       pSrc++;
1016:Drivers/STM32F4xx_HAL_Driver/Src/stm32f4xx_ll_usb.c ****       pSrc++;
1017:Drivers/STM32F4xx_HAL_Driver/Src/stm32f4xx_ll_usb.c ****       pSrc++;
1018:Drivers/STM32F4xx_HAL_Driver/Src/stm32f4xx_ll_usb.c ****     }
1019:Drivers/STM32F4xx_HAL_Driver/Src/stm32f4xx_ll_usb.c ****   }
1020:Drivers/STM32F4xx_HAL_Driver/Src/stm32f4xx_ll_usb.c **** 
1021:Drivers/STM32F4xx_HAL_Driver/Src/stm32f4xx_ll_usb.c ****   return HAL_OK;
1022:Drivers/STM32F4xx_HAL_Driver/Src/stm32f4xx_ll_usb.c **** }
1023:Drivers/STM32F4xx_HAL_Driver/Src/stm32f4xx_ll_usb.c **** 
1024:Drivers/STM32F4xx_HAL_Driver/Src/stm32f4xx_ll_usb.c **** /**
1025:Drivers/STM32F4xx_HAL_Driver/Src/stm32f4xx_ll_usb.c ****   * @brief  USB_ReadPacket : read a packet from the RX FIFO
1026:Drivers/STM32F4xx_HAL_Driver/Src/stm32f4xx_ll_usb.c ****   * @param  USBx  Selected device
1027:Drivers/STM32F4xx_HAL_Driver/Src/stm32f4xx_ll_usb.c ****   * @param  dest  source pointer
1028:Drivers/STM32F4xx_HAL_Driver/Src/stm32f4xx_ll_usb.c ****   * @param  len  Number of bytes to read
1029:Drivers/STM32F4xx_HAL_Driver/Src/stm32f4xx_ll_usb.c ****   * @retval pointer to destination buffer
1030:Drivers/STM32F4xx_HAL_Driver/Src/stm32f4xx_ll_usb.c ****   */
1031:Drivers/STM32F4xx_HAL_Driver/Src/stm32f4xx_ll_usb.c **** void *USB_ReadPacket(const USB_OTG_GlobalTypeDef *USBx, uint8_t *dest, uint16_t len)
1032:Drivers/STM32F4xx_HAL_Driver/Src/stm32f4xx_ll_usb.c **** {
1033:Drivers/STM32F4xx_HAL_Driver/Src/stm32f4xx_ll_usb.c ****   uint32_t USBx_BASE = (uint32_t)USBx;
1034:Drivers/STM32F4xx_HAL_Driver/Src/stm32f4xx_ll_usb.c ****   uint8_t *pDest = dest;
1035:Drivers/STM32F4xx_HAL_Driver/Src/stm32f4xx_ll_usb.c ****   uint32_t pData;
1036:Drivers/STM32F4xx_HAL_Driver/Src/stm32f4xx_ll_usb.c ****   uint32_t i;
1037:Drivers/STM32F4xx_HAL_Driver/Src/stm32f4xx_ll_usb.c ****   uint32_t count32b = (uint32_t)len >> 2U;
1038:Drivers/STM32F4xx_HAL_Driver/Src/stm32f4xx_ll_usb.c ****   uint16_t remaining_bytes = len % 4U;
1039:Drivers/STM32F4xx_HAL_Driver/Src/stm32f4xx_ll_usb.c **** 
1040:Drivers/STM32F4xx_HAL_Driver/Src/stm32f4xx_ll_usb.c ****   for (i = 0U; i < count32b; i++)
1041:Drivers/STM32F4xx_HAL_Driver/Src/stm32f4xx_ll_usb.c ****   {
1042:Drivers/STM32F4xx_HAL_Driver/Src/stm32f4xx_ll_usb.c ****     __UNALIGNED_UINT32_WRITE(pDest, USBx_DFIFO(0U));
1043:Drivers/STM32F4xx_HAL_Driver/Src/stm32f4xx_ll_usb.c ****     pDest++;
1044:Drivers/STM32F4xx_HAL_Driver/Src/stm32f4xx_ll_usb.c ****     pDest++;
1045:Drivers/STM32F4xx_HAL_Driver/Src/stm32f4xx_ll_usb.c ****     pDest++;
1046:Drivers/STM32F4xx_HAL_Driver/Src/stm32f4xx_ll_usb.c ****     pDest++;
1047:Drivers/STM32F4xx_HAL_Driver/Src/stm32f4xx_ll_usb.c ****   }
1048:Drivers/STM32F4xx_HAL_Driver/Src/stm32f4xx_ll_usb.c **** 
1049:Drivers/STM32F4xx_HAL_Driver/Src/stm32f4xx_ll_usb.c ****   /* When Number of data is not word aligned, read the remaining byte */
1050:Drivers/STM32F4xx_HAL_Driver/Src/stm32f4xx_ll_usb.c ****   if (remaining_bytes != 0U)
1051:Drivers/STM32F4xx_HAL_Driver/Src/stm32f4xx_ll_usb.c ****   {
1052:Drivers/STM32F4xx_HAL_Driver/Src/stm32f4xx_ll_usb.c ****     i = 0U;
1053:Drivers/STM32F4xx_HAL_Driver/Src/stm32f4xx_ll_usb.c ****     __UNALIGNED_UINT32_WRITE(&pData, USBx_DFIFO(0U));
1054:Drivers/STM32F4xx_HAL_Driver/Src/stm32f4xx_ll_usb.c **** 
1055:Drivers/STM32F4xx_HAL_Driver/Src/stm32f4xx_ll_usb.c ****     do
1056:Drivers/STM32F4xx_HAL_Driver/Src/stm32f4xx_ll_usb.c ****     {
ARM GAS  /tmp/cc0ThgoX.s 			page 20


1057:Drivers/STM32F4xx_HAL_Driver/Src/stm32f4xx_ll_usb.c ****       *(uint8_t *)pDest = (uint8_t)(pData >> (8U * (uint8_t)(i)));
1058:Drivers/STM32F4xx_HAL_Driver/Src/stm32f4xx_ll_usb.c ****       i++;
1059:Drivers/STM32F4xx_HAL_Driver/Src/stm32f4xx_ll_usb.c ****       pDest++;
1060:Drivers/STM32F4xx_HAL_Driver/Src/stm32f4xx_ll_usb.c ****       remaining_bytes--;
1061:Drivers/STM32F4xx_HAL_Driver/Src/stm32f4xx_ll_usb.c ****     } while (remaining_bytes != 0U);
1062:Drivers/STM32F4xx_HAL_Driver/Src/stm32f4xx_ll_usb.c ****   }
1063:Drivers/STM32F4xx_HAL_Driver/Src/stm32f4xx_ll_usb.c **** 
1064:Drivers/STM32F4xx_HAL_Driver/Src/stm32f4xx_ll_usb.c ****   return ((void *)pDest);
1065:Drivers/STM32F4xx_HAL_Driver/Src/stm32f4xx_ll_usb.c **** }
1066:Drivers/STM32F4xx_HAL_Driver/Src/stm32f4xx_ll_usb.c **** 
1067:Drivers/STM32F4xx_HAL_Driver/Src/stm32f4xx_ll_usb.c **** /**
1068:Drivers/STM32F4xx_HAL_Driver/Src/stm32f4xx_ll_usb.c ****   * @brief  USB_EPSetStall : set a stall condition over an EP
1069:Drivers/STM32F4xx_HAL_Driver/Src/stm32f4xx_ll_usb.c ****   * @param  USBx  Selected device
1070:Drivers/STM32F4xx_HAL_Driver/Src/stm32f4xx_ll_usb.c ****   * @param  ep pointer to endpoint structure
1071:Drivers/STM32F4xx_HAL_Driver/Src/stm32f4xx_ll_usb.c ****   * @retval HAL status
1072:Drivers/STM32F4xx_HAL_Driver/Src/stm32f4xx_ll_usb.c ****   */
1073:Drivers/STM32F4xx_HAL_Driver/Src/stm32f4xx_ll_usb.c **** HAL_StatusTypeDef USB_EPSetStall(const USB_OTG_GlobalTypeDef *USBx, const USB_OTG_EPTypeDef *ep)
1074:Drivers/STM32F4xx_HAL_Driver/Src/stm32f4xx_ll_usb.c **** {
1075:Drivers/STM32F4xx_HAL_Driver/Src/stm32f4xx_ll_usb.c ****   uint32_t USBx_BASE = (uint32_t)USBx;
1076:Drivers/STM32F4xx_HAL_Driver/Src/stm32f4xx_ll_usb.c ****   uint32_t epnum = (uint32_t)ep->num;
1077:Drivers/STM32F4xx_HAL_Driver/Src/stm32f4xx_ll_usb.c **** 
1078:Drivers/STM32F4xx_HAL_Driver/Src/stm32f4xx_ll_usb.c ****   if (ep->is_in == 1U)
1079:Drivers/STM32F4xx_HAL_Driver/Src/stm32f4xx_ll_usb.c ****   {
1080:Drivers/STM32F4xx_HAL_Driver/Src/stm32f4xx_ll_usb.c ****     if (((USBx_INEP(epnum)->DIEPCTL & USB_OTG_DIEPCTL_EPENA) == 0U) && (epnum != 0U))
1081:Drivers/STM32F4xx_HAL_Driver/Src/stm32f4xx_ll_usb.c ****     {
1082:Drivers/STM32F4xx_HAL_Driver/Src/stm32f4xx_ll_usb.c ****       USBx_INEP(epnum)->DIEPCTL &= ~(USB_OTG_DIEPCTL_EPDIS);
1083:Drivers/STM32F4xx_HAL_Driver/Src/stm32f4xx_ll_usb.c ****     }
1084:Drivers/STM32F4xx_HAL_Driver/Src/stm32f4xx_ll_usb.c ****     USBx_INEP(epnum)->DIEPCTL |= USB_OTG_DIEPCTL_STALL;
1085:Drivers/STM32F4xx_HAL_Driver/Src/stm32f4xx_ll_usb.c ****   }
1086:Drivers/STM32F4xx_HAL_Driver/Src/stm32f4xx_ll_usb.c ****   else
1087:Drivers/STM32F4xx_HAL_Driver/Src/stm32f4xx_ll_usb.c ****   {
1088:Drivers/STM32F4xx_HAL_Driver/Src/stm32f4xx_ll_usb.c ****     if (((USBx_OUTEP(epnum)->DOEPCTL & USB_OTG_DOEPCTL_EPENA) == 0U) && (epnum != 0U))
1089:Drivers/STM32F4xx_HAL_Driver/Src/stm32f4xx_ll_usb.c ****     {
1090:Drivers/STM32F4xx_HAL_Driver/Src/stm32f4xx_ll_usb.c ****       USBx_OUTEP(epnum)->DOEPCTL &= ~(USB_OTG_DOEPCTL_EPDIS);
1091:Drivers/STM32F4xx_HAL_Driver/Src/stm32f4xx_ll_usb.c ****     }
1092:Drivers/STM32F4xx_HAL_Driver/Src/stm32f4xx_ll_usb.c ****     USBx_OUTEP(epnum)->DOEPCTL |= USB_OTG_DOEPCTL_STALL;
1093:Drivers/STM32F4xx_HAL_Driver/Src/stm32f4xx_ll_usb.c ****   }
1094:Drivers/STM32F4xx_HAL_Driver/Src/stm32f4xx_ll_usb.c **** 
1095:Drivers/STM32F4xx_HAL_Driver/Src/stm32f4xx_ll_usb.c ****   return HAL_OK;
1096:Drivers/STM32F4xx_HAL_Driver/Src/stm32f4xx_ll_usb.c **** }
1097:Drivers/STM32F4xx_HAL_Driver/Src/stm32f4xx_ll_usb.c **** 
1098:Drivers/STM32F4xx_HAL_Driver/Src/stm32f4xx_ll_usb.c **** /**
1099:Drivers/STM32F4xx_HAL_Driver/Src/stm32f4xx_ll_usb.c ****   * @brief  USB_EPClearStall : Clear a stall condition over an EP
1100:Drivers/STM32F4xx_HAL_Driver/Src/stm32f4xx_ll_usb.c ****   * @param  USBx  Selected device
1101:Drivers/STM32F4xx_HAL_Driver/Src/stm32f4xx_ll_usb.c ****   * @param  ep pointer to endpoint structure
1102:Drivers/STM32F4xx_HAL_Driver/Src/stm32f4xx_ll_usb.c ****   * @retval HAL status
1103:Drivers/STM32F4xx_HAL_Driver/Src/stm32f4xx_ll_usb.c ****   */
1104:Drivers/STM32F4xx_HAL_Driver/Src/stm32f4xx_ll_usb.c **** HAL_StatusTypeDef USB_EPClearStall(const USB_OTG_GlobalTypeDef *USBx, const USB_OTG_EPTypeDef *ep)
1105:Drivers/STM32F4xx_HAL_Driver/Src/stm32f4xx_ll_usb.c **** {
1106:Drivers/STM32F4xx_HAL_Driver/Src/stm32f4xx_ll_usb.c ****   uint32_t USBx_BASE = (uint32_t)USBx;
1107:Drivers/STM32F4xx_HAL_Driver/Src/stm32f4xx_ll_usb.c ****   uint32_t epnum = (uint32_t)ep->num;
1108:Drivers/STM32F4xx_HAL_Driver/Src/stm32f4xx_ll_usb.c **** 
1109:Drivers/STM32F4xx_HAL_Driver/Src/stm32f4xx_ll_usb.c ****   if (ep->is_in == 1U)
1110:Drivers/STM32F4xx_HAL_Driver/Src/stm32f4xx_ll_usb.c ****   {
1111:Drivers/STM32F4xx_HAL_Driver/Src/stm32f4xx_ll_usb.c ****     USBx_INEP(epnum)->DIEPCTL &= ~USB_OTG_DIEPCTL_STALL;
1112:Drivers/STM32F4xx_HAL_Driver/Src/stm32f4xx_ll_usb.c ****     if ((ep->type == EP_TYPE_INTR) || (ep->type == EP_TYPE_BULK))
1113:Drivers/STM32F4xx_HAL_Driver/Src/stm32f4xx_ll_usb.c ****     {
ARM GAS  /tmp/cc0ThgoX.s 			page 21


1114:Drivers/STM32F4xx_HAL_Driver/Src/stm32f4xx_ll_usb.c ****       USBx_INEP(epnum)->DIEPCTL |= USB_OTG_DIEPCTL_SD0PID_SEVNFRM; /* DATA0 */
1115:Drivers/STM32F4xx_HAL_Driver/Src/stm32f4xx_ll_usb.c ****     }
1116:Drivers/STM32F4xx_HAL_Driver/Src/stm32f4xx_ll_usb.c ****   }
1117:Drivers/STM32F4xx_HAL_Driver/Src/stm32f4xx_ll_usb.c ****   else
1118:Drivers/STM32F4xx_HAL_Driver/Src/stm32f4xx_ll_usb.c ****   {
1119:Drivers/STM32F4xx_HAL_Driver/Src/stm32f4xx_ll_usb.c ****     USBx_OUTEP(epnum)->DOEPCTL &= ~USB_OTG_DOEPCTL_STALL;
1120:Drivers/STM32F4xx_HAL_Driver/Src/stm32f4xx_ll_usb.c ****     if ((ep->type == EP_TYPE_INTR) || (ep->type == EP_TYPE_BULK))
1121:Drivers/STM32F4xx_HAL_Driver/Src/stm32f4xx_ll_usb.c ****     {
1122:Drivers/STM32F4xx_HAL_Driver/Src/stm32f4xx_ll_usb.c ****       USBx_OUTEP(epnum)->DOEPCTL |= USB_OTG_DOEPCTL_SD0PID_SEVNFRM; /* DATA0 */
1123:Drivers/STM32F4xx_HAL_Driver/Src/stm32f4xx_ll_usb.c ****     }
1124:Drivers/STM32F4xx_HAL_Driver/Src/stm32f4xx_ll_usb.c ****   }
1125:Drivers/STM32F4xx_HAL_Driver/Src/stm32f4xx_ll_usb.c ****   return HAL_OK;
1126:Drivers/STM32F4xx_HAL_Driver/Src/stm32f4xx_ll_usb.c **** }
1127:Drivers/STM32F4xx_HAL_Driver/Src/stm32f4xx_ll_usb.c **** 
1128:Drivers/STM32F4xx_HAL_Driver/Src/stm32f4xx_ll_usb.c **** /**
1129:Drivers/STM32F4xx_HAL_Driver/Src/stm32f4xx_ll_usb.c ****   * @brief  USB_StopDevice : Stop the usb device mode
1130:Drivers/STM32F4xx_HAL_Driver/Src/stm32f4xx_ll_usb.c ****   * @param  USBx  Selected device
1131:Drivers/STM32F4xx_HAL_Driver/Src/stm32f4xx_ll_usb.c ****   * @retval HAL status
1132:Drivers/STM32F4xx_HAL_Driver/Src/stm32f4xx_ll_usb.c ****   */
1133:Drivers/STM32F4xx_HAL_Driver/Src/stm32f4xx_ll_usb.c **** HAL_StatusTypeDef USB_StopDevice(USB_OTG_GlobalTypeDef *USBx)
1134:Drivers/STM32F4xx_HAL_Driver/Src/stm32f4xx_ll_usb.c **** {
1135:Drivers/STM32F4xx_HAL_Driver/Src/stm32f4xx_ll_usb.c ****   HAL_StatusTypeDef ret;
1136:Drivers/STM32F4xx_HAL_Driver/Src/stm32f4xx_ll_usb.c ****   uint32_t USBx_BASE = (uint32_t)USBx;
1137:Drivers/STM32F4xx_HAL_Driver/Src/stm32f4xx_ll_usb.c ****   uint32_t i;
1138:Drivers/STM32F4xx_HAL_Driver/Src/stm32f4xx_ll_usb.c **** 
1139:Drivers/STM32F4xx_HAL_Driver/Src/stm32f4xx_ll_usb.c ****   /* Clear Pending interrupt */
1140:Drivers/STM32F4xx_HAL_Driver/Src/stm32f4xx_ll_usb.c ****   for (i = 0U; i < 15U; i++)
1141:Drivers/STM32F4xx_HAL_Driver/Src/stm32f4xx_ll_usb.c ****   {
1142:Drivers/STM32F4xx_HAL_Driver/Src/stm32f4xx_ll_usb.c ****     USBx_INEP(i)->DIEPINT = 0xFB7FU;
1143:Drivers/STM32F4xx_HAL_Driver/Src/stm32f4xx_ll_usb.c ****     USBx_OUTEP(i)->DOEPINT = 0xFB7FU;
1144:Drivers/STM32F4xx_HAL_Driver/Src/stm32f4xx_ll_usb.c ****   }
1145:Drivers/STM32F4xx_HAL_Driver/Src/stm32f4xx_ll_usb.c **** 
1146:Drivers/STM32F4xx_HAL_Driver/Src/stm32f4xx_ll_usb.c ****   /* Clear interrupt masks */
1147:Drivers/STM32F4xx_HAL_Driver/Src/stm32f4xx_ll_usb.c ****   USBx_DEVICE->DIEPMSK  = 0U;
1148:Drivers/STM32F4xx_HAL_Driver/Src/stm32f4xx_ll_usb.c ****   USBx_DEVICE->DOEPMSK  = 0U;
1149:Drivers/STM32F4xx_HAL_Driver/Src/stm32f4xx_ll_usb.c ****   USBx_DEVICE->DAINTMSK = 0U;
1150:Drivers/STM32F4xx_HAL_Driver/Src/stm32f4xx_ll_usb.c **** 
1151:Drivers/STM32F4xx_HAL_Driver/Src/stm32f4xx_ll_usb.c ****   /* Flush the FIFO */
1152:Drivers/STM32F4xx_HAL_Driver/Src/stm32f4xx_ll_usb.c ****   ret = USB_FlushRxFifo(USBx);
1153:Drivers/STM32F4xx_HAL_Driver/Src/stm32f4xx_ll_usb.c ****   if (ret != HAL_OK)
1154:Drivers/STM32F4xx_HAL_Driver/Src/stm32f4xx_ll_usb.c ****   {
1155:Drivers/STM32F4xx_HAL_Driver/Src/stm32f4xx_ll_usb.c ****     return ret;
1156:Drivers/STM32F4xx_HAL_Driver/Src/stm32f4xx_ll_usb.c ****   }
1157:Drivers/STM32F4xx_HAL_Driver/Src/stm32f4xx_ll_usb.c **** 
1158:Drivers/STM32F4xx_HAL_Driver/Src/stm32f4xx_ll_usb.c ****   ret = USB_FlushTxFifo(USBx,  0x10U);
1159:Drivers/STM32F4xx_HAL_Driver/Src/stm32f4xx_ll_usb.c ****   if (ret != HAL_OK)
1160:Drivers/STM32F4xx_HAL_Driver/Src/stm32f4xx_ll_usb.c ****   {
1161:Drivers/STM32F4xx_HAL_Driver/Src/stm32f4xx_ll_usb.c ****     return ret;
1162:Drivers/STM32F4xx_HAL_Driver/Src/stm32f4xx_ll_usb.c ****   }
1163:Drivers/STM32F4xx_HAL_Driver/Src/stm32f4xx_ll_usb.c **** 
1164:Drivers/STM32F4xx_HAL_Driver/Src/stm32f4xx_ll_usb.c ****   return ret;
1165:Drivers/STM32F4xx_HAL_Driver/Src/stm32f4xx_ll_usb.c **** }
1166:Drivers/STM32F4xx_HAL_Driver/Src/stm32f4xx_ll_usb.c **** 
1167:Drivers/STM32F4xx_HAL_Driver/Src/stm32f4xx_ll_usb.c **** /**
1168:Drivers/STM32F4xx_HAL_Driver/Src/stm32f4xx_ll_usb.c ****   * @brief  USB_SetDevAddress : Stop the usb device mode
1169:Drivers/STM32F4xx_HAL_Driver/Src/stm32f4xx_ll_usb.c ****   * @param  USBx  Selected device
1170:Drivers/STM32F4xx_HAL_Driver/Src/stm32f4xx_ll_usb.c ****   * @param  address  new device address to be assigned
ARM GAS  /tmp/cc0ThgoX.s 			page 22


1171:Drivers/STM32F4xx_HAL_Driver/Src/stm32f4xx_ll_usb.c ****   *          This parameter can be a value from 0 to 255
1172:Drivers/STM32F4xx_HAL_Driver/Src/stm32f4xx_ll_usb.c ****   * @retval HAL status
1173:Drivers/STM32F4xx_HAL_Driver/Src/stm32f4xx_ll_usb.c ****   */
1174:Drivers/STM32F4xx_HAL_Driver/Src/stm32f4xx_ll_usb.c **** HAL_StatusTypeDef USB_SetDevAddress(const USB_OTG_GlobalTypeDef *USBx, uint8_t address)
1175:Drivers/STM32F4xx_HAL_Driver/Src/stm32f4xx_ll_usb.c **** {
1176:Drivers/STM32F4xx_HAL_Driver/Src/stm32f4xx_ll_usb.c ****   uint32_t USBx_BASE = (uint32_t)USBx;
1177:Drivers/STM32F4xx_HAL_Driver/Src/stm32f4xx_ll_usb.c **** 
1178:Drivers/STM32F4xx_HAL_Driver/Src/stm32f4xx_ll_usb.c ****   USBx_DEVICE->DCFG &= ~(USB_OTG_DCFG_DAD);
1179:Drivers/STM32F4xx_HAL_Driver/Src/stm32f4xx_ll_usb.c ****   USBx_DEVICE->DCFG |= ((uint32_t)address << 4) & USB_OTG_DCFG_DAD;
1180:Drivers/STM32F4xx_HAL_Driver/Src/stm32f4xx_ll_usb.c **** 
1181:Drivers/STM32F4xx_HAL_Driver/Src/stm32f4xx_ll_usb.c ****   return HAL_OK;
1182:Drivers/STM32F4xx_HAL_Driver/Src/stm32f4xx_ll_usb.c **** }
1183:Drivers/STM32F4xx_HAL_Driver/Src/stm32f4xx_ll_usb.c **** 
1184:Drivers/STM32F4xx_HAL_Driver/Src/stm32f4xx_ll_usb.c **** /**
1185:Drivers/STM32F4xx_HAL_Driver/Src/stm32f4xx_ll_usb.c ****   * @brief  USB_DevConnect : Connect the USB device by enabling Rpu
1186:Drivers/STM32F4xx_HAL_Driver/Src/stm32f4xx_ll_usb.c ****   * @param  USBx  Selected device
1187:Drivers/STM32F4xx_HAL_Driver/Src/stm32f4xx_ll_usb.c ****   * @retval HAL status
1188:Drivers/STM32F4xx_HAL_Driver/Src/stm32f4xx_ll_usb.c ****   */
1189:Drivers/STM32F4xx_HAL_Driver/Src/stm32f4xx_ll_usb.c **** HAL_StatusTypeDef USB_DevConnect(const USB_OTG_GlobalTypeDef *USBx)
1190:Drivers/STM32F4xx_HAL_Driver/Src/stm32f4xx_ll_usb.c **** {
1191:Drivers/STM32F4xx_HAL_Driver/Src/stm32f4xx_ll_usb.c ****   uint32_t USBx_BASE = (uint32_t)USBx;
1192:Drivers/STM32F4xx_HAL_Driver/Src/stm32f4xx_ll_usb.c **** 
1193:Drivers/STM32F4xx_HAL_Driver/Src/stm32f4xx_ll_usb.c ****   /* In case phy is stopped, ensure to ungate and restore the phy CLK */
1194:Drivers/STM32F4xx_HAL_Driver/Src/stm32f4xx_ll_usb.c ****   USBx_PCGCCTL &= ~(USB_OTG_PCGCCTL_STOPCLK | USB_OTG_PCGCCTL_GATECLK);
1195:Drivers/STM32F4xx_HAL_Driver/Src/stm32f4xx_ll_usb.c **** 
1196:Drivers/STM32F4xx_HAL_Driver/Src/stm32f4xx_ll_usb.c ****   USBx_DEVICE->DCTL &= ~USB_OTG_DCTL_SDIS;
1197:Drivers/STM32F4xx_HAL_Driver/Src/stm32f4xx_ll_usb.c **** 
1198:Drivers/STM32F4xx_HAL_Driver/Src/stm32f4xx_ll_usb.c ****   return HAL_OK;
1199:Drivers/STM32F4xx_HAL_Driver/Src/stm32f4xx_ll_usb.c **** }
1200:Drivers/STM32F4xx_HAL_Driver/Src/stm32f4xx_ll_usb.c **** 
1201:Drivers/STM32F4xx_HAL_Driver/Src/stm32f4xx_ll_usb.c **** /**
1202:Drivers/STM32F4xx_HAL_Driver/Src/stm32f4xx_ll_usb.c ****   * @brief  USB_DevDisconnect : Disconnect the USB device by disabling Rpu
1203:Drivers/STM32F4xx_HAL_Driver/Src/stm32f4xx_ll_usb.c ****   * @param  USBx  Selected device
1204:Drivers/STM32F4xx_HAL_Driver/Src/stm32f4xx_ll_usb.c ****   * @retval HAL status
1205:Drivers/STM32F4xx_HAL_Driver/Src/stm32f4xx_ll_usb.c ****   */
1206:Drivers/STM32F4xx_HAL_Driver/Src/stm32f4xx_ll_usb.c **** HAL_StatusTypeDef USB_DevDisconnect(const USB_OTG_GlobalTypeDef *USBx)
1207:Drivers/STM32F4xx_HAL_Driver/Src/stm32f4xx_ll_usb.c **** {
1208:Drivers/STM32F4xx_HAL_Driver/Src/stm32f4xx_ll_usb.c ****   uint32_t USBx_BASE = (uint32_t)USBx;
1209:Drivers/STM32F4xx_HAL_Driver/Src/stm32f4xx_ll_usb.c **** 
1210:Drivers/STM32F4xx_HAL_Driver/Src/stm32f4xx_ll_usb.c ****   /* In case phy is stopped, ensure to ungate and restore the phy CLK */
1211:Drivers/STM32F4xx_HAL_Driver/Src/stm32f4xx_ll_usb.c ****   USBx_PCGCCTL &= ~(USB_OTG_PCGCCTL_STOPCLK | USB_OTG_PCGCCTL_GATECLK);
1212:Drivers/STM32F4xx_HAL_Driver/Src/stm32f4xx_ll_usb.c **** 
1213:Drivers/STM32F4xx_HAL_Driver/Src/stm32f4xx_ll_usb.c ****   USBx_DEVICE->DCTL |= USB_OTG_DCTL_SDIS;
1214:Drivers/STM32F4xx_HAL_Driver/Src/stm32f4xx_ll_usb.c **** 
1215:Drivers/STM32F4xx_HAL_Driver/Src/stm32f4xx_ll_usb.c ****   return HAL_OK;
1216:Drivers/STM32F4xx_HAL_Driver/Src/stm32f4xx_ll_usb.c **** }
1217:Drivers/STM32F4xx_HAL_Driver/Src/stm32f4xx_ll_usb.c **** 
1218:Drivers/STM32F4xx_HAL_Driver/Src/stm32f4xx_ll_usb.c **** /**
1219:Drivers/STM32F4xx_HAL_Driver/Src/stm32f4xx_ll_usb.c ****   * @brief  USB_ReadInterrupts: return the global USB interrupt status
1220:Drivers/STM32F4xx_HAL_Driver/Src/stm32f4xx_ll_usb.c ****   * @param  USBx  Selected device
1221:Drivers/STM32F4xx_HAL_Driver/Src/stm32f4xx_ll_usb.c ****   * @retval USB Global Interrupt status
1222:Drivers/STM32F4xx_HAL_Driver/Src/stm32f4xx_ll_usb.c ****   */
1223:Drivers/STM32F4xx_HAL_Driver/Src/stm32f4xx_ll_usb.c **** uint32_t USB_ReadInterrupts(USB_OTG_GlobalTypeDef const *USBx)
1224:Drivers/STM32F4xx_HAL_Driver/Src/stm32f4xx_ll_usb.c **** {
1225:Drivers/STM32F4xx_HAL_Driver/Src/stm32f4xx_ll_usb.c ****   uint32_t tmpreg;
1226:Drivers/STM32F4xx_HAL_Driver/Src/stm32f4xx_ll_usb.c **** 
1227:Drivers/STM32F4xx_HAL_Driver/Src/stm32f4xx_ll_usb.c ****   tmpreg = USBx->GINTSTS;
ARM GAS  /tmp/cc0ThgoX.s 			page 23


1228:Drivers/STM32F4xx_HAL_Driver/Src/stm32f4xx_ll_usb.c ****   tmpreg &= USBx->GINTMSK;
1229:Drivers/STM32F4xx_HAL_Driver/Src/stm32f4xx_ll_usb.c **** 
1230:Drivers/STM32F4xx_HAL_Driver/Src/stm32f4xx_ll_usb.c ****   return tmpreg;
1231:Drivers/STM32F4xx_HAL_Driver/Src/stm32f4xx_ll_usb.c **** }
1232:Drivers/STM32F4xx_HAL_Driver/Src/stm32f4xx_ll_usb.c **** 
1233:Drivers/STM32F4xx_HAL_Driver/Src/stm32f4xx_ll_usb.c **** /**
1234:Drivers/STM32F4xx_HAL_Driver/Src/stm32f4xx_ll_usb.c ****   * @brief  USB_ReadChInterrupts: return USB channel interrupt status
1235:Drivers/STM32F4xx_HAL_Driver/Src/stm32f4xx_ll_usb.c ****   * @param  USBx  Selected device
1236:Drivers/STM32F4xx_HAL_Driver/Src/stm32f4xx_ll_usb.c ****   * @param  chnum Channel number
1237:Drivers/STM32F4xx_HAL_Driver/Src/stm32f4xx_ll_usb.c ****   * @retval USB Channel Interrupt status
1238:Drivers/STM32F4xx_HAL_Driver/Src/stm32f4xx_ll_usb.c ****   */
1239:Drivers/STM32F4xx_HAL_Driver/Src/stm32f4xx_ll_usb.c **** uint32_t USB_ReadChInterrupts(const USB_OTG_GlobalTypeDef *USBx, uint8_t chnum)
1240:Drivers/STM32F4xx_HAL_Driver/Src/stm32f4xx_ll_usb.c **** {
1241:Drivers/STM32F4xx_HAL_Driver/Src/stm32f4xx_ll_usb.c ****   uint32_t USBx_BASE = (uint32_t)USBx;
1242:Drivers/STM32F4xx_HAL_Driver/Src/stm32f4xx_ll_usb.c ****   uint32_t tmpreg;
1243:Drivers/STM32F4xx_HAL_Driver/Src/stm32f4xx_ll_usb.c **** 
1244:Drivers/STM32F4xx_HAL_Driver/Src/stm32f4xx_ll_usb.c ****   tmpreg = USBx_HC(chnum)->HCINT;
1245:Drivers/STM32F4xx_HAL_Driver/Src/stm32f4xx_ll_usb.c ****   tmpreg &= USBx_HC(chnum)->HCINTMSK;
1246:Drivers/STM32F4xx_HAL_Driver/Src/stm32f4xx_ll_usb.c **** 
1247:Drivers/STM32F4xx_HAL_Driver/Src/stm32f4xx_ll_usb.c ****   return tmpreg;
1248:Drivers/STM32F4xx_HAL_Driver/Src/stm32f4xx_ll_usb.c **** }
1249:Drivers/STM32F4xx_HAL_Driver/Src/stm32f4xx_ll_usb.c **** 
1250:Drivers/STM32F4xx_HAL_Driver/Src/stm32f4xx_ll_usb.c **** /**
1251:Drivers/STM32F4xx_HAL_Driver/Src/stm32f4xx_ll_usb.c ****   * @brief  USB_ReadDevAllOutEpInterrupt: return the USB device OUT endpoints interrupt status
1252:Drivers/STM32F4xx_HAL_Driver/Src/stm32f4xx_ll_usb.c ****   * @param  USBx  Selected device
1253:Drivers/STM32F4xx_HAL_Driver/Src/stm32f4xx_ll_usb.c ****   * @retval USB Device OUT EP interrupt status
1254:Drivers/STM32F4xx_HAL_Driver/Src/stm32f4xx_ll_usb.c ****   */
1255:Drivers/STM32F4xx_HAL_Driver/Src/stm32f4xx_ll_usb.c **** uint32_t USB_ReadDevAllOutEpInterrupt(const USB_OTG_GlobalTypeDef *USBx)
1256:Drivers/STM32F4xx_HAL_Driver/Src/stm32f4xx_ll_usb.c **** {
1257:Drivers/STM32F4xx_HAL_Driver/Src/stm32f4xx_ll_usb.c ****   uint32_t USBx_BASE = (uint32_t)USBx;
1258:Drivers/STM32F4xx_HAL_Driver/Src/stm32f4xx_ll_usb.c ****   uint32_t tmpreg;
1259:Drivers/STM32F4xx_HAL_Driver/Src/stm32f4xx_ll_usb.c **** 
1260:Drivers/STM32F4xx_HAL_Driver/Src/stm32f4xx_ll_usb.c ****   tmpreg  = USBx_DEVICE->DAINT;
1261:Drivers/STM32F4xx_HAL_Driver/Src/stm32f4xx_ll_usb.c ****   tmpreg &= USBx_DEVICE->DAINTMSK;
1262:Drivers/STM32F4xx_HAL_Driver/Src/stm32f4xx_ll_usb.c **** 
1263:Drivers/STM32F4xx_HAL_Driver/Src/stm32f4xx_ll_usb.c ****   return ((tmpreg & 0xffff0000U) >> 16);
1264:Drivers/STM32F4xx_HAL_Driver/Src/stm32f4xx_ll_usb.c **** }
1265:Drivers/STM32F4xx_HAL_Driver/Src/stm32f4xx_ll_usb.c **** 
1266:Drivers/STM32F4xx_HAL_Driver/Src/stm32f4xx_ll_usb.c **** /**
1267:Drivers/STM32F4xx_HAL_Driver/Src/stm32f4xx_ll_usb.c ****   * @brief  USB_ReadDevAllInEpInterrupt: return the USB device IN endpoints interrupt status
1268:Drivers/STM32F4xx_HAL_Driver/Src/stm32f4xx_ll_usb.c ****   * @param  USBx  Selected device
1269:Drivers/STM32F4xx_HAL_Driver/Src/stm32f4xx_ll_usb.c ****   * @retval USB Device IN EP interrupt status
1270:Drivers/STM32F4xx_HAL_Driver/Src/stm32f4xx_ll_usb.c ****   */
1271:Drivers/STM32F4xx_HAL_Driver/Src/stm32f4xx_ll_usb.c **** uint32_t USB_ReadDevAllInEpInterrupt(const USB_OTG_GlobalTypeDef *USBx)
1272:Drivers/STM32F4xx_HAL_Driver/Src/stm32f4xx_ll_usb.c **** {
1273:Drivers/STM32F4xx_HAL_Driver/Src/stm32f4xx_ll_usb.c ****   uint32_t USBx_BASE = (uint32_t)USBx;
1274:Drivers/STM32F4xx_HAL_Driver/Src/stm32f4xx_ll_usb.c ****   uint32_t tmpreg;
1275:Drivers/STM32F4xx_HAL_Driver/Src/stm32f4xx_ll_usb.c **** 
1276:Drivers/STM32F4xx_HAL_Driver/Src/stm32f4xx_ll_usb.c ****   tmpreg  = USBx_DEVICE->DAINT;
1277:Drivers/STM32F4xx_HAL_Driver/Src/stm32f4xx_ll_usb.c ****   tmpreg &= USBx_DEVICE->DAINTMSK;
1278:Drivers/STM32F4xx_HAL_Driver/Src/stm32f4xx_ll_usb.c **** 
1279:Drivers/STM32F4xx_HAL_Driver/Src/stm32f4xx_ll_usb.c ****   return ((tmpreg & 0xFFFFU));
1280:Drivers/STM32F4xx_HAL_Driver/Src/stm32f4xx_ll_usb.c **** }
1281:Drivers/STM32F4xx_HAL_Driver/Src/stm32f4xx_ll_usb.c **** 
1282:Drivers/STM32F4xx_HAL_Driver/Src/stm32f4xx_ll_usb.c **** /**
1283:Drivers/STM32F4xx_HAL_Driver/Src/stm32f4xx_ll_usb.c ****   * @brief  Returns Device OUT EP Interrupt register
1284:Drivers/STM32F4xx_HAL_Driver/Src/stm32f4xx_ll_usb.c ****   * @param  USBx  Selected device
ARM GAS  /tmp/cc0ThgoX.s 			page 24


1285:Drivers/STM32F4xx_HAL_Driver/Src/stm32f4xx_ll_usb.c ****   * @param  epnum  endpoint number
1286:Drivers/STM32F4xx_HAL_Driver/Src/stm32f4xx_ll_usb.c ****   *          This parameter can be a value from 0 to 15
1287:Drivers/STM32F4xx_HAL_Driver/Src/stm32f4xx_ll_usb.c ****   * @retval Device OUT EP Interrupt register
1288:Drivers/STM32F4xx_HAL_Driver/Src/stm32f4xx_ll_usb.c ****   */
1289:Drivers/STM32F4xx_HAL_Driver/Src/stm32f4xx_ll_usb.c **** uint32_t USB_ReadDevOutEPInterrupt(const USB_OTG_GlobalTypeDef *USBx, uint8_t epnum)
1290:Drivers/STM32F4xx_HAL_Driver/Src/stm32f4xx_ll_usb.c **** {
1291:Drivers/STM32F4xx_HAL_Driver/Src/stm32f4xx_ll_usb.c ****   uint32_t USBx_BASE = (uint32_t)USBx;
1292:Drivers/STM32F4xx_HAL_Driver/Src/stm32f4xx_ll_usb.c ****   uint32_t tmpreg;
1293:Drivers/STM32F4xx_HAL_Driver/Src/stm32f4xx_ll_usb.c **** 
1294:Drivers/STM32F4xx_HAL_Driver/Src/stm32f4xx_ll_usb.c ****   tmpreg  = USBx_OUTEP((uint32_t)epnum)->DOEPINT;
1295:Drivers/STM32F4xx_HAL_Driver/Src/stm32f4xx_ll_usb.c ****   tmpreg &= USBx_DEVICE->DOEPMSK;
1296:Drivers/STM32F4xx_HAL_Driver/Src/stm32f4xx_ll_usb.c **** 
1297:Drivers/STM32F4xx_HAL_Driver/Src/stm32f4xx_ll_usb.c ****   return tmpreg;
1298:Drivers/STM32F4xx_HAL_Driver/Src/stm32f4xx_ll_usb.c **** }
1299:Drivers/STM32F4xx_HAL_Driver/Src/stm32f4xx_ll_usb.c **** 
1300:Drivers/STM32F4xx_HAL_Driver/Src/stm32f4xx_ll_usb.c **** /**
1301:Drivers/STM32F4xx_HAL_Driver/Src/stm32f4xx_ll_usb.c ****   * @brief  Returns Device IN EP Interrupt register
1302:Drivers/STM32F4xx_HAL_Driver/Src/stm32f4xx_ll_usb.c ****   * @param  USBx  Selected device
1303:Drivers/STM32F4xx_HAL_Driver/Src/stm32f4xx_ll_usb.c ****   * @param  epnum  endpoint number
1304:Drivers/STM32F4xx_HAL_Driver/Src/stm32f4xx_ll_usb.c ****   *          This parameter can be a value from 0 to 15
1305:Drivers/STM32F4xx_HAL_Driver/Src/stm32f4xx_ll_usb.c ****   * @retval Device IN EP Interrupt register
1306:Drivers/STM32F4xx_HAL_Driver/Src/stm32f4xx_ll_usb.c ****   */
1307:Drivers/STM32F4xx_HAL_Driver/Src/stm32f4xx_ll_usb.c **** uint32_t USB_ReadDevInEPInterrupt(const USB_OTG_GlobalTypeDef *USBx, uint8_t epnum)
1308:Drivers/STM32F4xx_HAL_Driver/Src/stm32f4xx_ll_usb.c **** {
1309:Drivers/STM32F4xx_HAL_Driver/Src/stm32f4xx_ll_usb.c ****   uint32_t USBx_BASE = (uint32_t)USBx;
1310:Drivers/STM32F4xx_HAL_Driver/Src/stm32f4xx_ll_usb.c ****   uint32_t tmpreg;
1311:Drivers/STM32F4xx_HAL_Driver/Src/stm32f4xx_ll_usb.c ****   uint32_t msk;
1312:Drivers/STM32F4xx_HAL_Driver/Src/stm32f4xx_ll_usb.c ****   uint32_t emp;
1313:Drivers/STM32F4xx_HAL_Driver/Src/stm32f4xx_ll_usb.c **** 
1314:Drivers/STM32F4xx_HAL_Driver/Src/stm32f4xx_ll_usb.c ****   msk = USBx_DEVICE->DIEPMSK;
1315:Drivers/STM32F4xx_HAL_Driver/Src/stm32f4xx_ll_usb.c ****   emp = USBx_DEVICE->DIEPEMPMSK;
1316:Drivers/STM32F4xx_HAL_Driver/Src/stm32f4xx_ll_usb.c ****   msk |= ((emp >> (epnum & EP_ADDR_MSK)) & 0x1U) << 7;
1317:Drivers/STM32F4xx_HAL_Driver/Src/stm32f4xx_ll_usb.c ****   tmpreg = USBx_INEP((uint32_t)epnum)->DIEPINT & msk;
1318:Drivers/STM32F4xx_HAL_Driver/Src/stm32f4xx_ll_usb.c **** 
1319:Drivers/STM32F4xx_HAL_Driver/Src/stm32f4xx_ll_usb.c ****   return tmpreg;
1320:Drivers/STM32F4xx_HAL_Driver/Src/stm32f4xx_ll_usb.c **** }
1321:Drivers/STM32F4xx_HAL_Driver/Src/stm32f4xx_ll_usb.c **** 
1322:Drivers/STM32F4xx_HAL_Driver/Src/stm32f4xx_ll_usb.c **** /**
1323:Drivers/STM32F4xx_HAL_Driver/Src/stm32f4xx_ll_usb.c ****   * @brief  USB_ClearInterrupts: clear a USB interrupt
1324:Drivers/STM32F4xx_HAL_Driver/Src/stm32f4xx_ll_usb.c ****   * @param  USBx  Selected device
1325:Drivers/STM32F4xx_HAL_Driver/Src/stm32f4xx_ll_usb.c ****   * @param  interrupt  flag
1326:Drivers/STM32F4xx_HAL_Driver/Src/stm32f4xx_ll_usb.c ****   * @retval None
1327:Drivers/STM32F4xx_HAL_Driver/Src/stm32f4xx_ll_usb.c ****   */
1328:Drivers/STM32F4xx_HAL_Driver/Src/stm32f4xx_ll_usb.c **** void  USB_ClearInterrupts(USB_OTG_GlobalTypeDef *USBx, uint32_t interrupt)
1329:Drivers/STM32F4xx_HAL_Driver/Src/stm32f4xx_ll_usb.c **** {
1330:Drivers/STM32F4xx_HAL_Driver/Src/stm32f4xx_ll_usb.c ****   USBx->GINTSTS &= interrupt;
1331:Drivers/STM32F4xx_HAL_Driver/Src/stm32f4xx_ll_usb.c **** }
1332:Drivers/STM32F4xx_HAL_Driver/Src/stm32f4xx_ll_usb.c **** 
1333:Drivers/STM32F4xx_HAL_Driver/Src/stm32f4xx_ll_usb.c **** /**
1334:Drivers/STM32F4xx_HAL_Driver/Src/stm32f4xx_ll_usb.c ****   * @brief  Returns USB core mode
1335:Drivers/STM32F4xx_HAL_Driver/Src/stm32f4xx_ll_usb.c ****   * @param  USBx  Selected device
1336:Drivers/STM32F4xx_HAL_Driver/Src/stm32f4xx_ll_usb.c ****   * @retval return core mode : Host or Device
1337:Drivers/STM32F4xx_HAL_Driver/Src/stm32f4xx_ll_usb.c ****   *          This parameter can be one of these values:
1338:Drivers/STM32F4xx_HAL_Driver/Src/stm32f4xx_ll_usb.c ****   *           1 : Host
1339:Drivers/STM32F4xx_HAL_Driver/Src/stm32f4xx_ll_usb.c ****   *           0 : Device
1340:Drivers/STM32F4xx_HAL_Driver/Src/stm32f4xx_ll_usb.c ****   */
1341:Drivers/STM32F4xx_HAL_Driver/Src/stm32f4xx_ll_usb.c **** uint32_t USB_GetMode(const USB_OTG_GlobalTypeDef *USBx)
ARM GAS  /tmp/cc0ThgoX.s 			page 25


1342:Drivers/STM32F4xx_HAL_Driver/Src/stm32f4xx_ll_usb.c **** {
1343:Drivers/STM32F4xx_HAL_Driver/Src/stm32f4xx_ll_usb.c ****   return ((USBx->GINTSTS) & 0x1U);
1344:Drivers/STM32F4xx_HAL_Driver/Src/stm32f4xx_ll_usb.c **** }
1345:Drivers/STM32F4xx_HAL_Driver/Src/stm32f4xx_ll_usb.c **** 
1346:Drivers/STM32F4xx_HAL_Driver/Src/stm32f4xx_ll_usb.c **** /**
1347:Drivers/STM32F4xx_HAL_Driver/Src/stm32f4xx_ll_usb.c ****   * @brief  Activate EP0 for Setup transactions
1348:Drivers/STM32F4xx_HAL_Driver/Src/stm32f4xx_ll_usb.c ****   * @param  USBx  Selected device
1349:Drivers/STM32F4xx_HAL_Driver/Src/stm32f4xx_ll_usb.c ****   * @retval HAL status
1350:Drivers/STM32F4xx_HAL_Driver/Src/stm32f4xx_ll_usb.c ****   */
1351:Drivers/STM32F4xx_HAL_Driver/Src/stm32f4xx_ll_usb.c **** HAL_StatusTypeDef USB_ActivateSetup(const USB_OTG_GlobalTypeDef *USBx)
1352:Drivers/STM32F4xx_HAL_Driver/Src/stm32f4xx_ll_usb.c **** {
1353:Drivers/STM32F4xx_HAL_Driver/Src/stm32f4xx_ll_usb.c ****   uint32_t USBx_BASE = (uint32_t)USBx;
1354:Drivers/STM32F4xx_HAL_Driver/Src/stm32f4xx_ll_usb.c **** 
1355:Drivers/STM32F4xx_HAL_Driver/Src/stm32f4xx_ll_usb.c ****   /* Set the MPS of the IN EP0 to 64 bytes */
1356:Drivers/STM32F4xx_HAL_Driver/Src/stm32f4xx_ll_usb.c ****   USBx_INEP(0U)->DIEPCTL &= ~USB_OTG_DIEPCTL_MPSIZ;
1357:Drivers/STM32F4xx_HAL_Driver/Src/stm32f4xx_ll_usb.c **** 
1358:Drivers/STM32F4xx_HAL_Driver/Src/stm32f4xx_ll_usb.c ****   USBx_DEVICE->DCTL |= USB_OTG_DCTL_CGINAK;
1359:Drivers/STM32F4xx_HAL_Driver/Src/stm32f4xx_ll_usb.c **** 
1360:Drivers/STM32F4xx_HAL_Driver/Src/stm32f4xx_ll_usb.c ****   return HAL_OK;
1361:Drivers/STM32F4xx_HAL_Driver/Src/stm32f4xx_ll_usb.c **** }
1362:Drivers/STM32F4xx_HAL_Driver/Src/stm32f4xx_ll_usb.c **** 
1363:Drivers/STM32F4xx_HAL_Driver/Src/stm32f4xx_ll_usb.c **** /**
1364:Drivers/STM32F4xx_HAL_Driver/Src/stm32f4xx_ll_usb.c ****   * @brief  Prepare the EP0 to start the first control setup
1365:Drivers/STM32F4xx_HAL_Driver/Src/stm32f4xx_ll_usb.c ****   * @param  USBx  Selected device
1366:Drivers/STM32F4xx_HAL_Driver/Src/stm32f4xx_ll_usb.c ****   * @param  dma USB dma enabled or disabled
1367:Drivers/STM32F4xx_HAL_Driver/Src/stm32f4xx_ll_usb.c ****   *          This parameter can be one of these values:
1368:Drivers/STM32F4xx_HAL_Driver/Src/stm32f4xx_ll_usb.c ****   *           0 : DMA feature not used
1369:Drivers/STM32F4xx_HAL_Driver/Src/stm32f4xx_ll_usb.c ****   *           1 : DMA feature used
1370:Drivers/STM32F4xx_HAL_Driver/Src/stm32f4xx_ll_usb.c ****   * @param  psetup  pointer to setup packet
1371:Drivers/STM32F4xx_HAL_Driver/Src/stm32f4xx_ll_usb.c ****   * @retval HAL status
1372:Drivers/STM32F4xx_HAL_Driver/Src/stm32f4xx_ll_usb.c ****   */
1373:Drivers/STM32F4xx_HAL_Driver/Src/stm32f4xx_ll_usb.c **** HAL_StatusTypeDef USB_EP0_OutStart(const USB_OTG_GlobalTypeDef *USBx, uint8_t dma, const uint8_t *p
1374:Drivers/STM32F4xx_HAL_Driver/Src/stm32f4xx_ll_usb.c **** {
1375:Drivers/STM32F4xx_HAL_Driver/Src/stm32f4xx_ll_usb.c ****   uint32_t USBx_BASE = (uint32_t)USBx;
1376:Drivers/STM32F4xx_HAL_Driver/Src/stm32f4xx_ll_usb.c ****   uint32_t gSNPSiD = *(__IO const uint32_t *)(&USBx->CID + 0x1U);
1377:Drivers/STM32F4xx_HAL_Driver/Src/stm32f4xx_ll_usb.c **** 
1378:Drivers/STM32F4xx_HAL_Driver/Src/stm32f4xx_ll_usb.c ****   if (gSNPSiD > USB_OTG_CORE_ID_300A)
1379:Drivers/STM32F4xx_HAL_Driver/Src/stm32f4xx_ll_usb.c ****   {
1380:Drivers/STM32F4xx_HAL_Driver/Src/stm32f4xx_ll_usb.c ****     if ((USBx_OUTEP(0U)->DOEPCTL & USB_OTG_DOEPCTL_EPENA) == USB_OTG_DOEPCTL_EPENA)
1381:Drivers/STM32F4xx_HAL_Driver/Src/stm32f4xx_ll_usb.c ****     {
1382:Drivers/STM32F4xx_HAL_Driver/Src/stm32f4xx_ll_usb.c ****       return HAL_OK;
1383:Drivers/STM32F4xx_HAL_Driver/Src/stm32f4xx_ll_usb.c ****     }
1384:Drivers/STM32F4xx_HAL_Driver/Src/stm32f4xx_ll_usb.c ****   }
1385:Drivers/STM32F4xx_HAL_Driver/Src/stm32f4xx_ll_usb.c **** 
1386:Drivers/STM32F4xx_HAL_Driver/Src/stm32f4xx_ll_usb.c ****   USBx_OUTEP(0U)->DOEPTSIZ = 0U;
1387:Drivers/STM32F4xx_HAL_Driver/Src/stm32f4xx_ll_usb.c ****   USBx_OUTEP(0U)->DOEPTSIZ |= (USB_OTG_DOEPTSIZ_PKTCNT & (1U << 19));
1388:Drivers/STM32F4xx_HAL_Driver/Src/stm32f4xx_ll_usb.c ****   USBx_OUTEP(0U)->DOEPTSIZ |= (3U * 8U);
1389:Drivers/STM32F4xx_HAL_Driver/Src/stm32f4xx_ll_usb.c ****   USBx_OUTEP(0U)->DOEPTSIZ |=  USB_OTG_DOEPTSIZ_STUPCNT;
1390:Drivers/STM32F4xx_HAL_Driver/Src/stm32f4xx_ll_usb.c **** 
1391:Drivers/STM32F4xx_HAL_Driver/Src/stm32f4xx_ll_usb.c ****   if (dma == 1U)
1392:Drivers/STM32F4xx_HAL_Driver/Src/stm32f4xx_ll_usb.c ****   {
1393:Drivers/STM32F4xx_HAL_Driver/Src/stm32f4xx_ll_usb.c ****     USBx_OUTEP(0U)->DOEPDMA = (uint32_t)psetup;
1394:Drivers/STM32F4xx_HAL_Driver/Src/stm32f4xx_ll_usb.c ****     /* EP enable */
1395:Drivers/STM32F4xx_HAL_Driver/Src/stm32f4xx_ll_usb.c ****     USBx_OUTEP(0U)->DOEPCTL |= USB_OTG_DOEPCTL_EPENA | USB_OTG_DOEPCTL_USBAEP;
1396:Drivers/STM32F4xx_HAL_Driver/Src/stm32f4xx_ll_usb.c ****   }
1397:Drivers/STM32F4xx_HAL_Driver/Src/stm32f4xx_ll_usb.c **** 
1398:Drivers/STM32F4xx_HAL_Driver/Src/stm32f4xx_ll_usb.c ****   return HAL_OK;
ARM GAS  /tmp/cc0ThgoX.s 			page 26


1399:Drivers/STM32F4xx_HAL_Driver/Src/stm32f4xx_ll_usb.c **** }
1400:Drivers/STM32F4xx_HAL_Driver/Src/stm32f4xx_ll_usb.c **** 
1401:Drivers/STM32F4xx_HAL_Driver/Src/stm32f4xx_ll_usb.c **** /**
1402:Drivers/STM32F4xx_HAL_Driver/Src/stm32f4xx_ll_usb.c ****   * @brief  Reset the USB Core (needed after USB clock settings change)
1403:Drivers/STM32F4xx_HAL_Driver/Src/stm32f4xx_ll_usb.c ****   * @param  USBx  Selected device
1404:Drivers/STM32F4xx_HAL_Driver/Src/stm32f4xx_ll_usb.c ****   * @retval HAL status
1405:Drivers/STM32F4xx_HAL_Driver/Src/stm32f4xx_ll_usb.c ****   */
1406:Drivers/STM32F4xx_HAL_Driver/Src/stm32f4xx_ll_usb.c **** static HAL_StatusTypeDef USB_CoreReset(USB_OTG_GlobalTypeDef *USBx)
1407:Drivers/STM32F4xx_HAL_Driver/Src/stm32f4xx_ll_usb.c **** {
  29              		.loc 1 1407 1 view -0
  30              		.cfi_startproc
  31              		@ args = 0, pretend = 0, frame = 8
  32              		@ frame_needed = 0, uses_anonymous_args = 0
  33              		@ link register save eliminated.
  34              		.loc 1 1407 1 is_stmt 0 view .LVU1
  35 0000 82B0     		sub	sp, sp, #8
  36              	.LCFI0:
  37              		.cfi_def_cfa_offset 8
1408:Drivers/STM32F4xx_HAL_Driver/Src/stm32f4xx_ll_usb.c ****   __IO uint32_t count = 0U;
  38              		.loc 1 1408 3 is_stmt 1 view .LVU2
  39              		.loc 1 1408 17 is_stmt 0 view .LVU3
  40 0002 0023     		movs	r3, #0
  41 0004 0193     		str	r3, [sp, #4]
  42              	.L3:
1409:Drivers/STM32F4xx_HAL_Driver/Src/stm32f4xx_ll_usb.c **** 
1410:Drivers/STM32F4xx_HAL_Driver/Src/stm32f4xx_ll_usb.c ****   /* Wait for AHB master IDLE state. */
1411:Drivers/STM32F4xx_HAL_Driver/Src/stm32f4xx_ll_usb.c ****   do
  43              		.loc 1 1411 3 is_stmt 1 view .LVU4
1412:Drivers/STM32F4xx_HAL_Driver/Src/stm32f4xx_ll_usb.c ****   {
1413:Drivers/STM32F4xx_HAL_Driver/Src/stm32f4xx_ll_usb.c ****     count++;
  44              		.loc 1 1413 5 view .LVU5
  45              		.loc 1 1413 10 is_stmt 0 view .LVU6
  46 0006 019B     		ldr	r3, [sp, #4]
  47 0008 0133     		adds	r3, r3, #1
  48 000a 0193     		str	r3, [sp, #4]
1414:Drivers/STM32F4xx_HAL_Driver/Src/stm32f4xx_ll_usb.c **** 
1415:Drivers/STM32F4xx_HAL_Driver/Src/stm32f4xx_ll_usb.c ****     if (count > HAL_USB_TIMEOUT)
  49              		.loc 1 1415 5 is_stmt 1 view .LVU7
  50              		.loc 1 1415 15 is_stmt 0 view .LVU8
  51 000c 019B     		ldr	r3, [sp, #4]
  52              		.loc 1 1415 8 view .LVU9
  53 000e B3F1706F 		cmp	r3, #251658240
  54 0012 1CD8     		bhi	.L7
1416:Drivers/STM32F4xx_HAL_Driver/Src/stm32f4xx_ll_usb.c ****     {
1417:Drivers/STM32F4xx_HAL_Driver/Src/stm32f4xx_ll_usb.c ****       return HAL_TIMEOUT;
1418:Drivers/STM32F4xx_HAL_Driver/Src/stm32f4xx_ll_usb.c ****     }
1419:Drivers/STM32F4xx_HAL_Driver/Src/stm32f4xx_ll_usb.c ****   } while ((USBx->GRSTCTL & USB_OTG_GRSTCTL_AHBIDL) == 0U);
  55              		.loc 1 1419 53 is_stmt 1 view .LVU10
  56              		.loc 1 1419 17 is_stmt 0 view .LVU11
  57 0014 0369     		ldr	r3, [r0, #16]
  58              		.loc 1 1419 53 view .LVU12
  59 0016 002B     		cmp	r3, #0
  60 0018 F5DA     		bge	.L3
1420:Drivers/STM32F4xx_HAL_Driver/Src/stm32f4xx_ll_usb.c **** 
1421:Drivers/STM32F4xx_HAL_Driver/Src/stm32f4xx_ll_usb.c ****   count = 10U;
  61              		.loc 1 1421 3 is_stmt 1 view .LVU13
  62              		.loc 1 1421 9 is_stmt 0 view .LVU14
ARM GAS  /tmp/cc0ThgoX.s 			page 27


  63 001a 0A23     		movs	r3, #10
  64 001c 0193     		str	r3, [sp, #4]
1422:Drivers/STM32F4xx_HAL_Driver/Src/stm32f4xx_ll_usb.c **** 
1423:Drivers/STM32F4xx_HAL_Driver/Src/stm32f4xx_ll_usb.c ****   /* few cycles before setting core reset */
1424:Drivers/STM32F4xx_HAL_Driver/Src/stm32f4xx_ll_usb.c ****   while (count > 0U)
  65              		.loc 1 1424 3 is_stmt 1 view .LVU15
  66              		.loc 1 1424 9 is_stmt 0 view .LVU16
  67 001e 02E0     		b	.L4
  68              	.L5:
1425:Drivers/STM32F4xx_HAL_Driver/Src/stm32f4xx_ll_usb.c ****   {
1426:Drivers/STM32F4xx_HAL_Driver/Src/stm32f4xx_ll_usb.c ****     count--;
  69              		.loc 1 1426 5 is_stmt 1 view .LVU17
  70              		.loc 1 1426 10 is_stmt 0 view .LVU18
  71 0020 019B     		ldr	r3, [sp, #4]
  72 0022 013B     		subs	r3, r3, #1
  73 0024 0193     		str	r3, [sp, #4]
  74              	.L4:
1424:Drivers/STM32F4xx_HAL_Driver/Src/stm32f4xx_ll_usb.c ****   {
  75              		.loc 1 1424 16 is_stmt 1 view .LVU19
  76 0026 019B     		ldr	r3, [sp, #4]
  77 0028 002B     		cmp	r3, #0
  78 002a F9D1     		bne	.L5
1427:Drivers/STM32F4xx_HAL_Driver/Src/stm32f4xx_ll_usb.c ****   }
1428:Drivers/STM32F4xx_HAL_Driver/Src/stm32f4xx_ll_usb.c **** 
1429:Drivers/STM32F4xx_HAL_Driver/Src/stm32f4xx_ll_usb.c ****   /* Core Soft Reset */
1430:Drivers/STM32F4xx_HAL_Driver/Src/stm32f4xx_ll_usb.c ****   USBx->GRSTCTL |= USB_OTG_GRSTCTL_CSRST;
  79              		.loc 1 1430 3 view .LVU20
  80              		.loc 1 1430 7 is_stmt 0 view .LVU21
  81 002c 0369     		ldr	r3, [r0, #16]
  82              		.loc 1 1430 17 view .LVU22
  83 002e 43F00103 		orr	r3, r3, #1
  84 0032 0361     		str	r3, [r0, #16]
  85              	.L6:
1431:Drivers/STM32F4xx_HAL_Driver/Src/stm32f4xx_ll_usb.c **** 
1432:Drivers/STM32F4xx_HAL_Driver/Src/stm32f4xx_ll_usb.c ****   do
  86              		.loc 1 1432 3 is_stmt 1 view .LVU23
1433:Drivers/STM32F4xx_HAL_Driver/Src/stm32f4xx_ll_usb.c ****   {
1434:Drivers/STM32F4xx_HAL_Driver/Src/stm32f4xx_ll_usb.c ****     count++;
  87              		.loc 1 1434 5 view .LVU24
  88              		.loc 1 1434 10 is_stmt 0 view .LVU25
  89 0034 019B     		ldr	r3, [sp, #4]
  90 0036 0133     		adds	r3, r3, #1
  91 0038 0193     		str	r3, [sp, #4]
1435:Drivers/STM32F4xx_HAL_Driver/Src/stm32f4xx_ll_usb.c **** 
1436:Drivers/STM32F4xx_HAL_Driver/Src/stm32f4xx_ll_usb.c ****     if (count > HAL_USB_TIMEOUT)
  92              		.loc 1 1436 5 is_stmt 1 view .LVU26
  93              		.loc 1 1436 15 is_stmt 0 view .LVU27
  94 003a 019B     		ldr	r3, [sp, #4]
  95              		.loc 1 1436 8 view .LVU28
  96 003c B3F1706F 		cmp	r3, #251658240
  97 0040 08D8     		bhi	.L8
1437:Drivers/STM32F4xx_HAL_Driver/Src/stm32f4xx_ll_usb.c ****     {
1438:Drivers/STM32F4xx_HAL_Driver/Src/stm32f4xx_ll_usb.c ****       return HAL_TIMEOUT;
1439:Drivers/STM32F4xx_HAL_Driver/Src/stm32f4xx_ll_usb.c ****     }
1440:Drivers/STM32F4xx_HAL_Driver/Src/stm32f4xx_ll_usb.c ****   } while ((USBx->GRSTCTL & USB_OTG_GRSTCTL_CSRST) == USB_OTG_GRSTCTL_CSRST);
  98              		.loc 1 1440 52 is_stmt 1 view .LVU29
  99              		.loc 1 1440 17 is_stmt 0 view .LVU30
ARM GAS  /tmp/cc0ThgoX.s 			page 28


 100 0042 0369     		ldr	r3, [r0, #16]
 101              		.loc 1 1440 52 view .LVU31
 102 0044 13F0010F 		tst	r3, #1
 103 0048 F4D1     		bne	.L6
1441:Drivers/STM32F4xx_HAL_Driver/Src/stm32f4xx_ll_usb.c **** 
1442:Drivers/STM32F4xx_HAL_Driver/Src/stm32f4xx_ll_usb.c ****   return HAL_OK;
 104              		.loc 1 1442 10 view .LVU32
 105 004a 0020     		movs	r0, #0
 106              	.LVL1:
 107              		.loc 1 1442 10 view .LVU33
 108 004c 00E0     		b	.L2
 109              	.LVL2:
 110              	.L7:
1417:Drivers/STM32F4xx_HAL_Driver/Src/stm32f4xx_ll_usb.c ****     }
 111              		.loc 1 1417 14 view .LVU34
 112 004e 0320     		movs	r0, #3
 113              	.LVL3:
 114              	.L2:
1443:Drivers/STM32F4xx_HAL_Driver/Src/stm32f4xx_ll_usb.c **** }
 115              		.loc 1 1443 1 view .LVU35
 116 0050 02B0     		add	sp, sp, #8
 117              	.LCFI1:
 118              		.cfi_remember_state
 119              		.cfi_def_cfa_offset 0
 120              		@ sp needed
 121 0052 7047     		bx	lr
 122              	.LVL4:
 123              	.L8:
 124              	.LCFI2:
 125              		.cfi_restore_state
1438:Drivers/STM32F4xx_HAL_Driver/Src/stm32f4xx_ll_usb.c ****     }
 126              		.loc 1 1438 14 view .LVU36
 127 0054 0320     		movs	r0, #3
 128              	.LVL5:
1438:Drivers/STM32F4xx_HAL_Driver/Src/stm32f4xx_ll_usb.c ****     }
 129              		.loc 1 1438 14 view .LVU37
 130 0056 FBE7     		b	.L2
 131              		.cfi_endproc
 132              	.LFE168:
 134              		.section	.text.USB_CoreInit,"ax",%progbits
 135              		.align	1
 136              		.global	USB_CoreInit
 137              		.syntax unified
 138              		.thumb
 139              		.thumb_func
 141              	USB_CoreInit:
 142              	.LVL6:
 143              	.LFB134:
  84:Drivers/STM32F4xx_HAL_Driver/Src/stm32f4xx_ll_usb.c ****   HAL_StatusTypeDef ret;
 144              		.loc 1 84 1 is_stmt 1 view -0
 145              		.cfi_startproc
 146              		@ args = 20, pretend = 16, frame = 0
 147              		@ frame_needed = 0, uses_anonymous_args = 0
  84:Drivers/STM32F4xx_HAL_Driver/Src/stm32f4xx_ll_usb.c ****   HAL_StatusTypeDef ret;
 148              		.loc 1 84 1 is_stmt 0 view .LVU39
 149 0000 84B0     		sub	sp, sp, #16
 150              	.LCFI3:
ARM GAS  /tmp/cc0ThgoX.s 			page 29


 151              		.cfi_def_cfa_offset 16
 152 0002 10B5     		push	{r4, lr}
 153              	.LCFI4:
 154              		.cfi_def_cfa_offset 24
 155              		.cfi_offset 4, -24
 156              		.cfi_offset 14, -20
 157 0004 0446     		mov	r4, r0
 158 0006 03A8     		add	r0, sp, #12
 159              	.LVL7:
  84:Drivers/STM32F4xx_HAL_Driver/Src/stm32f4xx_ll_usb.c ****   HAL_StatusTypeDef ret;
 160              		.loc 1 84 1 view .LVU40
 161 0008 80E80E00 		stm	r0, {r1, r2, r3}
  85:Drivers/STM32F4xx_HAL_Driver/Src/stm32f4xx_ll_usb.c ****   if (cfg.phy_itface == USB_OTG_ULPI_PHY)
 162              		.loc 1 85 3 is_stmt 1 view .LVU41
  86:Drivers/STM32F4xx_HAL_Driver/Src/stm32f4xx_ll_usb.c ****   {
 163              		.loc 1 86 3 view .LVU42
  86:Drivers/STM32F4xx_HAL_Driver/Src/stm32f4xx_ll_usb.c ****   {
 164              		.loc 1 86 10 is_stmt 0 view .LVU43
 165 000c 9DF81130 		ldrb	r3, [sp, #17]	@ zero_extendqisi2
  86:Drivers/STM32F4xx_HAL_Driver/Src/stm32f4xx_ll_usb.c ****   {
 166              		.loc 1 86 6 view .LVU44
 167 0010 012B     		cmp	r3, #1
 168 0012 21D1     		bne	.L11
  88:Drivers/STM32F4xx_HAL_Driver/Src/stm32f4xx_ll_usb.c **** 
 169              		.loc 1 88 5 is_stmt 1 view .LVU45
  88:Drivers/STM32F4xx_HAL_Driver/Src/stm32f4xx_ll_usb.c **** 
 170              		.loc 1 88 9 is_stmt 0 view .LVU46
 171 0014 A36B     		ldr	r3, [r4, #56]
  88:Drivers/STM32F4xx_HAL_Driver/Src/stm32f4xx_ll_usb.c **** 
 172              		.loc 1 88 17 view .LVU47
 173 0016 23F48033 		bic	r3, r3, #65536
 174 001a A363     		str	r3, [r4, #56]
  91:Drivers/STM32F4xx_HAL_Driver/Src/stm32f4xx_ll_usb.c **** 
 175              		.loc 1 91 5 is_stmt 1 view .LVU48
  91:Drivers/STM32F4xx_HAL_Driver/Src/stm32f4xx_ll_usb.c **** 
 176              		.loc 1 91 9 is_stmt 0 view .LVU49
 177 001c E368     		ldr	r3, [r4, #12]
  91:Drivers/STM32F4xx_HAL_Driver/Src/stm32f4xx_ll_usb.c **** 
 178              		.loc 1 91 19 view .LVU50
 179 001e 23F48403 		bic	r3, r3, #4325376
 180 0022 23F04003 		bic	r3, r3, #64
 181 0026 E360     		str	r3, [r4, #12]
  94:Drivers/STM32F4xx_HAL_Driver/Src/stm32f4xx_ll_usb.c ****     if (cfg.use_external_vbus == 1U)
 182              		.loc 1 94 5 is_stmt 1 view .LVU51
  94:Drivers/STM32F4xx_HAL_Driver/Src/stm32f4xx_ll_usb.c ****     if (cfg.use_external_vbus == 1U)
 183              		.loc 1 94 9 is_stmt 0 view .LVU52
 184 0028 E368     		ldr	r3, [r4, #12]
  94:Drivers/STM32F4xx_HAL_Driver/Src/stm32f4xx_ll_usb.c ****     if (cfg.use_external_vbus == 1U)
 185              		.loc 1 94 19 view .LVU53
 186 002a 23F44013 		bic	r3, r3, #3145728
 187 002e E360     		str	r3, [r4, #12]
  95:Drivers/STM32F4xx_HAL_Driver/Src/stm32f4xx_ll_usb.c ****     {
 188              		.loc 1 95 5 is_stmt 1 view .LVU54
  95:Drivers/STM32F4xx_HAL_Driver/Src/stm32f4xx_ll_usb.c ****     {
 189              		.loc 1 95 12 is_stmt 0 view .LVU55
 190 0030 9DF81830 		ldrb	r3, [sp, #24]	@ zero_extendqisi2
  95:Drivers/STM32F4xx_HAL_Driver/Src/stm32f4xx_ll_usb.c ****     {
ARM GAS  /tmp/cc0ThgoX.s 			page 30


 191              		.loc 1 95 8 view .LVU56
 192 0034 012B     		cmp	r3, #1
 193 0036 0AD0     		beq	.L17
 194              	.L12:
 101:Drivers/STM32F4xx_HAL_Driver/Src/stm32f4xx_ll_usb.c ****   }
 195              		.loc 1 101 5 is_stmt 1 view .LVU57
 101:Drivers/STM32F4xx_HAL_Driver/Src/stm32f4xx_ll_usb.c ****   }
 196              		.loc 1 101 11 is_stmt 0 view .LVU58
 197 0038 2046     		mov	r0, r4
 198 003a FFF7FEFF 		bl	USB_CoreReset
 199              	.LVL8:
 200              	.L13:
 123:Drivers/STM32F4xx_HAL_Driver/Src/stm32f4xx_ll_usb.c ****   {
 201              		.loc 1 123 3 is_stmt 1 view .LVU59
 123:Drivers/STM32F4xx_HAL_Driver/Src/stm32f4xx_ll_usb.c ****   {
 202              		.loc 1 123 10 is_stmt 0 view .LVU60
 203 003e 9DF80E30 		ldrb	r3, [sp, #14]	@ zero_extendqisi2
 123:Drivers/STM32F4xx_HAL_Driver/Src/stm32f4xx_ll_usb.c ****   {
 204              		.loc 1 123 6 view .LVU61
 205 0042 012B     		cmp	r3, #1
 206 0044 1CD0     		beq	.L18
 207              	.L15:
 129:Drivers/STM32F4xx_HAL_Driver/Src/stm32f4xx_ll_usb.c **** }
 208              		.loc 1 129 3 is_stmt 1 view .LVU62
 130:Drivers/STM32F4xx_HAL_Driver/Src/stm32f4xx_ll_usb.c **** 
 209              		.loc 1 130 1 is_stmt 0 view .LVU63
 210 0046 BDE81040 		pop	{r4, lr}
 211              	.LCFI5:
 212              		.cfi_remember_state
 213              		.cfi_restore 14
 214              		.cfi_restore 4
 215              		.cfi_def_cfa_offset 16
 216              	.LVL9:
 130:Drivers/STM32F4xx_HAL_Driver/Src/stm32f4xx_ll_usb.c **** 
 217              		.loc 1 130 1 view .LVU64
 218 004a 04B0     		add	sp, sp, #16
 219              	.LCFI6:
 220              		.cfi_def_cfa_offset 0
 221 004c 7047     		bx	lr
 222              	.LVL10:
 223              	.L17:
 224              	.LCFI7:
 225              		.cfi_restore_state
  97:Drivers/STM32F4xx_HAL_Driver/Src/stm32f4xx_ll_usb.c ****     }
 226              		.loc 1 97 7 is_stmt 1 view .LVU65
  97:Drivers/STM32F4xx_HAL_Driver/Src/stm32f4xx_ll_usb.c ****     }
 227              		.loc 1 97 11 is_stmt 0 view .LVU66
 228 004e E368     		ldr	r3, [r4, #12]
  97:Drivers/STM32F4xx_HAL_Driver/Src/stm32f4xx_ll_usb.c ****     }
 229              		.loc 1 97 21 view .LVU67
 230 0050 43F48013 		orr	r3, r3, #1048576
 231 0054 E360     		str	r3, [r4, #12]
 232 0056 EFE7     		b	.L12
 233              	.L11:
 106:Drivers/STM32F4xx_HAL_Driver/Src/stm32f4xx_ll_usb.c **** 
 234              		.loc 1 106 5 is_stmt 1 view .LVU68
 106:Drivers/STM32F4xx_HAL_Driver/Src/stm32f4xx_ll_usb.c **** 
ARM GAS  /tmp/cc0ThgoX.s 			page 31


 235              		.loc 1 106 9 is_stmt 0 view .LVU69
 236 0058 E368     		ldr	r3, [r4, #12]
 106:Drivers/STM32F4xx_HAL_Driver/Src/stm32f4xx_ll_usb.c **** 
 237              		.loc 1 106 19 view .LVU70
 238 005a 43F04003 		orr	r3, r3, #64
 239 005e E360     		str	r3, [r4, #12]
 109:Drivers/STM32F4xx_HAL_Driver/Src/stm32f4xx_ll_usb.c **** 
 240              		.loc 1 109 5 is_stmt 1 view .LVU71
 109:Drivers/STM32F4xx_HAL_Driver/Src/stm32f4xx_ll_usb.c **** 
 241              		.loc 1 109 11 is_stmt 0 view .LVU72
 242 0060 2046     		mov	r0, r4
 243 0062 FFF7FEFF 		bl	USB_CoreReset
 244              	.LVL11:
 111:Drivers/STM32F4xx_HAL_Driver/Src/stm32f4xx_ll_usb.c ****     {
 245              		.loc 1 111 5 is_stmt 1 view .LVU73
 111:Drivers/STM32F4xx_HAL_Driver/Src/stm32f4xx_ll_usb.c ****     {
 246              		.loc 1 111 12 is_stmt 0 view .LVU74
 247 0066 9DF81530 		ldrb	r3, [sp, #21]	@ zero_extendqisi2
 111:Drivers/STM32F4xx_HAL_Driver/Src/stm32f4xx_ll_usb.c ****     {
 248              		.loc 1 111 8 view .LVU75
 249 006a 23B9     		cbnz	r3, .L14
 114:Drivers/STM32F4xx_HAL_Driver/Src/stm32f4xx_ll_usb.c ****     }
 250              		.loc 1 114 7 is_stmt 1 view .LVU76
 114:Drivers/STM32F4xx_HAL_Driver/Src/stm32f4xx_ll_usb.c ****     }
 251              		.loc 1 114 11 is_stmt 0 view .LVU77
 252 006c A36B     		ldr	r3, [r4, #56]
 114:Drivers/STM32F4xx_HAL_Driver/Src/stm32f4xx_ll_usb.c ****     }
 253              		.loc 1 114 19 view .LVU78
 254 006e 43F48033 		orr	r3, r3, #65536
 255 0072 A363     		str	r3, [r4, #56]
 256 0074 E3E7     		b	.L13
 257              	.L14:
 119:Drivers/STM32F4xx_HAL_Driver/Src/stm32f4xx_ll_usb.c ****     }
 258              		.loc 1 119 7 is_stmt 1 view .LVU79
 119:Drivers/STM32F4xx_HAL_Driver/Src/stm32f4xx_ll_usb.c ****     }
 259              		.loc 1 119 11 is_stmt 0 view .LVU80
 260 0076 A36B     		ldr	r3, [r4, #56]
 119:Drivers/STM32F4xx_HAL_Driver/Src/stm32f4xx_ll_usb.c ****     }
 261              		.loc 1 119 19 view .LVU81
 262 0078 23F48033 		bic	r3, r3, #65536
 263 007c A363     		str	r3, [r4, #56]
 264 007e DEE7     		b	.L13
 265              	.L18:
 125:Drivers/STM32F4xx_HAL_Driver/Src/stm32f4xx_ll_usb.c ****     USBx->GAHBCFG |= USB_OTG_GAHBCFG_DMAEN;
 266              		.loc 1 125 5 is_stmt 1 view .LVU82
 125:Drivers/STM32F4xx_HAL_Driver/Src/stm32f4xx_ll_usb.c ****     USBx->GAHBCFG |= USB_OTG_GAHBCFG_DMAEN;
 267              		.loc 1 125 9 is_stmt 0 view .LVU83
 268 0080 A368     		ldr	r3, [r4, #8]
 125:Drivers/STM32F4xx_HAL_Driver/Src/stm32f4xx_ll_usb.c ****     USBx->GAHBCFG |= USB_OTG_GAHBCFG_DMAEN;
 269              		.loc 1 125 19 view .LVU84
 270 0082 43F00603 		orr	r3, r3, #6
 271 0086 A360     		str	r3, [r4, #8]
 126:Drivers/STM32F4xx_HAL_Driver/Src/stm32f4xx_ll_usb.c ****   }
 272              		.loc 1 126 5 is_stmt 1 view .LVU85
 126:Drivers/STM32F4xx_HAL_Driver/Src/stm32f4xx_ll_usb.c ****   }
 273              		.loc 1 126 9 is_stmt 0 view .LVU86
 274 0088 A368     		ldr	r3, [r4, #8]
ARM GAS  /tmp/cc0ThgoX.s 			page 32


 126:Drivers/STM32F4xx_HAL_Driver/Src/stm32f4xx_ll_usb.c ****   }
 275              		.loc 1 126 19 view .LVU87
 276 008a 43F02003 		orr	r3, r3, #32
 277 008e A360     		str	r3, [r4, #8]
 278 0090 D9E7     		b	.L15
 279              		.cfi_endproc
 280              	.LFE134:
 282              		.section	.text.USB_SetTurnaroundTime,"ax",%progbits
 283              		.align	1
 284              		.global	USB_SetTurnaroundTime
 285              		.syntax unified
 286              		.thumb
 287              		.thumb_func
 289              	USB_SetTurnaroundTime:
 290              	.LVL12:
 291              	.LFB135:
 141:Drivers/STM32F4xx_HAL_Driver/Src/stm32f4xx_ll_usb.c ****   uint32_t UsbTrd;
 292              		.loc 1 141 1 is_stmt 1 view -0
 293              		.cfi_startproc
 294              		@ args = 0, pretend = 0, frame = 0
 295              		@ frame_needed = 0, uses_anonymous_args = 0
 296              		@ link register save eliminated.
 142:Drivers/STM32F4xx_HAL_Driver/Src/stm32f4xx_ll_usb.c **** 
 297              		.loc 1 142 3 view .LVU89
 148:Drivers/STM32F4xx_HAL_Driver/Src/stm32f4xx_ll_usb.c ****   {
 298              		.loc 1 148 3 view .LVU90
 148:Drivers/STM32F4xx_HAL_Driver/Src/stm32f4xx_ll_usb.c ****   {
 299              		.loc 1 148 6 is_stmt 0 view .LVU91
 300 0000 022A     		cmp	r2, #2
 301 0002 0AD0     		beq	.L31
 203:Drivers/STM32F4xx_HAL_Driver/Src/stm32f4xx_ll_usb.c ****   }
 302              		.loc 1 203 12 view .LVU92
 303 0004 0922     		movs	r2, #9
 304              	.LVL13:
 305              	.L20:
 210:Drivers/STM32F4xx_HAL_Driver/Src/stm32f4xx_ll_usb.c ****   USBx->GUSBCFG |= (uint32_t)((UsbTrd << 10) & USB_OTG_GUSBCFG_TRDT);
 306              		.loc 1 210 3 is_stmt 1 view .LVU93
 210:Drivers/STM32F4xx_HAL_Driver/Src/stm32f4xx_ll_usb.c ****   USBx->GUSBCFG |= (uint32_t)((UsbTrd << 10) & USB_OTG_GUSBCFG_TRDT);
 307              		.loc 1 210 7 is_stmt 0 view .LVU94
 308 0006 C368     		ldr	r3, [r0, #12]
 210:Drivers/STM32F4xx_HAL_Driver/Src/stm32f4xx_ll_usb.c ****   USBx->GUSBCFG |= (uint32_t)((UsbTrd << 10) & USB_OTG_GUSBCFG_TRDT);
 309              		.loc 1 210 17 view .LVU95
 310 0008 23F47053 		bic	r3, r3, #15360
 311 000c C360     		str	r3, [r0, #12]
 211:Drivers/STM32F4xx_HAL_Driver/Src/stm32f4xx_ll_usb.c **** 
 312              		.loc 1 211 3 is_stmt 1 view .LVU96
 211:Drivers/STM32F4xx_HAL_Driver/Src/stm32f4xx_ll_usb.c **** 
 313              		.loc 1 211 7 is_stmt 0 view .LVU97
 314 000e C368     		ldr	r3, [r0, #12]
 211:Drivers/STM32F4xx_HAL_Driver/Src/stm32f4xx_ll_usb.c **** 
 315              		.loc 1 211 17 view .LVU98
 316 0010 43EA8223 		orr	r3, r3, r2, lsl #10
 317 0014 C360     		str	r3, [r0, #12]
 213:Drivers/STM32F4xx_HAL_Driver/Src/stm32f4xx_ll_usb.c **** }
 318              		.loc 1 213 3 is_stmt 1 view .LVU99
 214:Drivers/STM32F4xx_HAL_Driver/Src/stm32f4xx_ll_usb.c **** 
 319              		.loc 1 214 1 is_stmt 0 view .LVU100
ARM GAS  /tmp/cc0ThgoX.s 			page 33


 320 0016 0020     		movs	r0, #0
 321              	.LVL14:
 214:Drivers/STM32F4xx_HAL_Driver/Src/stm32f4xx_ll_usb.c **** 
 322              		.loc 1 214 1 view .LVU101
 323 0018 7047     		bx	lr
 324              	.LVL15:
 325              	.L31:
 150:Drivers/STM32F4xx_HAL_Driver/Src/stm32f4xx_ll_usb.c ****     {
 326              		.loc 1 150 5 is_stmt 1 view .LVU102
 150:Drivers/STM32F4xx_HAL_Driver/Src/stm32f4xx_ll_usb.c ****     {
 327              		.loc 1 150 29 is_stmt 0 view .LVU103
 328 001a 234B     		ldr	r3, .L32
 329 001c 0B44     		add	r3, r3, r1
 150:Drivers/STM32F4xx_HAL_Driver/Src/stm32f4xx_ll_usb.c ****     {
 330              		.loc 1 150 8 view .LVU104
 331 001e 234A     		ldr	r2, .L32+4
 332              	.LVL16:
 150:Drivers/STM32F4xx_HAL_Driver/Src/stm32f4xx_ll_usb.c ****     {
 333              		.loc 1 150 8 view .LVU105
 334 0020 9342     		cmp	r3, r2
 335 0022 2FD9     		bls	.L22
 155:Drivers/STM32F4xx_HAL_Driver/Src/stm32f4xx_ll_usb.c ****     {
 336              		.loc 1 155 10 is_stmt 1 view .LVU106
 155:Drivers/STM32F4xx_HAL_Driver/Src/stm32f4xx_ll_usb.c ****     {
 337              		.loc 1 155 34 is_stmt 0 view .LVU107
 338 0024 224B     		ldr	r3, .L32+8
 339 0026 0B44     		add	r3, r3, r1
 155:Drivers/STM32F4xx_HAL_Driver/Src/stm32f4xx_ll_usb.c ****     {
 340              		.loc 1 155 13 view .LVU108
 341 0028 224A     		ldr	r2, .L32+12
 342 002a 9342     		cmp	r3, r2
 343 002c 2CD9     		bls	.L23
 160:Drivers/STM32F4xx_HAL_Driver/Src/stm32f4xx_ll_usb.c ****     {
 344              		.loc 1 160 10 is_stmt 1 view .LVU109
 160:Drivers/STM32F4xx_HAL_Driver/Src/stm32f4xx_ll_usb.c ****     {
 345              		.loc 1 160 34 is_stmt 0 view .LVU110
 346 002e A1F57403 		sub	r3, r1, #15990784
 347 0032 A3F51053 		sub	r3, r3, #9216
 160:Drivers/STM32F4xx_HAL_Driver/Src/stm32f4xx_ll_usb.c ****     {
 348              		.loc 1 160 13 view .LVU111
 349 0036 204A     		ldr	r2, .L32+16
 350 0038 9342     		cmp	r3, r2
 351 003a 27D9     		bls	.L24
 165:Drivers/STM32F4xx_HAL_Driver/Src/stm32f4xx_ll_usb.c ****     {
 352              		.loc 1 165 10 is_stmt 1 view .LVU112
 165:Drivers/STM32F4xx_HAL_Driver/Src/stm32f4xx_ll_usb.c ****     {
 353              		.loc 1 165 34 is_stmt 0 view .LVU113
 354 003c A1F18373 		sub	r3, r1, #17170432
 355 0040 A3F5E743 		sub	r3, r3, #29568
 165:Drivers/STM32F4xx_HAL_Driver/Src/stm32f4xx_ll_usb.c ****     {
 356              		.loc 1 165 13 view .LVU114
 357 0044 1D4A     		ldr	r2, .L32+20
 358 0046 9342     		cmp	r3, r2
 359 0048 22D3     		bcc	.L25
 170:Drivers/STM32F4xx_HAL_Driver/Src/stm32f4xx_ll_usb.c ****     {
 360              		.loc 1 170 10 is_stmt 1 view .LVU115
 170:Drivers/STM32F4xx_HAL_Driver/Src/stm32f4xx_ll_usb.c ****     {
ARM GAS  /tmp/cc0ThgoX.s 			page 34


 361              		.loc 1 170 34 is_stmt 0 view .LVU116
 362 004a 1D4B     		ldr	r3, .L32+24
 363 004c 0B44     		add	r3, r3, r1
 170:Drivers/STM32F4xx_HAL_Driver/Src/stm32f4xx_ll_usb.c ****     {
 364              		.loc 1 170 13 view .LVU117
 365 004e 1D4A     		ldr	r2, .L32+28
 366 0050 9342     		cmp	r3, r2
 367 0052 1FD9     		bls	.L26
 175:Drivers/STM32F4xx_HAL_Driver/Src/stm32f4xx_ll_usb.c ****     {
 368              		.loc 1 175 10 is_stmt 1 view .LVU118
 175:Drivers/STM32F4xx_HAL_Driver/Src/stm32f4xx_ll_usb.c ****     {
 369              		.loc 1 175 34 is_stmt 0 view .LVU119
 370 0054 1C4B     		ldr	r3, .L32+32
 371 0056 0B44     		add	r3, r3, r1
 175:Drivers/STM32F4xx_HAL_Driver/Src/stm32f4xx_ll_usb.c ****     {
 372              		.loc 1 175 13 view .LVU120
 373 0058 1C4A     		ldr	r2, .L32+36
 374 005a 9342     		cmp	r3, r2
 375 005c 1CD3     		bcc	.L27
 180:Drivers/STM32F4xx_HAL_Driver/Src/stm32f4xx_ll_usb.c ****     {
 376              		.loc 1 180 10 is_stmt 1 view .LVU121
 180:Drivers/STM32F4xx_HAL_Driver/Src/stm32f4xx_ll_usb.c ****     {
 377              		.loc 1 180 34 is_stmt 0 view .LVU122
 378 005e 1C4B     		ldr	r3, .L32+40
 379 0060 0B44     		add	r3, r3, r1
 180:Drivers/STM32F4xx_HAL_Driver/Src/stm32f4xx_ll_usb.c ****     {
 380              		.loc 1 180 13 view .LVU123
 381 0062 1C4A     		ldr	r2, .L32+44
 382 0064 9342     		cmp	r3, r2
 383 0066 19D3     		bcc	.L28
 185:Drivers/STM32F4xx_HAL_Driver/Src/stm32f4xx_ll_usb.c ****     {
 384              		.loc 1 185 10 is_stmt 1 view .LVU124
 185:Drivers/STM32F4xx_HAL_Driver/Src/stm32f4xx_ll_usb.c ****     {
 385              		.loc 1 185 34 is_stmt 0 view .LVU125
 386 0068 A1F1B773 		sub	r3, r1, #23986176
 387 006c A3F55853 		sub	r3, r3, #13824
 185:Drivers/STM32F4xx_HAL_Driver/Src/stm32f4xx_ll_usb.c ****     {
 388              		.loc 1 185 13 view .LVU126
 389 0070 194A     		ldr	r2, .L32+48
 390 0072 9342     		cmp	r3, r2
 391 0074 14D3     		bcc	.L29
 190:Drivers/STM32F4xx_HAL_Driver/Src/stm32f4xx_ll_usb.c ****     {
 392              		.loc 1 190 10 is_stmt 1 view .LVU127
 190:Drivers/STM32F4xx_HAL_Driver/Src/stm32f4xx_ll_usb.c ****     {
 393              		.loc 1 190 34 is_stmt 0 view .LVU128
 394 0076 194B     		ldr	r3, .L32+52
 395 0078 0B44     		add	r3, r3, r1
 190:Drivers/STM32F4xx_HAL_Driver/Src/stm32f4xx_ll_usb.c ****     {
 396              		.loc 1 190 13 view .LVU129
 397 007a 194A     		ldr	r2, .L32+56
 398 007c 9342     		cmp	r3, r2
 399 007e 11D2     		bcs	.L30
 193:Drivers/STM32F4xx_HAL_Driver/Src/stm32f4xx_ll_usb.c ****     }
 400              		.loc 1 193 14 view .LVU130
 401 0080 0722     		movs	r2, #7
 402 0082 C0E7     		b	.L20
 403              	.L22:
ARM GAS  /tmp/cc0ThgoX.s 			page 35


 153:Drivers/STM32F4xx_HAL_Driver/Src/stm32f4xx_ll_usb.c ****     }
 404              		.loc 1 153 14 view .LVU131
 405 0084 0F22     		movs	r2, #15
 406 0086 BEE7     		b	.L20
 407              	.L23:
 158:Drivers/STM32F4xx_HAL_Driver/Src/stm32f4xx_ll_usb.c ****     }
 408              		.loc 1 158 14 view .LVU132
 409 0088 0E22     		movs	r2, #14
 410 008a BCE7     		b	.L20
 411              	.L24:
 163:Drivers/STM32F4xx_HAL_Driver/Src/stm32f4xx_ll_usb.c ****     }
 412              		.loc 1 163 14 view .LVU133
 413 008c 0D22     		movs	r2, #13
 414 008e BAE7     		b	.L20
 415              	.L25:
 168:Drivers/STM32F4xx_HAL_Driver/Src/stm32f4xx_ll_usb.c ****     }
 416              		.loc 1 168 14 view .LVU134
 417 0090 0C22     		movs	r2, #12
 418 0092 B8E7     		b	.L20
 419              	.L26:
 173:Drivers/STM32F4xx_HAL_Driver/Src/stm32f4xx_ll_usb.c ****     }
 420              		.loc 1 173 14 view .LVU135
 421 0094 0B22     		movs	r2, #11
 422 0096 B6E7     		b	.L20
 423              	.L27:
 178:Drivers/STM32F4xx_HAL_Driver/Src/stm32f4xx_ll_usb.c ****     }
 424              		.loc 1 178 14 view .LVU136
 425 0098 0A22     		movs	r2, #10
 426 009a B4E7     		b	.L20
 427              	.L28:
 183:Drivers/STM32F4xx_HAL_Driver/Src/stm32f4xx_ll_usb.c ****     }
 428              		.loc 1 183 14 view .LVU137
 429 009c 0922     		movs	r2, #9
 430 009e B2E7     		b	.L20
 431              	.L29:
 188:Drivers/STM32F4xx_HAL_Driver/Src/stm32f4xx_ll_usb.c ****     }
 432              		.loc 1 188 14 view .LVU138
 433 00a0 0822     		movs	r2, #8
 434 00a2 B0E7     		b	.L20
 435              	.L30:
 198:Drivers/STM32F4xx_HAL_Driver/Src/stm32f4xx_ll_usb.c ****     }
 436              		.loc 1 198 14 view .LVU139
 437 00a4 0622     		movs	r2, #6
 438 00a6 AEE7     		b	.L20
 439              	.L33:
 440              		.align	2
 441              	.L32:
 442 00a8 405327FF 		.word	-14200000
 443 00ac FF340C00 		.word	799999
 444 00b0 401E1BFF 		.word	-15000000
 445 00b4 3F420F00 		.word	999999
 446 00b8 7F4F1200 		.word	1199999
 447 00bc 20D61300 		.word	1300000
 448 00c0 60B6E5FE 		.word	-18500000
 449 00c4 5FE31600 		.word	1499999
 450 00c8 00D3CEFE 		.word	-20000000
 451 00cc 40771B00 		.word	1800000
ARM GAS  /tmp/cc0ThgoX.s 			page 36


 452 00d0 C05BB3FE 		.word	-21800000
 453 00d4 C0912100 		.word	2200000
 454 00d8 20753800 		.word	3700000
 455 00dc E05459FE 		.word	-27700000
 456 00e0 E09C4100 		.word	4300000
 457              		.cfi_endproc
 458              	.LFE135:
 460              		.section	.text.USB_EnableGlobalInt,"ax",%progbits
 461              		.align	1
 462              		.global	USB_EnableGlobalInt
 463              		.syntax unified
 464              		.thumb
 465              		.thumb_func
 467              	USB_EnableGlobalInt:
 468              	.LVL17:
 469              	.LFB136:
 223:Drivers/STM32F4xx_HAL_Driver/Src/stm32f4xx_ll_usb.c ****   USBx->GAHBCFG |= USB_OTG_GAHBCFG_GINT;
 470              		.loc 1 223 1 is_stmt 1 view -0
 471              		.cfi_startproc
 472              		@ args = 0, pretend = 0, frame = 0
 473              		@ frame_needed = 0, uses_anonymous_args = 0
 474              		@ link register save eliminated.
 224:Drivers/STM32F4xx_HAL_Driver/Src/stm32f4xx_ll_usb.c ****   return HAL_OK;
 475              		.loc 1 224 3 view .LVU141
 224:Drivers/STM32F4xx_HAL_Driver/Src/stm32f4xx_ll_usb.c ****   return HAL_OK;
 476              		.loc 1 224 7 is_stmt 0 view .LVU142
 477 0000 8368     		ldr	r3, [r0, #8]
 224:Drivers/STM32F4xx_HAL_Driver/Src/stm32f4xx_ll_usb.c ****   return HAL_OK;
 478              		.loc 1 224 17 view .LVU143
 479 0002 43F00103 		orr	r3, r3, #1
 480 0006 8360     		str	r3, [r0, #8]
 225:Drivers/STM32F4xx_HAL_Driver/Src/stm32f4xx_ll_usb.c **** }
 481              		.loc 1 225 3 is_stmt 1 view .LVU144
 226:Drivers/STM32F4xx_HAL_Driver/Src/stm32f4xx_ll_usb.c **** 
 482              		.loc 1 226 1 is_stmt 0 view .LVU145
 483 0008 0020     		movs	r0, #0
 484              	.LVL18:
 226:Drivers/STM32F4xx_HAL_Driver/Src/stm32f4xx_ll_usb.c **** 
 485              		.loc 1 226 1 view .LVU146
 486 000a 7047     		bx	lr
 487              		.cfi_endproc
 488              	.LFE136:
 490              		.section	.text.USB_DisableGlobalInt,"ax",%progbits
 491              		.align	1
 492              		.global	USB_DisableGlobalInt
 493              		.syntax unified
 494              		.thumb
 495              		.thumb_func
 497              	USB_DisableGlobalInt:
 498              	.LVL19:
 499              	.LFB137:
 235:Drivers/STM32F4xx_HAL_Driver/Src/stm32f4xx_ll_usb.c ****   USBx->GAHBCFG &= ~USB_OTG_GAHBCFG_GINT;
 500              		.loc 1 235 1 is_stmt 1 view -0
 501              		.cfi_startproc
 502              		@ args = 0, pretend = 0, frame = 0
 503              		@ frame_needed = 0, uses_anonymous_args = 0
 504              		@ link register save eliminated.
ARM GAS  /tmp/cc0ThgoX.s 			page 37


 236:Drivers/STM32F4xx_HAL_Driver/Src/stm32f4xx_ll_usb.c ****   return HAL_OK;
 505              		.loc 1 236 3 view .LVU148
 236:Drivers/STM32F4xx_HAL_Driver/Src/stm32f4xx_ll_usb.c ****   return HAL_OK;
 506              		.loc 1 236 7 is_stmt 0 view .LVU149
 507 0000 8368     		ldr	r3, [r0, #8]
 236:Drivers/STM32F4xx_HAL_Driver/Src/stm32f4xx_ll_usb.c ****   return HAL_OK;
 508              		.loc 1 236 17 view .LVU150
 509 0002 23F00103 		bic	r3, r3, #1
 510 0006 8360     		str	r3, [r0, #8]
 237:Drivers/STM32F4xx_HAL_Driver/Src/stm32f4xx_ll_usb.c **** }
 511              		.loc 1 237 3 is_stmt 1 view .LVU151
 238:Drivers/STM32F4xx_HAL_Driver/Src/stm32f4xx_ll_usb.c **** 
 512              		.loc 1 238 1 is_stmt 0 view .LVU152
 513 0008 0020     		movs	r0, #0
 514              	.LVL20:
 238:Drivers/STM32F4xx_HAL_Driver/Src/stm32f4xx_ll_usb.c **** 
 515              		.loc 1 238 1 view .LVU153
 516 000a 7047     		bx	lr
 517              		.cfi_endproc
 518              	.LFE137:
 520              		.section	.text.USB_FlushTxFifo,"ax",%progbits
 521              		.align	1
 522              		.global	USB_FlushTxFifo
 523              		.syntax unified
 524              		.thumb
 525              		.thumb_func
 527              	USB_FlushTxFifo:
 528              	.LVL21:
 529              	.LFB140:
 474:Drivers/STM32F4xx_HAL_Driver/Src/stm32f4xx_ll_usb.c ****   __IO uint32_t count = 0U;
 530              		.loc 1 474 1 is_stmt 1 view -0
 531              		.cfi_startproc
 532              		@ args = 0, pretend = 0, frame = 8
 533              		@ frame_needed = 0, uses_anonymous_args = 0
 534              		@ link register save eliminated.
 474:Drivers/STM32F4xx_HAL_Driver/Src/stm32f4xx_ll_usb.c ****   __IO uint32_t count = 0U;
 535              		.loc 1 474 1 is_stmt 0 view .LVU155
 536 0000 82B0     		sub	sp, sp, #8
 537              	.LCFI8:
 538              		.cfi_def_cfa_offset 8
 475:Drivers/STM32F4xx_HAL_Driver/Src/stm32f4xx_ll_usb.c **** 
 539              		.loc 1 475 3 is_stmt 1 view .LVU156
 475:Drivers/STM32F4xx_HAL_Driver/Src/stm32f4xx_ll_usb.c **** 
 540              		.loc 1 475 17 is_stmt 0 view .LVU157
 541 0002 0023     		movs	r3, #0
 542 0004 0193     		str	r3, [sp, #4]
 543              	.L38:
 478:Drivers/STM32F4xx_HAL_Driver/Src/stm32f4xx_ll_usb.c ****   {
 544              		.loc 1 478 3 is_stmt 1 view .LVU158
 480:Drivers/STM32F4xx_HAL_Driver/Src/stm32f4xx_ll_usb.c **** 
 545              		.loc 1 480 5 view .LVU159
 480:Drivers/STM32F4xx_HAL_Driver/Src/stm32f4xx_ll_usb.c **** 
 546              		.loc 1 480 10 is_stmt 0 view .LVU160
 547 0006 019B     		ldr	r3, [sp, #4]
 548 0008 0133     		adds	r3, r3, #1
 549 000a 0193     		str	r3, [sp, #4]
 482:Drivers/STM32F4xx_HAL_Driver/Src/stm32f4xx_ll_usb.c ****     {
ARM GAS  /tmp/cc0ThgoX.s 			page 38


 550              		.loc 1 482 5 is_stmt 1 view .LVU161
 482:Drivers/STM32F4xx_HAL_Driver/Src/stm32f4xx_ll_usb.c ****     {
 551              		.loc 1 482 15 is_stmt 0 view .LVU162
 552 000c 019B     		ldr	r3, [sp, #4]
 482:Drivers/STM32F4xx_HAL_Driver/Src/stm32f4xx_ll_usb.c ****     {
 553              		.loc 1 482 8 view .LVU163
 554 000e B3F1706F 		cmp	r3, #251658240
 555 0012 15D8     		bhi	.L40
 486:Drivers/STM32F4xx_HAL_Driver/Src/stm32f4xx_ll_usb.c **** 
 556              		.loc 1 486 53 is_stmt 1 view .LVU164
 486:Drivers/STM32F4xx_HAL_Driver/Src/stm32f4xx_ll_usb.c **** 
 557              		.loc 1 486 17 is_stmt 0 view .LVU165
 558 0014 0369     		ldr	r3, [r0, #16]
 486:Drivers/STM32F4xx_HAL_Driver/Src/stm32f4xx_ll_usb.c **** 
 559              		.loc 1 486 53 view .LVU166
 560 0016 002B     		cmp	r3, #0
 561 0018 F5DA     		bge	.L38
 489:Drivers/STM32F4xx_HAL_Driver/Src/stm32f4xx_ll_usb.c ****   USBx->GRSTCTL = (USB_OTG_GRSTCTL_TXFFLSH | (num << 6));
 562              		.loc 1 489 3 is_stmt 1 view .LVU167
 489:Drivers/STM32F4xx_HAL_Driver/Src/stm32f4xx_ll_usb.c ****   USBx->GRSTCTL = (USB_OTG_GRSTCTL_TXFFLSH | (num << 6));
 563              		.loc 1 489 9 is_stmt 0 view .LVU168
 564 001a 0023     		movs	r3, #0
 565 001c 0193     		str	r3, [sp, #4]
 490:Drivers/STM32F4xx_HAL_Driver/Src/stm32f4xx_ll_usb.c **** 
 566              		.loc 1 490 3 is_stmt 1 view .LVU169
 490:Drivers/STM32F4xx_HAL_Driver/Src/stm32f4xx_ll_usb.c **** 
 567              		.loc 1 490 51 is_stmt 0 view .LVU170
 568 001e 8901     		lsls	r1, r1, #6
 569              	.LVL22:
 490:Drivers/STM32F4xx_HAL_Driver/Src/stm32f4xx_ll_usb.c **** 
 570              		.loc 1 490 44 view .LVU171
 571 0020 41F02001 		orr	r1, r1, #32
 490:Drivers/STM32F4xx_HAL_Driver/Src/stm32f4xx_ll_usb.c **** 
 572              		.loc 1 490 17 view .LVU172
 573 0024 0161     		str	r1, [r0, #16]
 574              	.L39:
 492:Drivers/STM32F4xx_HAL_Driver/Src/stm32f4xx_ll_usb.c ****   {
 575              		.loc 1 492 3 is_stmt 1 view .LVU173
 494:Drivers/STM32F4xx_HAL_Driver/Src/stm32f4xx_ll_usb.c **** 
 576              		.loc 1 494 5 view .LVU174
 494:Drivers/STM32F4xx_HAL_Driver/Src/stm32f4xx_ll_usb.c **** 
 577              		.loc 1 494 10 is_stmt 0 view .LVU175
 578 0026 019B     		ldr	r3, [sp, #4]
 579 0028 0133     		adds	r3, r3, #1
 580 002a 0193     		str	r3, [sp, #4]
 496:Drivers/STM32F4xx_HAL_Driver/Src/stm32f4xx_ll_usb.c ****     {
 581              		.loc 1 496 5 is_stmt 1 view .LVU176
 496:Drivers/STM32F4xx_HAL_Driver/Src/stm32f4xx_ll_usb.c ****     {
 582              		.loc 1 496 15 is_stmt 0 view .LVU177
 583 002c 019B     		ldr	r3, [sp, #4]
 496:Drivers/STM32F4xx_HAL_Driver/Src/stm32f4xx_ll_usb.c ****     {
 584              		.loc 1 496 8 view .LVU178
 585 002e B3F1706F 		cmp	r3, #251658240
 586 0032 08D8     		bhi	.L41
 500:Drivers/STM32F4xx_HAL_Driver/Src/stm32f4xx_ll_usb.c **** 
 587              		.loc 1 500 54 is_stmt 1 view .LVU179
 500:Drivers/STM32F4xx_HAL_Driver/Src/stm32f4xx_ll_usb.c **** 
ARM GAS  /tmp/cc0ThgoX.s 			page 39


 588              		.loc 1 500 17 is_stmt 0 view .LVU180
 589 0034 0369     		ldr	r3, [r0, #16]
 500:Drivers/STM32F4xx_HAL_Driver/Src/stm32f4xx_ll_usb.c **** 
 590              		.loc 1 500 54 view .LVU181
 591 0036 13F0200F 		tst	r3, #32
 592 003a F4D1     		bne	.L39
 502:Drivers/STM32F4xx_HAL_Driver/Src/stm32f4xx_ll_usb.c **** }
 593              		.loc 1 502 10 view .LVU182
 594 003c 0020     		movs	r0, #0
 595              	.LVL23:
 502:Drivers/STM32F4xx_HAL_Driver/Src/stm32f4xx_ll_usb.c **** }
 596              		.loc 1 502 10 view .LVU183
 597 003e 00E0     		b	.L37
 598              	.LVL24:
 599              	.L40:
 484:Drivers/STM32F4xx_HAL_Driver/Src/stm32f4xx_ll_usb.c ****     }
 600              		.loc 1 484 14 view .LVU184
 601 0040 0320     		movs	r0, #3
 602              	.LVL25:
 603              	.L37:
 503:Drivers/STM32F4xx_HAL_Driver/Src/stm32f4xx_ll_usb.c **** 
 604              		.loc 1 503 1 view .LVU185
 605 0042 02B0     		add	sp, sp, #8
 606              	.LCFI9:
 607              		.cfi_remember_state
 608              		.cfi_def_cfa_offset 0
 609              		@ sp needed
 610 0044 7047     		bx	lr
 611              	.LVL26:
 612              	.L41:
 613              	.LCFI10:
 614              		.cfi_restore_state
 498:Drivers/STM32F4xx_HAL_Driver/Src/stm32f4xx_ll_usb.c ****     }
 615              		.loc 1 498 14 view .LVU186
 616 0046 0320     		movs	r0, #3
 617              	.LVL27:
 498:Drivers/STM32F4xx_HAL_Driver/Src/stm32f4xx_ll_usb.c ****     }
 618              		.loc 1 498 14 view .LVU187
 619 0048 FBE7     		b	.L37
 620              		.cfi_endproc
 621              	.LFE140:
 623              		.section	.text.USB_FlushRxFifo,"ax",%progbits
 624              		.align	1
 625              		.global	USB_FlushRxFifo
 626              		.syntax unified
 627              		.thumb
 628              		.thumb_func
 630              	USB_FlushRxFifo:
 631              	.LVL28:
 632              	.LFB141:
 511:Drivers/STM32F4xx_HAL_Driver/Src/stm32f4xx_ll_usb.c ****   __IO uint32_t count = 0U;
 633              		.loc 1 511 1 is_stmt 1 view -0
 634              		.cfi_startproc
 635              		@ args = 0, pretend = 0, frame = 8
 636              		@ frame_needed = 0, uses_anonymous_args = 0
 637              		@ link register save eliminated.
 511:Drivers/STM32F4xx_HAL_Driver/Src/stm32f4xx_ll_usb.c ****   __IO uint32_t count = 0U;
ARM GAS  /tmp/cc0ThgoX.s 			page 40


 638              		.loc 1 511 1 is_stmt 0 view .LVU189
 639 0000 82B0     		sub	sp, sp, #8
 640              	.LCFI11:
 641              		.cfi_def_cfa_offset 8
 512:Drivers/STM32F4xx_HAL_Driver/Src/stm32f4xx_ll_usb.c **** 
 642              		.loc 1 512 3 is_stmt 1 view .LVU190
 512:Drivers/STM32F4xx_HAL_Driver/Src/stm32f4xx_ll_usb.c **** 
 643              		.loc 1 512 17 is_stmt 0 view .LVU191
 644 0002 0023     		movs	r3, #0
 645 0004 0193     		str	r3, [sp, #4]
 646              	.L45:
 515:Drivers/STM32F4xx_HAL_Driver/Src/stm32f4xx_ll_usb.c ****   {
 647              		.loc 1 515 3 is_stmt 1 view .LVU192
 517:Drivers/STM32F4xx_HAL_Driver/Src/stm32f4xx_ll_usb.c **** 
 648              		.loc 1 517 5 view .LVU193
 517:Drivers/STM32F4xx_HAL_Driver/Src/stm32f4xx_ll_usb.c **** 
 649              		.loc 1 517 10 is_stmt 0 view .LVU194
 650 0006 019B     		ldr	r3, [sp, #4]
 651 0008 0133     		adds	r3, r3, #1
 652 000a 0193     		str	r3, [sp, #4]
 519:Drivers/STM32F4xx_HAL_Driver/Src/stm32f4xx_ll_usb.c ****     {
 653              		.loc 1 519 5 is_stmt 1 view .LVU195
 519:Drivers/STM32F4xx_HAL_Driver/Src/stm32f4xx_ll_usb.c ****     {
 654              		.loc 1 519 15 is_stmt 0 view .LVU196
 655 000c 019B     		ldr	r3, [sp, #4]
 519:Drivers/STM32F4xx_HAL_Driver/Src/stm32f4xx_ll_usb.c ****     {
 656              		.loc 1 519 8 view .LVU197
 657 000e B3F1706F 		cmp	r3, #251658240
 658 0012 13D8     		bhi	.L47
 523:Drivers/STM32F4xx_HAL_Driver/Src/stm32f4xx_ll_usb.c **** 
 659              		.loc 1 523 53 is_stmt 1 view .LVU198
 523:Drivers/STM32F4xx_HAL_Driver/Src/stm32f4xx_ll_usb.c **** 
 660              		.loc 1 523 17 is_stmt 0 view .LVU199
 661 0014 0369     		ldr	r3, [r0, #16]
 523:Drivers/STM32F4xx_HAL_Driver/Src/stm32f4xx_ll_usb.c **** 
 662              		.loc 1 523 53 view .LVU200
 663 0016 002B     		cmp	r3, #0
 664 0018 F5DA     		bge	.L45
 526:Drivers/STM32F4xx_HAL_Driver/Src/stm32f4xx_ll_usb.c ****   USBx->GRSTCTL = USB_OTG_GRSTCTL_RXFFLSH;
 665              		.loc 1 526 3 is_stmt 1 view .LVU201
 526:Drivers/STM32F4xx_HAL_Driver/Src/stm32f4xx_ll_usb.c ****   USBx->GRSTCTL = USB_OTG_GRSTCTL_RXFFLSH;
 666              		.loc 1 526 9 is_stmt 0 view .LVU202
 667 001a 0023     		movs	r3, #0
 668 001c 0193     		str	r3, [sp, #4]
 527:Drivers/STM32F4xx_HAL_Driver/Src/stm32f4xx_ll_usb.c **** 
 669              		.loc 1 527 3 is_stmt 1 view .LVU203
 527:Drivers/STM32F4xx_HAL_Driver/Src/stm32f4xx_ll_usb.c **** 
 670              		.loc 1 527 17 is_stmt 0 view .LVU204
 671 001e 1023     		movs	r3, #16
 672 0020 0361     		str	r3, [r0, #16]
 673              	.L46:
 529:Drivers/STM32F4xx_HAL_Driver/Src/stm32f4xx_ll_usb.c ****   {
 674              		.loc 1 529 3 is_stmt 1 view .LVU205
 531:Drivers/STM32F4xx_HAL_Driver/Src/stm32f4xx_ll_usb.c **** 
 675              		.loc 1 531 5 view .LVU206
 531:Drivers/STM32F4xx_HAL_Driver/Src/stm32f4xx_ll_usb.c **** 
 676              		.loc 1 531 10 is_stmt 0 view .LVU207
ARM GAS  /tmp/cc0ThgoX.s 			page 41


 677 0022 019B     		ldr	r3, [sp, #4]
 678 0024 0133     		adds	r3, r3, #1
 679 0026 0193     		str	r3, [sp, #4]
 533:Drivers/STM32F4xx_HAL_Driver/Src/stm32f4xx_ll_usb.c ****     {
 680              		.loc 1 533 5 is_stmt 1 view .LVU208
 533:Drivers/STM32F4xx_HAL_Driver/Src/stm32f4xx_ll_usb.c ****     {
 681              		.loc 1 533 15 is_stmt 0 view .LVU209
 682 0028 019B     		ldr	r3, [sp, #4]
 533:Drivers/STM32F4xx_HAL_Driver/Src/stm32f4xx_ll_usb.c ****     {
 683              		.loc 1 533 8 view .LVU210
 684 002a B3F1706F 		cmp	r3, #251658240
 685 002e 08D8     		bhi	.L48
 537:Drivers/STM32F4xx_HAL_Driver/Src/stm32f4xx_ll_usb.c **** 
 686              		.loc 1 537 54 is_stmt 1 view .LVU211
 537:Drivers/STM32F4xx_HAL_Driver/Src/stm32f4xx_ll_usb.c **** 
 687              		.loc 1 537 17 is_stmt 0 view .LVU212
 688 0030 0369     		ldr	r3, [r0, #16]
 537:Drivers/STM32F4xx_HAL_Driver/Src/stm32f4xx_ll_usb.c **** 
 689              		.loc 1 537 54 view .LVU213
 690 0032 13F0100F 		tst	r3, #16
 691 0036 F4D1     		bne	.L46
 539:Drivers/STM32F4xx_HAL_Driver/Src/stm32f4xx_ll_usb.c **** }
 692              		.loc 1 539 10 view .LVU214
 693 0038 0020     		movs	r0, #0
 694              	.LVL29:
 539:Drivers/STM32F4xx_HAL_Driver/Src/stm32f4xx_ll_usb.c **** }
 695              		.loc 1 539 10 view .LVU215
 696 003a 00E0     		b	.L44
 697              	.LVL30:
 698              	.L47:
 521:Drivers/STM32F4xx_HAL_Driver/Src/stm32f4xx_ll_usb.c ****     }
 699              		.loc 1 521 14 view .LVU216
 700 003c 0320     		movs	r0, #3
 701              	.LVL31:
 702              	.L44:
 540:Drivers/STM32F4xx_HAL_Driver/Src/stm32f4xx_ll_usb.c **** 
 703              		.loc 1 540 1 view .LVU217
 704 003e 02B0     		add	sp, sp, #8
 705              	.LCFI12:
 706              		.cfi_remember_state
 707              		.cfi_def_cfa_offset 0
 708              		@ sp needed
 709 0040 7047     		bx	lr
 710              	.LVL32:
 711              	.L48:
 712              	.LCFI13:
 713              		.cfi_restore_state
 535:Drivers/STM32F4xx_HAL_Driver/Src/stm32f4xx_ll_usb.c ****     }
 714              		.loc 1 535 14 view .LVU218
 715 0042 0320     		movs	r0, #3
 716              	.LVL33:
 535:Drivers/STM32F4xx_HAL_Driver/Src/stm32f4xx_ll_usb.c ****     }
 717              		.loc 1 535 14 view .LVU219
 718 0044 FBE7     		b	.L44
 719              		.cfi_endproc
 720              	.LFE141:
 722              		.section	.text.USB_SetDevSpeed,"ax",%progbits
ARM GAS  /tmp/cc0ThgoX.s 			page 42


 723              		.align	1
 724              		.global	USB_SetDevSpeed
 725              		.syntax unified
 726              		.thumb
 727              		.thumb_func
 729              	USB_SetDevSpeed:
 730              	.LVL34:
 731              	.LFB142:
 554:Drivers/STM32F4xx_HAL_Driver/Src/stm32f4xx_ll_usb.c ****   uint32_t USBx_BASE = (uint32_t)USBx;
 732              		.loc 1 554 1 is_stmt 1 view -0
 733              		.cfi_startproc
 734              		@ args = 0, pretend = 0, frame = 0
 735              		@ frame_needed = 0, uses_anonymous_args = 0
 736              		@ link register save eliminated.
 555:Drivers/STM32F4xx_HAL_Driver/Src/stm32f4xx_ll_usb.c **** 
 737              		.loc 1 555 3 view .LVU221
 557:Drivers/STM32F4xx_HAL_Driver/Src/stm32f4xx_ll_usb.c ****   return HAL_OK;
 738              		.loc 1 557 3 view .LVU222
 557:Drivers/STM32F4xx_HAL_Driver/Src/stm32f4xx_ll_usb.c ****   return HAL_OK;
 739              		.loc 1 557 14 is_stmt 0 view .LVU223
 740 0000 D0F80038 		ldr	r3, [r0, #2048]
 557:Drivers/STM32F4xx_HAL_Driver/Src/stm32f4xx_ll_usb.c ****   return HAL_OK;
 741              		.loc 1 557 21 view .LVU224
 742 0004 1943     		orrs	r1, r1, r3
 743              	.LVL35:
 557:Drivers/STM32F4xx_HAL_Driver/Src/stm32f4xx_ll_usb.c ****   return HAL_OK;
 744              		.loc 1 557 21 view .LVU225
 745 0006 C0F80018 		str	r1, [r0, #2048]
 558:Drivers/STM32F4xx_HAL_Driver/Src/stm32f4xx_ll_usb.c **** }
 746              		.loc 1 558 3 is_stmt 1 view .LVU226
 559:Drivers/STM32F4xx_HAL_Driver/Src/stm32f4xx_ll_usb.c **** 
 747              		.loc 1 559 1 is_stmt 0 view .LVU227
 748 000a 0020     		movs	r0, #0
 749              	.LVL36:
 559:Drivers/STM32F4xx_HAL_Driver/Src/stm32f4xx_ll_usb.c **** 
 750              		.loc 1 559 1 view .LVU228
 751 000c 7047     		bx	lr
 752              		.cfi_endproc
 753              	.LFE142:
 755              		.section	.text.USB_DevInit,"ax",%progbits
 756              		.align	1
 757              		.global	USB_DevInit
 758              		.syntax unified
 759              		.thumb
 760              		.thumb_func
 762              	USB_DevInit:
 763              	.LVL37:
 764              	.LFB139:
 297:Drivers/STM32F4xx_HAL_Driver/Src/stm32f4xx_ll_usb.c ****   HAL_StatusTypeDef ret = HAL_OK;
 765              		.loc 1 297 1 is_stmt 1 view -0
 766              		.cfi_startproc
 767              		@ args = 20, pretend = 16, frame = 0
 768              		@ frame_needed = 0, uses_anonymous_args = 0
 297:Drivers/STM32F4xx_HAL_Driver/Src/stm32f4xx_ll_usb.c ****   HAL_StatusTypeDef ret = HAL_OK;
 769              		.loc 1 297 1 is_stmt 0 view .LVU230
 770 0000 84B0     		sub	sp, sp, #16
 771              	.LCFI14:
ARM GAS  /tmp/cc0ThgoX.s 			page 43


 772              		.cfi_def_cfa_offset 16
 773 0002 F8B5     		push	{r3, r4, r5, r6, r7, lr}
 774              	.LCFI15:
 775              		.cfi_def_cfa_offset 40
 776              		.cfi_offset 3, -40
 777              		.cfi_offset 4, -36
 778              		.cfi_offset 5, -32
 779              		.cfi_offset 6, -28
 780              		.cfi_offset 7, -24
 781              		.cfi_offset 14, -20
 782 0004 0446     		mov	r4, r0
 783 0006 07A8     		add	r0, sp, #28
 784              	.LVL38:
 297:Drivers/STM32F4xx_HAL_Driver/Src/stm32f4xx_ll_usb.c ****   HAL_StatusTypeDef ret = HAL_OK;
 785              		.loc 1 297 1 view .LVU231
 786 0008 80E80E00 		stm	r0, {r1, r2, r3}
 298:Drivers/STM32F4xx_HAL_Driver/Src/stm32f4xx_ll_usb.c ****   uint32_t USBx_BASE = (uint32_t)USBx;
 787              		.loc 1 298 3 is_stmt 1 view .LVU232
 788              	.LVL39:
 299:Drivers/STM32F4xx_HAL_Driver/Src/stm32f4xx_ll_usb.c ****   uint32_t i;
 789              		.loc 1 299 3 view .LVU233
 300:Drivers/STM32F4xx_HAL_Driver/Src/stm32f4xx_ll_usb.c **** 
 790              		.loc 1 300 3 view .LVU234
 302:Drivers/STM32F4xx_HAL_Driver/Src/stm32f4xx_ll_usb.c ****   {
 791              		.loc 1 302 3 view .LVU235
 302:Drivers/STM32F4xx_HAL_Driver/Src/stm32f4xx_ll_usb.c ****   {
 792              		.loc 1 302 10 is_stmt 0 view .LVU236
 793 000c 0023     		movs	r3, #0
 302:Drivers/STM32F4xx_HAL_Driver/Src/stm32f4xx_ll_usb.c ****   {
 794              		.loc 1 302 3 view .LVU237
 795 000e 06E0     		b	.L52
 796              	.LVL40:
 797              	.L53:
 304:Drivers/STM32F4xx_HAL_Driver/Src/stm32f4xx_ll_usb.c ****   }
 798              		.loc 1 304 5 is_stmt 1 view .LVU238
 304:Drivers/STM32F4xx_HAL_Driver/Src/stm32f4xx_ll_usb.c ****   }
 799              		.loc 1 304 22 is_stmt 0 view .LVU239
 800 0010 03F14002 		add	r2, r3, #64
 801 0014 04EB8202 		add	r2, r4, r2, lsl #2
 802 0018 0021     		movs	r1, #0
 803 001a 5160     		str	r1, [r2, #4]
 302:Drivers/STM32F4xx_HAL_Driver/Src/stm32f4xx_ll_usb.c ****   {
 804              		.loc 1 302 26 is_stmt 1 discriminator 3 view .LVU240
 805 001c 0133     		adds	r3, r3, #1
 806              	.LVL41:
 807              	.L52:
 302:Drivers/STM32F4xx_HAL_Driver/Src/stm32f4xx_ll_usb.c ****   {
 808              		.loc 1 302 18 discriminator 1 view .LVU241
 809 001e 0E2B     		cmp	r3, #14
 810 0020 F6D9     		bls	.L53
 311:Drivers/STM32F4xx_HAL_Driver/Src/stm32f4xx_ll_usb.c ****   {
 811              		.loc 1 311 3 view .LVU242
 311:Drivers/STM32F4xx_HAL_Driver/Src/stm32f4xx_ll_usb.c ****   {
 812              		.loc 1 311 10 is_stmt 0 view .LVU243
 813 0022 9DF82660 		ldrb	r6, [sp, #38]	@ zero_extendqisi2
 311:Drivers/STM32F4xx_HAL_Driver/Src/stm32f4xx_ll_usb.c ****   {
 814              		.loc 1 311 6 view .LVU244
ARM GAS  /tmp/cc0ThgoX.s 			page 44


 815 0026 06BB     		cbnz	r6, .L54
 313:Drivers/STM32F4xx_HAL_Driver/Src/stm32f4xx_ll_usb.c **** 
 816              		.loc 1 313 5 is_stmt 1 view .LVU245
 313:Drivers/STM32F4xx_HAL_Driver/Src/stm32f4xx_ll_usb.c **** 
 817              		.loc 1 313 16 is_stmt 0 view .LVU246
 818 0028 D4F80438 		ldr	r3, [r4, #2052]
 819              	.LVL42:
 313:Drivers/STM32F4xx_HAL_Driver/Src/stm32f4xx_ll_usb.c **** 
 820              		.loc 1 313 23 view .LVU247
 821 002c 43F00203 		orr	r3, r3, #2
 822 0030 C4F80438 		str	r3, [r4, #2052]
 316:Drivers/STM32F4xx_HAL_Driver/Src/stm32f4xx_ll_usb.c **** 
 823              		.loc 1 316 5 is_stmt 1 view .LVU248
 316:Drivers/STM32F4xx_HAL_Driver/Src/stm32f4xx_ll_usb.c **** 
 824              		.loc 1 316 9 is_stmt 0 view .LVU249
 825 0034 A36B     		ldr	r3, [r4, #56]
 316:Drivers/STM32F4xx_HAL_Driver/Src/stm32f4xx_ll_usb.c **** 
 826              		.loc 1 316 17 view .LVU250
 827 0036 23F40013 		bic	r3, r3, #2097152
 828 003a A363     		str	r3, [r4, #56]
 319:Drivers/STM32F4xx_HAL_Driver/Src/stm32f4xx_ll_usb.c ****     USBx->GOTGCTL |= USB_OTG_GOTGCTL_BVALOVAL;
 829              		.loc 1 319 5 is_stmt 1 view .LVU251
 319:Drivers/STM32F4xx_HAL_Driver/Src/stm32f4xx_ll_usb.c ****     USBx->GOTGCTL |= USB_OTG_GOTGCTL_BVALOVAL;
 830              		.loc 1 319 9 is_stmt 0 view .LVU252
 831 003c 2368     		ldr	r3, [r4]
 319:Drivers/STM32F4xx_HAL_Driver/Src/stm32f4xx_ll_usb.c ****     USBx->GOTGCTL |= USB_OTG_GOTGCTL_BVALOVAL;
 832              		.loc 1 319 19 view .LVU253
 833 003e 43F04003 		orr	r3, r3, #64
 834 0042 2360     		str	r3, [r4]
 320:Drivers/STM32F4xx_HAL_Driver/Src/stm32f4xx_ll_usb.c ****   }
 835              		.loc 1 320 5 is_stmt 1 view .LVU254
 320:Drivers/STM32F4xx_HAL_Driver/Src/stm32f4xx_ll_usb.c ****   }
 836              		.loc 1 320 9 is_stmt 0 view .LVU255
 837 0044 2368     		ldr	r3, [r4]
 320:Drivers/STM32F4xx_HAL_Driver/Src/stm32f4xx_ll_usb.c ****   }
 838              		.loc 1 320 19 view .LVU256
 839 0046 43F08003 		orr	r3, r3, #128
 840 004a 2360     		str	r3, [r4]
 841              	.L55:
 351:Drivers/STM32F4xx_HAL_Driver/Src/stm32f4xx_ll_usb.c **** 
 842              		.loc 1 351 3 is_stmt 1 view .LVU257
 351:Drivers/STM32F4xx_HAL_Driver/Src/stm32f4xx_ll_usb.c **** 
 843              		.loc 1 351 16 is_stmt 0 view .LVU258
 844 004c 0023     		movs	r3, #0
 845 004e C4F8003E 		str	r3, [r4, #3584]
 353:Drivers/STM32F4xx_HAL_Driver/Src/stm32f4xx_ll_usb.c ****   {
 846              		.loc 1 353 3 is_stmt 1 view .LVU259
 353:Drivers/STM32F4xx_HAL_Driver/Src/stm32f4xx_ll_usb.c ****   {
 847              		.loc 1 353 10 is_stmt 0 view .LVU260
 848 0052 9DF82130 		ldrb	r3, [sp, #33]	@ zero_extendqisi2
 353:Drivers/STM32F4xx_HAL_Driver/Src/stm32f4xx_ll_usb.c ****   {
 849              		.loc 1 353 6 view .LVU261
 850 0056 012B     		cmp	r3, #1
 851 0058 11D1     		bne	.L56
 355:Drivers/STM32F4xx_HAL_Driver/Src/stm32f4xx_ll_usb.c ****     {
 852              		.loc 1 355 5 is_stmt 1 view .LVU262
 355:Drivers/STM32F4xx_HAL_Driver/Src/stm32f4xx_ll_usb.c ****     {
ARM GAS  /tmp/cc0ThgoX.s 			page 45


 853              		.loc 1 355 12 is_stmt 0 view .LVU263
 854 005a 9DF81F30 		ldrb	r3, [sp, #31]	@ zero_extendqisi2
 355:Drivers/STM32F4xx_HAL_Driver/Src/stm32f4xx_ll_usb.c ****     {
 855              		.loc 1 355 8 view .LVU264
 856 005e 4BB9     		cbnz	r3, .L57
 358:Drivers/STM32F4xx_HAL_Driver/Src/stm32f4xx_ll_usb.c ****     }
 857              		.loc 1 358 7 is_stmt 1 view .LVU265
 358:Drivers/STM32F4xx_HAL_Driver/Src/stm32f4xx_ll_usb.c ****     }
 858              		.loc 1 358 13 is_stmt 0 view .LVU266
 859 0060 0021     		movs	r1, #0
 860 0062 2046     		mov	r0, r4
 861 0064 FFF7FEFF 		bl	USB_SetDevSpeed
 862              	.LVL43:
 863 0068 0DE0     		b	.L58
 864              	.LVL44:
 865              	.L54:
 325:Drivers/STM32F4xx_HAL_Driver/Src/stm32f4xx_ll_usb.c ****   }
 866              		.loc 1 325 5 is_stmt 1 view .LVU267
 325:Drivers/STM32F4xx_HAL_Driver/Src/stm32f4xx_ll_usb.c ****   }
 867              		.loc 1 325 9 is_stmt 0 view .LVU268
 868 006a A36B     		ldr	r3, [r4, #56]
 869              	.LVL45:
 325:Drivers/STM32F4xx_HAL_Driver/Src/stm32f4xx_ll_usb.c ****   }
 870              		.loc 1 325 17 view .LVU269
 871 006c 43F40013 		orr	r3, r3, #2097152
 872 0070 A363     		str	r3, [r4, #56]
 873 0072 EBE7     		b	.L55
 874              	.L57:
 363:Drivers/STM32F4xx_HAL_Driver/Src/stm32f4xx_ll_usb.c ****     }
 875              		.loc 1 363 7 is_stmt 1 view .LVU270
 363:Drivers/STM32F4xx_HAL_Driver/Src/stm32f4xx_ll_usb.c ****     }
 876              		.loc 1 363 13 is_stmt 0 view .LVU271
 877 0074 0121     		movs	r1, #1
 878 0076 2046     		mov	r0, r4
 879 0078 FFF7FEFF 		bl	USB_SetDevSpeed
 880              	.LVL46:
 881 007c 03E0     		b	.L58
 882              	.L56:
 369:Drivers/STM32F4xx_HAL_Driver/Src/stm32f4xx_ll_usb.c ****   }
 883              		.loc 1 369 5 is_stmt 1 view .LVU272
 369:Drivers/STM32F4xx_HAL_Driver/Src/stm32f4xx_ll_usb.c ****   }
 884              		.loc 1 369 11 is_stmt 0 view .LVU273
 885 007e 0321     		movs	r1, #3
 886 0080 2046     		mov	r0, r4
 887 0082 FFF7FEFF 		bl	USB_SetDevSpeed
 888              	.LVL47:
 889              	.L58:
 373:Drivers/STM32F4xx_HAL_Driver/Src/stm32f4xx_ll_usb.c ****   {
 890              		.loc 1 373 3 is_stmt 1 view .LVU274
 373:Drivers/STM32F4xx_HAL_Driver/Src/stm32f4xx_ll_usb.c ****   {
 891              		.loc 1 373 7 is_stmt 0 view .LVU275
 892 0086 1021     		movs	r1, #16
 893 0088 2046     		mov	r0, r4
 894 008a FFF7FEFF 		bl	USB_FlushTxFifo
 895              	.LVL48:
 373:Drivers/STM32F4xx_HAL_Driver/Src/stm32f4xx_ll_usb.c ****   {
 896              		.loc 1 373 6 discriminator 1 view .LVU276
ARM GAS  /tmp/cc0ThgoX.s 			page 46


 897 008e 0546     		mov	r5, r0
 898 0090 00B1     		cbz	r0, .L59
 375:Drivers/STM32F4xx_HAL_Driver/Src/stm32f4xx_ll_usb.c ****   }
 899              		.loc 1 375 9 view .LVU277
 900 0092 0125     		movs	r5, #1
 901              	.L59:
 902              	.LVL49:
 378:Drivers/STM32F4xx_HAL_Driver/Src/stm32f4xx_ll_usb.c ****   {
 903              		.loc 1 378 3 is_stmt 1 view .LVU278
 378:Drivers/STM32F4xx_HAL_Driver/Src/stm32f4xx_ll_usb.c ****   {
 904              		.loc 1 378 7 is_stmt 0 view .LVU279
 905 0094 2046     		mov	r0, r4
 906 0096 FFF7FEFF 		bl	USB_FlushRxFifo
 907              	.LVL50:
 378:Drivers/STM32F4xx_HAL_Driver/Src/stm32f4xx_ll_usb.c ****   {
 908              		.loc 1 378 6 discriminator 1 view .LVU280
 909 009a 00B1     		cbz	r0, .L60
 380:Drivers/STM32F4xx_HAL_Driver/Src/stm32f4xx_ll_usb.c ****   }
 910              		.loc 1 380 9 view .LVU281
 911 009c 0125     		movs	r5, #1
 912              	.LVL51:
 913              	.L60:
 384:Drivers/STM32F4xx_HAL_Driver/Src/stm32f4xx_ll_usb.c ****   USBx_DEVICE->DOEPMSK = 0U;
 914              		.loc 1 384 3 is_stmt 1 view .LVU282
 915 009e 04F5006C 		add	ip, r4, #2048
 384:Drivers/STM32F4xx_HAL_Driver/Src/stm32f4xx_ll_usb.c ****   USBx_DEVICE->DOEPMSK = 0U;
 916              		.loc 1 384 24 is_stmt 0 view .LVU283
 917 00a2 0023     		movs	r3, #0
 918 00a4 CCF81030 		str	r3, [ip, #16]
 385:Drivers/STM32F4xx_HAL_Driver/Src/stm32f4xx_ll_usb.c ****   USBx_DEVICE->DAINTMSK = 0U;
 919              		.loc 1 385 3 is_stmt 1 view .LVU284
 385:Drivers/STM32F4xx_HAL_Driver/Src/stm32f4xx_ll_usb.c ****   USBx_DEVICE->DAINTMSK = 0U;
 920              		.loc 1 385 24 is_stmt 0 view .LVU285
 921 00a8 CCF81430 		str	r3, [ip, #20]
 386:Drivers/STM32F4xx_HAL_Driver/Src/stm32f4xx_ll_usb.c **** 
 922              		.loc 1 386 3 is_stmt 1 view .LVU286
 386:Drivers/STM32F4xx_HAL_Driver/Src/stm32f4xx_ll_usb.c **** 
 923              		.loc 1 386 25 is_stmt 0 view .LVU287
 924 00ac CCF81C30 		str	r3, [ip, #28]
 388:Drivers/STM32F4xx_HAL_Driver/Src/stm32f4xx_ll_usb.c ****   {
 925              		.loc 1 388 3 is_stmt 1 view .LVU288
 926              	.LVL52:
 388:Drivers/STM32F4xx_HAL_Driver/Src/stm32f4xx_ll_usb.c ****   {
 927              		.loc 1 388 3 is_stmt 0 view .LVU289
 928 00b0 0AE0     		b	.L61
 929              	.LVL53:
 930              	.L78:
 392:Drivers/STM32F4xx_HAL_Driver/Src/stm32f4xx_ll_usb.c ****       {
 931              		.loc 1 392 7 is_stmt 1 view .LVU290
 392:Drivers/STM32F4xx_HAL_Driver/Src/stm32f4xx_ll_usb.c ****       {
 932              		.loc 1 392 10 is_stmt 0 view .LVU291
 933 00b2 CBB9     		cbnz	r3, .L63
 394:Drivers/STM32F4xx_HAL_Driver/Src/stm32f4xx_ll_usb.c ****       }
 934              		.loc 1 394 9 is_stmt 1 view .LVU292
 394:Drivers/STM32F4xx_HAL_Driver/Src/stm32f4xx_ll_usb.c ****       }
 935              		.loc 1 394 31 is_stmt 0 view .LVU293
 936 00b4 4FF00060 		mov	r0, #134217728
ARM GAS  /tmp/cc0ThgoX.s 			page 47


 937 00b8 C2F80009 		str	r0, [r2, #2304]
 938              	.L64:
 406:Drivers/STM32F4xx_HAL_Driver/Src/stm32f4xx_ll_usb.c ****     USBx_INEP(i)->DIEPINT  = 0xFB7FU;
 939              		.loc 1 406 5 is_stmt 1 view .LVU294
 406:Drivers/STM32F4xx_HAL_Driver/Src/stm32f4xx_ll_usb.c ****     USBx_INEP(i)->DIEPINT  = 0xFB7FU;
 940              		.loc 1 406 28 is_stmt 0 view .LVU295
 941 00bc 0022     		movs	r2, #0
 942 00be 0A61     		str	r2, [r1, #16]
 407:Drivers/STM32F4xx_HAL_Driver/Src/stm32f4xx_ll_usb.c ****   }
 943              		.loc 1 407 5 is_stmt 1 view .LVU296
 407:Drivers/STM32F4xx_HAL_Driver/Src/stm32f4xx_ll_usb.c ****   }
 944              		.loc 1 407 28 is_stmt 0 view .LVU297
 945 00c0 4FF67F32 		movw	r2, #64383
 946 00c4 8A60     		str	r2, [r1, #8]
 388:Drivers/STM32F4xx_HAL_Driver/Src/stm32f4xx_ll_usb.c ****   {
 947              		.loc 1 388 40 is_stmt 1 discriminator 2 view .LVU298
 948 00c6 0133     		adds	r3, r3, #1
 949              	.LVL54:
 950              	.L61:
 388:Drivers/STM32F4xx_HAL_Driver/Src/stm32f4xx_ll_usb.c ****   {
 951              		.loc 1 388 18 discriminator 1 view .LVU299
 388:Drivers/STM32F4xx_HAL_Driver/Src/stm32f4xx_ll_usb.c ****   {
 952              		.loc 1 388 23 is_stmt 0 discriminator 1 view .LVU300
 953 00c8 9DF81C10 		ldrb	r1, [sp, #28]	@ zero_extendqisi2
 388:Drivers/STM32F4xx_HAL_Driver/Src/stm32f4xx_ll_usb.c ****   {
 954              		.loc 1 388 18 discriminator 1 view .LVU301
 955 00cc 9942     		cmp	r1, r3
 956 00ce 10D9     		bls	.L77
 390:Drivers/STM32F4xx_HAL_Driver/Src/stm32f4xx_ll_usb.c ****     {
 957              		.loc 1 390 5 is_stmt 1 view .LVU302
 390:Drivers/STM32F4xx_HAL_Driver/Src/stm32f4xx_ll_usb.c ****     {
 958              		.loc 1 390 10 is_stmt 0 view .LVU303
 959 00d0 04EB4312 		add	r2, r4, r3, lsl #5
 960 00d4 02F51061 		add	r1, r2, #2304
 390:Drivers/STM32F4xx_HAL_Driver/Src/stm32f4xx_ll_usb.c ****     {
 961              		.loc 1 390 22 view .LVU304
 962 00d8 D2F80009 		ldr	r0, [r2, #2304]
 390:Drivers/STM32F4xx_HAL_Driver/Src/stm32f4xx_ll_usb.c ****     {
 963              		.loc 1 390 8 view .LVU305
 964 00dc 0028     		cmp	r0, #0
 965 00de E8DB     		blt	.L78
 403:Drivers/STM32F4xx_HAL_Driver/Src/stm32f4xx_ll_usb.c ****     }
 966              		.loc 1 403 7 is_stmt 1 view .LVU306
 403:Drivers/STM32F4xx_HAL_Driver/Src/stm32f4xx_ll_usb.c ****     }
 967              		.loc 1 403 29 is_stmt 0 view .LVU307
 968 00e0 0020     		movs	r0, #0
 969 00e2 C2F80009 		str	r0, [r2, #2304]
 970 00e6 E9E7     		b	.L64
 971              	.L63:
 398:Drivers/STM32F4xx_HAL_Driver/Src/stm32f4xx_ll_usb.c ****       }
 972              		.loc 1 398 9 is_stmt 1 view .LVU308
 398:Drivers/STM32F4xx_HAL_Driver/Src/stm32f4xx_ll_usb.c ****       }
 973              		.loc 1 398 31 is_stmt 0 view .LVU309
 974 00e8 4FF09040 		mov	r0, #1207959552
 975 00ec C2F80009 		str	r0, [r2, #2304]
 976 00f0 E4E7     		b	.L64
 977              	.L77:
ARM GAS  /tmp/cc0ThgoX.s 			page 48


 410:Drivers/STM32F4xx_HAL_Driver/Src/stm32f4xx_ll_usb.c ****   {
 978              		.loc 1 410 10 view .LVU310
 979 00f2 0023     		movs	r3, #0
 980              	.LVL55:
 410:Drivers/STM32F4xx_HAL_Driver/Src/stm32f4xx_ll_usb.c ****   {
 981              		.loc 1 410 10 view .LVU311
 982 00f4 0AE0     		b	.L66
 983              	.LVL56:
 984              	.L81:
 414:Drivers/STM32F4xx_HAL_Driver/Src/stm32f4xx_ll_usb.c ****       {
 985              		.loc 1 414 7 is_stmt 1 view .LVU312
 414:Drivers/STM32F4xx_HAL_Driver/Src/stm32f4xx_ll_usb.c ****       {
 986              		.loc 1 414 10 is_stmt 0 view .LVU313
 987 00f6 BBB1     		cbz	r3, .L79
 420:Drivers/STM32F4xx_HAL_Driver/Src/stm32f4xx_ll_usb.c ****       }
 988              		.loc 1 420 9 is_stmt 1 view .LVU314
 420:Drivers/STM32F4xx_HAL_Driver/Src/stm32f4xx_ll_usb.c ****       }
 989              		.loc 1 420 32 is_stmt 0 view .LVU315
 990 00f8 4FF09047 		mov	r7, #1207959552
 991 00fc C2F8007B 		str	r7, [r2, #2816]
 992              	.L69:
 428:Drivers/STM32F4xx_HAL_Driver/Src/stm32f4xx_ll_usb.c ****     USBx_OUTEP(i)->DOEPINT  = 0xFB7FU;
 993              		.loc 1 428 5 is_stmt 1 view .LVU316
 428:Drivers/STM32F4xx_HAL_Driver/Src/stm32f4xx_ll_usb.c ****     USBx_OUTEP(i)->DOEPINT  = 0xFB7FU;
 994              		.loc 1 428 29 is_stmt 0 view .LVU317
 995 0100 0022     		movs	r2, #0
 996 0102 0261     		str	r2, [r0, #16]
 429:Drivers/STM32F4xx_HAL_Driver/Src/stm32f4xx_ll_usb.c ****   }
 997              		.loc 1 429 5 is_stmt 1 view .LVU318
 429:Drivers/STM32F4xx_HAL_Driver/Src/stm32f4xx_ll_usb.c ****   }
 998              		.loc 1 429 29 is_stmt 0 view .LVU319
 999 0104 4FF67F32 		movw	r2, #64383
 1000 0108 8260     		str	r2, [r0, #8]
 410:Drivers/STM32F4xx_HAL_Driver/Src/stm32f4xx_ll_usb.c ****   {
 1001              		.loc 1 410 40 is_stmt 1 discriminator 2 view .LVU320
 1002 010a 0133     		adds	r3, r3, #1
 1003              	.LVL57:
 1004              	.L66:
 410:Drivers/STM32F4xx_HAL_Driver/Src/stm32f4xx_ll_usb.c ****   {
 1005              		.loc 1 410 18 discriminator 1 view .LVU321
 1006 010c 9942     		cmp	r1, r3
 1007 010e 10D9     		bls	.L80
 412:Drivers/STM32F4xx_HAL_Driver/Src/stm32f4xx_ll_usb.c ****     {
 1008              		.loc 1 412 5 view .LVU322
 412:Drivers/STM32F4xx_HAL_Driver/Src/stm32f4xx_ll_usb.c ****     {
 1009              		.loc 1 412 10 is_stmt 0 view .LVU323
 1010 0110 04EB4312 		add	r2, r4, r3, lsl #5
 1011 0114 02F53060 		add	r0, r2, #2816
 412:Drivers/STM32F4xx_HAL_Driver/Src/stm32f4xx_ll_usb.c ****     {
 1012              		.loc 1 412 23 view .LVU324
 1013 0118 D2F8007B 		ldr	r7, [r2, #2816]
 412:Drivers/STM32F4xx_HAL_Driver/Src/stm32f4xx_ll_usb.c ****     {
 1014              		.loc 1 412 8 view .LVU325
 1015 011c 002F     		cmp	r7, #0
 1016 011e EADB     		blt	.L81
 425:Drivers/STM32F4xx_HAL_Driver/Src/stm32f4xx_ll_usb.c ****     }
 1017              		.loc 1 425 7 is_stmt 1 view .LVU326
ARM GAS  /tmp/cc0ThgoX.s 			page 49


 425:Drivers/STM32F4xx_HAL_Driver/Src/stm32f4xx_ll_usb.c ****     }
 1018              		.loc 1 425 30 is_stmt 0 view .LVU327
 1019 0120 0027     		movs	r7, #0
 1020 0122 C2F8007B 		str	r7, [r2, #2816]
 1021 0126 EBE7     		b	.L69
 1022              	.L79:
 416:Drivers/STM32F4xx_HAL_Driver/Src/stm32f4xx_ll_usb.c ****       }
 1023              		.loc 1 416 9 is_stmt 1 view .LVU328
 416:Drivers/STM32F4xx_HAL_Driver/Src/stm32f4xx_ll_usb.c ****       }
 1024              		.loc 1 416 32 is_stmt 0 view .LVU329
 1025 0128 4FF00067 		mov	r7, #134217728
 1026 012c C2F8007B 		str	r7, [r2, #2816]
 1027 0130 E6E7     		b	.L69
 1028              	.L80:
 432:Drivers/STM32F4xx_HAL_Driver/Src/stm32f4xx_ll_usb.c **** 
 1029              		.loc 1 432 3 is_stmt 1 view .LVU330
 432:Drivers/STM32F4xx_HAL_Driver/Src/stm32f4xx_ll_usb.c **** 
 1030              		.loc 1 432 14 is_stmt 0 view .LVU331
 1031 0132 DCF81030 		ldr	r3, [ip, #16]
 1032              	.LVL58:
 432:Drivers/STM32F4xx_HAL_Driver/Src/stm32f4xx_ll_usb.c **** 
 1033              		.loc 1 432 24 view .LVU332
 1034 0136 23F48073 		bic	r3, r3, #256
 1035 013a CCF81030 		str	r3, [ip, #16]
 435:Drivers/STM32F4xx_HAL_Driver/Src/stm32f4xx_ll_usb.c **** 
 1036              		.loc 1 435 3 is_stmt 1 view .LVU333
 435:Drivers/STM32F4xx_HAL_Driver/Src/stm32f4xx_ll_usb.c **** 
 1037              		.loc 1 435 17 is_stmt 0 view .LVU334
 1038 013e 0023     		movs	r3, #0
 1039 0140 A361     		str	r3, [r4, #24]
 438:Drivers/STM32F4xx_HAL_Driver/Src/stm32f4xx_ll_usb.c **** 
 1040              		.loc 1 438 3 is_stmt 1 view .LVU335
 438:Drivers/STM32F4xx_HAL_Driver/Src/stm32f4xx_ll_usb.c **** 
 1041              		.loc 1 438 17 is_stmt 0 view .LVU336
 1042 0142 6FF08043 		mvn	r3, #1073741824
 1043 0146 6361     		str	r3, [r4, #20]
 441:Drivers/STM32F4xx_HAL_Driver/Src/stm32f4xx_ll_usb.c ****   {
 1044              		.loc 1 441 3 is_stmt 1 view .LVU337
 441:Drivers/STM32F4xx_HAL_Driver/Src/stm32f4xx_ll_usb.c ****   {
 1045              		.loc 1 441 10 is_stmt 0 view .LVU338
 1046 0148 9DF81E30 		ldrb	r3, [sp, #30]	@ zero_extendqisi2
 441:Drivers/STM32F4xx_HAL_Driver/Src/stm32f4xx_ll_usb.c ****   {
 1047              		.loc 1 441 6 view .LVU339
 1048 014c 1BB9     		cbnz	r3, .L71
 443:Drivers/STM32F4xx_HAL_Driver/Src/stm32f4xx_ll_usb.c ****   }
 1049              		.loc 1 443 5 is_stmt 1 view .LVU340
 443:Drivers/STM32F4xx_HAL_Driver/Src/stm32f4xx_ll_usb.c ****   }
 1050              		.loc 1 443 9 is_stmt 0 view .LVU341
 1051 014e A369     		ldr	r3, [r4, #24]
 443:Drivers/STM32F4xx_HAL_Driver/Src/stm32f4xx_ll_usb.c ****   }
 1052              		.loc 1 443 19 view .LVU342
 1053 0150 43F01003 		orr	r3, r3, #16
 1054 0154 A361     		str	r3, [r4, #24]
 1055              	.L71:
 447:Drivers/STM32F4xx_HAL_Driver/Src/stm32f4xx_ll_usb.c ****                    USB_OTG_GINTMSK_ENUMDNEM | USB_OTG_GINTMSK_IEPINT |
 1056              		.loc 1 447 3 is_stmt 1 view .LVU343
 447:Drivers/STM32F4xx_HAL_Driver/Src/stm32f4xx_ll_usb.c ****                    USB_OTG_GINTMSK_ENUMDNEM | USB_OTG_GINTMSK_IEPINT |
ARM GAS  /tmp/cc0ThgoX.s 			page 50


 1057              		.loc 1 447 7 is_stmt 0 view .LVU344
 1058 0156 A269     		ldr	r2, [r4, #24]
 447:Drivers/STM32F4xx_HAL_Driver/Src/stm32f4xx_ll_usb.c ****                    USB_OTG_GINTMSK_ENUMDNEM | USB_OTG_GINTMSK_IEPINT |
 1059              		.loc 1 447 17 view .LVU345
 1060 0158 0B4B     		ldr	r3, .L83
 1061 015a 1343     		orrs	r3, r3, r2
 1062 015c A361     		str	r3, [r4, #24]
 452:Drivers/STM32F4xx_HAL_Driver/Src/stm32f4xx_ll_usb.c ****   {
 1063              		.loc 1 452 3 is_stmt 1 view .LVU346
 452:Drivers/STM32F4xx_HAL_Driver/Src/stm32f4xx_ll_usb.c ****   {
 1064              		.loc 1 452 10 is_stmt 0 view .LVU347
 1065 015e 9DF82230 		ldrb	r3, [sp, #34]	@ zero_extendqisi2
 452:Drivers/STM32F4xx_HAL_Driver/Src/stm32f4xx_ll_usb.c ****   {
 1066              		.loc 1 452 6 view .LVU348
 1067 0162 1BB1     		cbz	r3, .L72
 454:Drivers/STM32F4xx_HAL_Driver/Src/stm32f4xx_ll_usb.c ****   }
 1068              		.loc 1 454 5 is_stmt 1 view .LVU349
 454:Drivers/STM32F4xx_HAL_Driver/Src/stm32f4xx_ll_usb.c ****   }
 1069              		.loc 1 454 9 is_stmt 0 view .LVU350
 1070 0164 A369     		ldr	r3, [r4, #24]
 454:Drivers/STM32F4xx_HAL_Driver/Src/stm32f4xx_ll_usb.c ****   }
 1071              		.loc 1 454 19 view .LVU351
 1072 0166 43F00803 		orr	r3, r3, #8
 1073 016a A361     		str	r3, [r4, #24]
 1074              	.L72:
 457:Drivers/STM32F4xx_HAL_Driver/Src/stm32f4xx_ll_usb.c ****   {
 1075              		.loc 1 457 3 is_stmt 1 view .LVU352
 457:Drivers/STM32F4xx_HAL_Driver/Src/stm32f4xx_ll_usb.c ****   {
 1076              		.loc 1 457 6 is_stmt 0 view .LVU353
 1077 016c 012E     		cmp	r6, #1
 1078 016e 04D0     		beq	.L82
 1079              	.L73:
 462:Drivers/STM32F4xx_HAL_Driver/Src/stm32f4xx_ll_usb.c **** }
 1080              		.loc 1 462 3 is_stmt 1 view .LVU354
 463:Drivers/STM32F4xx_HAL_Driver/Src/stm32f4xx_ll_usb.c **** 
 1081              		.loc 1 463 1 is_stmt 0 view .LVU355
 1082 0170 2846     		mov	r0, r5
 1083 0172 BDE8F840 		pop	{r3, r4, r5, r6, r7, lr}
 1084              	.LCFI16:
 1085              		.cfi_remember_state
 1086              		.cfi_restore 14
 1087              		.cfi_restore 7
 1088              		.cfi_restore 6
 1089              		.cfi_restore 5
 1090              		.cfi_restore 4
 1091              		.cfi_restore 3
 1092              		.cfi_def_cfa_offset 16
 1093              	.LVL59:
 463:Drivers/STM32F4xx_HAL_Driver/Src/stm32f4xx_ll_usb.c **** 
 1094              		.loc 1 463 1 view .LVU356
 1095 0176 04B0     		add	sp, sp, #16
 1096              	.LCFI17:
 1097              		.cfi_def_cfa_offset 0
 1098 0178 7047     		bx	lr
 1099              	.LVL60:
 1100              	.L82:
 1101              	.LCFI18:
ARM GAS  /tmp/cc0ThgoX.s 			page 51


 1102              		.cfi_restore_state
 459:Drivers/STM32F4xx_HAL_Driver/Src/stm32f4xx_ll_usb.c ****   }
 1103              		.loc 1 459 5 is_stmt 1 view .LVU357
 459:Drivers/STM32F4xx_HAL_Driver/Src/stm32f4xx_ll_usb.c ****   }
 1104              		.loc 1 459 9 is_stmt 0 view .LVU358
 1105 017a A369     		ldr	r3, [r4, #24]
 459:Drivers/STM32F4xx_HAL_Driver/Src/stm32f4xx_ll_usb.c ****   }
 1106              		.loc 1 459 19 view .LVU359
 1107 017c 43F08043 		orr	r3, r3, #1073741824
 1108 0180 43F00403 		orr	r3, r3, #4
 1109 0184 A361     		str	r3, [r4, #24]
 1110 0186 F3E7     		b	.L73
 1111              	.L84:
 1112              		.align	2
 1113              	.L83:
 1114 0188 00383C80 		.word	-2143537152
 1115              		.cfi_endproc
 1116              	.LFE139:
 1118              		.section	.text.USB_GetDevSpeed,"ax",%progbits
 1119              		.align	1
 1120              		.global	USB_GetDevSpeed
 1121              		.syntax unified
 1122              		.thumb
 1123              		.thumb_func
 1125              	USB_GetDevSpeed:
 1126              	.LVL61:
 1127              	.LFB143:
 570:Drivers/STM32F4xx_HAL_Driver/Src/stm32f4xx_ll_usb.c ****   uint32_t USBx_BASE = (uint32_t)USBx;
 1128              		.loc 1 570 1 is_stmt 1 view -0
 1129              		.cfi_startproc
 1130              		@ args = 0, pretend = 0, frame = 0
 1131              		@ frame_needed = 0, uses_anonymous_args = 0
 1132              		@ link register save eliminated.
 571:Drivers/STM32F4xx_HAL_Driver/Src/stm32f4xx_ll_usb.c ****   uint8_t speed;
 1133              		.loc 1 571 3 view .LVU361
 572:Drivers/STM32F4xx_HAL_Driver/Src/stm32f4xx_ll_usb.c ****   uint32_t DevEnumSpeed = USBx_DEVICE->DSTS & USB_OTG_DSTS_ENUMSPD;
 1134              		.loc 1 572 3 view .LVU362
 573:Drivers/STM32F4xx_HAL_Driver/Src/stm32f4xx_ll_usb.c **** 
 1135              		.loc 1 573 3 view .LVU363
 573:Drivers/STM32F4xx_HAL_Driver/Src/stm32f4xx_ll_usb.c **** 
 1136              		.loc 1 573 38 is_stmt 0 view .LVU364
 1137 0000 D0F80838 		ldr	r3, [r0, #2056]
 573:Drivers/STM32F4xx_HAL_Driver/Src/stm32f4xx_ll_usb.c **** 
 1138              		.loc 1 573 12 view .LVU365
 1139 0004 03F00603 		and	r3, r3, #6
 1140              	.LVL62:
 575:Drivers/STM32F4xx_HAL_Driver/Src/stm32f4xx_ll_usb.c ****   {
 1141              		.loc 1 575 3 is_stmt 1 view .LVU366
 1142 0008 022B     		cmp	r3, #2
 1143 000a 04D0     		beq	.L87
 1144 000c 062B     		cmp	r3, #6
 1145 000e 04D0     		beq	.L88
 1146 0010 2BB9     		cbnz	r3, .L89
 573:Drivers/STM32F4xx_HAL_Driver/Src/stm32f4xx_ll_usb.c **** 
 1147              		.loc 1 573 12 is_stmt 0 view .LVU367
 1148 0012 0020     		movs	r0, #0
 1149              	.LVL63:
ARM GAS  /tmp/cc0ThgoX.s 			page 52


 573:Drivers/STM32F4xx_HAL_Driver/Src/stm32f4xx_ll_usb.c **** 
 1150              		.loc 1 573 12 view .LVU368
 1151 0014 7047     		bx	lr
 1152              	.LVL64:
 1153              	.L87:
 573:Drivers/STM32F4xx_HAL_Driver/Src/stm32f4xx_ll_usb.c **** 
 1154              		.loc 1 573 12 view .LVU369
 1155 0016 0220     		movs	r0, #2
 1156              	.LVL65:
 573:Drivers/STM32F4xx_HAL_Driver/Src/stm32f4xx_ll_usb.c **** 
 1157              		.loc 1 573 12 view .LVU370
 1158 0018 7047     		bx	lr
 1159              	.LVL66:
 1160              	.L88:
 573:Drivers/STM32F4xx_HAL_Driver/Src/stm32f4xx_ll_usb.c **** 
 1161              		.loc 1 573 12 view .LVU371
 1162 001a 0220     		movs	r0, #2
 1163              	.LVL67:
 573:Drivers/STM32F4xx_HAL_Driver/Src/stm32f4xx_ll_usb.c **** 
 1164              		.loc 1 573 12 view .LVU372
 1165 001c 7047     		bx	lr
 1166              	.LVL68:
 1167              	.L89:
 573:Drivers/STM32F4xx_HAL_Driver/Src/stm32f4xx_ll_usb.c **** 
 1168              		.loc 1 573 12 view .LVU373
 1169 001e 0F20     		movs	r0, #15
 1170              	.LVL69:
 589:Drivers/STM32F4xx_HAL_Driver/Src/stm32f4xx_ll_usb.c **** }
 1171              		.loc 1 589 3 is_stmt 1 view .LVU374
 590:Drivers/STM32F4xx_HAL_Driver/Src/stm32f4xx_ll_usb.c **** 
 1172              		.loc 1 590 1 is_stmt 0 view .LVU375
 1173 0020 7047     		bx	lr
 1174              		.cfi_endproc
 1175              	.LFE143:
 1177              		.section	.text.USB_ActivateEndpoint,"ax",%progbits
 1178              		.align	1
 1179              		.global	USB_ActivateEndpoint
 1180              		.syntax unified
 1181              		.thumb
 1182              		.thumb_func
 1184              	USB_ActivateEndpoint:
 1185              	.LVL70:
 1186              	.LFB144:
 599:Drivers/STM32F4xx_HAL_Driver/Src/stm32f4xx_ll_usb.c ****   uint32_t USBx_BASE = (uint32_t)USBx;
 1187              		.loc 1 599 1 is_stmt 1 view -0
 1188              		.cfi_startproc
 1189              		@ args = 0, pretend = 0, frame = 0
 1190              		@ frame_needed = 0, uses_anonymous_args = 0
 599:Drivers/STM32F4xx_HAL_Driver/Src/stm32f4xx_ll_usb.c ****   uint32_t USBx_BASE = (uint32_t)USBx;
 1191              		.loc 1 599 1 is_stmt 0 view .LVU377
 1192 0000 10B5     		push	{r4, lr}
 1193              	.LCFI19:
 1194              		.cfi_def_cfa_offset 8
 1195              		.cfi_offset 4, -8
 1196              		.cfi_offset 14, -4
 600:Drivers/STM32F4xx_HAL_Driver/Src/stm32f4xx_ll_usb.c ****   uint32_t epnum = (uint32_t)ep->num;
 1197              		.loc 1 600 3 is_stmt 1 view .LVU378
ARM GAS  /tmp/cc0ThgoX.s 			page 53


 1198              	.LVL71:
 601:Drivers/STM32F4xx_HAL_Driver/Src/stm32f4xx_ll_usb.c **** 
 1199              		.loc 1 601 3 view .LVU379
 601:Drivers/STM32F4xx_HAL_Driver/Src/stm32f4xx_ll_usb.c **** 
 1200              		.loc 1 601 32 is_stmt 0 view .LVU380
 1201 0002 91F800C0 		ldrb	ip, [r1]	@ zero_extendqisi2
 1202              	.LVL72:
 603:Drivers/STM32F4xx_HAL_Driver/Src/stm32f4xx_ll_usb.c ****   {
 1203              		.loc 1 603 3 is_stmt 1 view .LVU381
 603:Drivers/STM32F4xx_HAL_Driver/Src/stm32f4xx_ll_usb.c ****   {
 1204              		.loc 1 603 9 is_stmt 0 view .LVU382
 1205 0006 4B78     		ldrb	r3, [r1, #1]	@ zero_extendqisi2
 603:Drivers/STM32F4xx_HAL_Driver/Src/stm32f4xx_ll_usb.c ****   {
 1206              		.loc 1 603 6 view .LVU383
 1207 0008 012B     		cmp	r3, #1
 1208 000a 23D0     		beq	.L94
 617:Drivers/STM32F4xx_HAL_Driver/Src/stm32f4xx_ll_usb.c **** 
 1209              		.loc 1 617 5 is_stmt 1 view .LVU384
 617:Drivers/STM32F4xx_HAL_Driver/Src/stm32f4xx_ll_usb.c **** 
 1210              		.loc 1 617 16 is_stmt 0 view .LVU385
 1211 000c 00F5006E 		add	lr, r0, #2048
 1212 0010 D0F81C38 		ldr	r3, [r0, #2076]
 617:Drivers/STM32F4xx_HAL_Driver/Src/stm32f4xx_ll_usb.c **** 
 1213              		.loc 1 617 82 view .LVU386
 1214 0014 0CF00F04 		and	r4, ip, #15
 617:Drivers/STM32F4xx_HAL_Driver/Src/stm32f4xx_ll_usb.c **** 
 1215              		.loc 1 617 55 view .LVU387
 1216 0018 0122     		movs	r2, #1
 1217 001a A240     		lsls	r2, r2, r4
 617:Drivers/STM32F4xx_HAL_Driver/Src/stm32f4xx_ll_usb.c **** 
 1218              		.loc 1 617 27 view .LVU388
 1219 001c 43EA0243 		orr	r3, r3, r2, lsl #16
 1220 0020 C0F81C38 		str	r3, [r0, #2076]
 619:Drivers/STM32F4xx_HAL_Driver/Src/stm32f4xx_ll_usb.c ****     {
 1221              		.loc 1 619 5 is_stmt 1 view .LVU389
 619:Drivers/STM32F4xx_HAL_Driver/Src/stm32f4xx_ll_usb.c ****     {
 1222              		.loc 1 619 11 is_stmt 0 view .LVU390
 1223 0024 00EB4C10 		add	r0, r0, ip, lsl #5
 1224              	.LVL73:
 619:Drivers/STM32F4xx_HAL_Driver/Src/stm32f4xx_ll_usb.c ****     {
 1225              		.loc 1 619 28 view .LVU391
 1226 0028 D0F8003B 		ldr	r3, [r0, #2816]
 619:Drivers/STM32F4xx_HAL_Driver/Src/stm32f4xx_ll_usb.c ****     {
 1227              		.loc 1 619 8 view .LVU392
 1228 002c 13F4004F 		tst	r3, #32768
 1229 0030 0ED1     		bne	.L92
 621:Drivers/STM32F4xx_HAL_Driver/Src/stm32f4xx_ll_usb.c ****                                     ((uint32_t)ep->type << 18) |
 1230              		.loc 1 621 7 is_stmt 1 view .LVU393
 621:Drivers/STM32F4xx_HAL_Driver/Src/stm32f4xx_ll_usb.c ****                                     ((uint32_t)ep->type << 18) |
 1231              		.loc 1 621 24 is_stmt 0 view .LVU394
 1232 0032 D0F8003B 		ldr	r3, [r0, #2816]
 621:Drivers/STM32F4xx_HAL_Driver/Src/stm32f4xx_ll_usb.c ****                                     ((uint32_t)ep->type << 18) |
 1233              		.loc 1 621 40 view .LVU395
 1234 0036 8A68     		ldr	r2, [r1, #8]
 621:Drivers/STM32F4xx_HAL_Driver/Src/stm32f4xx_ll_usb.c ****                                     ((uint32_t)ep->type << 18) |
 1235              		.loc 1 621 52 view .LVU396
 1236 0038 C2F30A02 		ubfx	r2, r2, #0, #11
ARM GAS  /tmp/cc0ThgoX.s 			page 54


 622:Drivers/STM32F4xx_HAL_Driver/Src/stm32f4xx_ll_usb.c ****                                     USB_OTG_DIEPCTL_SD0PID_SEVNFRM |
 1237              		.loc 1 622 50 view .LVU397
 1238 003c 0979     		ldrb	r1, [r1, #4]	@ zero_extendqisi2
 1239              	.LVL74:
 621:Drivers/STM32F4xx_HAL_Driver/Src/stm32f4xx_ll_usb.c ****                                     ((uint32_t)ep->type << 18) |
 1240              		.loc 1 621 77 view .LVU398
 1241 003e 42EA8142 		orr	r2, r2, r1, lsl #18
 621:Drivers/STM32F4xx_HAL_Driver/Src/stm32f4xx_ll_usb.c ****                                     ((uint32_t)ep->type << 18) |
 1242              		.loc 1 621 34 view .LVU399
 1243 0042 1343     		orrs	r3, r3, r2
 1244 0044 43F08053 		orr	r3, r3, #268435456
 1245 0048 43F40043 		orr	r3, r3, #32768
 1246 004c C0F8003B 		str	r3, [r0, #2816]
 1247              	.LVL75:
 1248              	.L92:
 627:Drivers/STM32F4xx_HAL_Driver/Src/stm32f4xx_ll_usb.c **** }
 1249              		.loc 1 627 3 is_stmt 1 view .LVU400
 628:Drivers/STM32F4xx_HAL_Driver/Src/stm32f4xx_ll_usb.c **** 
 1250              		.loc 1 628 1 is_stmt 0 view .LVU401
 1251 0050 0020     		movs	r0, #0
 1252 0052 10BD     		pop	{r4, pc}
 1253              	.LVL76:
 1254              	.L94:
 605:Drivers/STM32F4xx_HAL_Driver/Src/stm32f4xx_ll_usb.c **** 
 1255              		.loc 1 605 5 is_stmt 1 view .LVU402
 605:Drivers/STM32F4xx_HAL_Driver/Src/stm32f4xx_ll_usb.c **** 
 1256              		.loc 1 605 16 is_stmt 0 view .LVU403
 1257 0054 D0F81C28 		ldr	r2, [r0, #2076]
 605:Drivers/STM32F4xx_HAL_Driver/Src/stm32f4xx_ll_usb.c **** 
 1258              		.loc 1 605 81 view .LVU404
 1259 0058 0CF00F0E 		and	lr, ip, #15
 605:Drivers/STM32F4xx_HAL_Driver/Src/stm32f4xx_ll_usb.c **** 
 1260              		.loc 1 605 54 view .LVU405
 1261 005c 03FA0EF3 		lsl	r3, r3, lr
 605:Drivers/STM32F4xx_HAL_Driver/Src/stm32f4xx_ll_usb.c **** 
 1262              		.loc 1 605 52 view .LVU406
 1263 0060 9BB2     		uxth	r3, r3
 605:Drivers/STM32F4xx_HAL_Driver/Src/stm32f4xx_ll_usb.c **** 
 1264              		.loc 1 605 27 view .LVU407
 1265 0062 1343     		orrs	r3, r3, r2
 1266 0064 C0F81C38 		str	r3, [r0, #2076]
 607:Drivers/STM32F4xx_HAL_Driver/Src/stm32f4xx_ll_usb.c ****     {
 1267              		.loc 1 607 5 is_stmt 1 view .LVU408
 607:Drivers/STM32F4xx_HAL_Driver/Src/stm32f4xx_ll_usb.c ****     {
 1268              		.loc 1 607 10 is_stmt 0 view .LVU409
 1269 0068 00EB4C10 		add	r0, r0, ip, lsl #5
 1270              	.LVL77:
 607:Drivers/STM32F4xx_HAL_Driver/Src/stm32f4xx_ll_usb.c ****     {
 1271              		.loc 1 607 26 view .LVU410
 1272 006c D0F80039 		ldr	r3, [r0, #2304]
 607:Drivers/STM32F4xx_HAL_Driver/Src/stm32f4xx_ll_usb.c ****     {
 1273              		.loc 1 607 8 view .LVU411
 1274 0070 13F4004F 		tst	r3, #32768
 1275 0074 ECD1     		bne	.L92
 609:Drivers/STM32F4xx_HAL_Driver/Src/stm32f4xx_ll_usb.c ****                                    ((uint32_t)ep->type << 18) | (epnum << 22) |
 1276              		.loc 1 609 7 is_stmt 1 view .LVU412
 609:Drivers/STM32F4xx_HAL_Driver/Src/stm32f4xx_ll_usb.c ****                                    ((uint32_t)ep->type << 18) | (epnum << 22) |
ARM GAS  /tmp/cc0ThgoX.s 			page 55


 1277              		.loc 1 609 23 is_stmt 0 view .LVU413
 1278 0076 D0F80039 		ldr	r3, [r0, #2304]
 609:Drivers/STM32F4xx_HAL_Driver/Src/stm32f4xx_ll_usb.c ****                                    ((uint32_t)ep->type << 18) | (epnum << 22) |
 1279              		.loc 1 609 39 view .LVU414
 1280 007a 8A68     		ldr	r2, [r1, #8]
 609:Drivers/STM32F4xx_HAL_Driver/Src/stm32f4xx_ll_usb.c ****                                    ((uint32_t)ep->type << 18) | (epnum << 22) |
 1281              		.loc 1 609 51 view .LVU415
 1282 007c C2F30A02 		ubfx	r2, r2, #0, #11
 610:Drivers/STM32F4xx_HAL_Driver/Src/stm32f4xx_ll_usb.c ****                                    USB_OTG_DIEPCTL_SD0PID_SEVNFRM |
 1283              		.loc 1 610 49 view .LVU416
 1284 0080 0979     		ldrb	r1, [r1, #4]	@ zero_extendqisi2
 1285              	.LVL78:
 609:Drivers/STM32F4xx_HAL_Driver/Src/stm32f4xx_ll_usb.c ****                                    ((uint32_t)ep->type << 18) | (epnum << 22) |
 1286              		.loc 1 609 76 view .LVU417
 1287 0082 42EA8142 		orr	r2, r2, r1, lsl #18
 610:Drivers/STM32F4xx_HAL_Driver/Src/stm32f4xx_ll_usb.c ****                                    USB_OTG_DIEPCTL_SD0PID_SEVNFRM |
 1288              		.loc 1 610 63 view .LVU418
 1289 0086 42EA8C52 		orr	r2, r2, ip, lsl #22
 609:Drivers/STM32F4xx_HAL_Driver/Src/stm32f4xx_ll_usb.c ****                                    ((uint32_t)ep->type << 18) | (epnum << 22) |
 1290              		.loc 1 609 33 view .LVU419
 1291 008a 1343     		orrs	r3, r3, r2
 1292 008c 43F08053 		orr	r3, r3, #268435456
 1293 0090 43F40043 		orr	r3, r3, #32768
 1294 0094 C0F80039 		str	r3, [r0, #2304]
 1295 0098 DAE7     		b	.L92
 1296              		.cfi_endproc
 1297              	.LFE144:
 1299              		.section	.text.USB_ActivateDedicatedEndpoint,"ax",%progbits
 1300              		.align	1
 1301              		.global	USB_ActivateDedicatedEndpoint
 1302              		.syntax unified
 1303              		.thumb
 1304              		.thumb_func
 1306              	USB_ActivateDedicatedEndpoint:
 1307              	.LVL79:
 1308              	.LFB145:
 637:Drivers/STM32F4xx_HAL_Driver/Src/stm32f4xx_ll_usb.c ****   uint32_t USBx_BASE = (uint32_t)USBx;
 1309              		.loc 1 637 1 is_stmt 1 view -0
 1310              		.cfi_startproc
 1311              		@ args = 0, pretend = 0, frame = 0
 1312              		@ frame_needed = 0, uses_anonymous_args = 0
 637:Drivers/STM32F4xx_HAL_Driver/Src/stm32f4xx_ll_usb.c ****   uint32_t USBx_BASE = (uint32_t)USBx;
 1313              		.loc 1 637 1 is_stmt 0 view .LVU421
 1314 0000 10B5     		push	{r4, lr}
 1315              	.LCFI20:
 1316              		.cfi_def_cfa_offset 8
 1317              		.cfi_offset 4, -8
 1318              		.cfi_offset 14, -4
 638:Drivers/STM32F4xx_HAL_Driver/Src/stm32f4xx_ll_usb.c ****   uint32_t epnum = (uint32_t)ep->num;
 1319              		.loc 1 638 3 is_stmt 1 view .LVU422
 1320              	.LVL80:
 639:Drivers/STM32F4xx_HAL_Driver/Src/stm32f4xx_ll_usb.c **** 
 1321              		.loc 1 639 3 view .LVU423
 639:Drivers/STM32F4xx_HAL_Driver/Src/stm32f4xx_ll_usb.c **** 
 1322              		.loc 1 639 32 is_stmt 0 view .LVU424
 1323 0002 0A78     		ldrb	r2, [r1]	@ zero_extendqisi2
 1324              	.LVL81:
ARM GAS  /tmp/cc0ThgoX.s 			page 56


 642:Drivers/STM32F4xx_HAL_Driver/Src/stm32f4xx_ll_usb.c ****   {
 1325              		.loc 1 642 3 is_stmt 1 view .LVU425
 642:Drivers/STM32F4xx_HAL_Driver/Src/stm32f4xx_ll_usb.c ****   {
 1326              		.loc 1 642 9 is_stmt 0 view .LVU426
 1327 0004 4B78     		ldrb	r3, [r1, #1]	@ zero_extendqisi2
 642:Drivers/STM32F4xx_HAL_Driver/Src/stm32f4xx_ll_usb.c ****   {
 1328              		.loc 1 642 6 view .LVU427
 1329 0006 012B     		cmp	r3, #1
 1330 0008 23D0     		beq	.L101
 656:Drivers/STM32F4xx_HAL_Driver/Src/stm32f4xx_ll_usb.c ****     {
 1331              		.loc 1 656 5 is_stmt 1 view .LVU428
 656:Drivers/STM32F4xx_HAL_Driver/Src/stm32f4xx_ll_usb.c ****     {
 1332              		.loc 1 656 11 is_stmt 0 view .LVU429
 1333 000a 00EB421C 		add	ip, r0, r2, lsl #5
 656:Drivers/STM32F4xx_HAL_Driver/Src/stm32f4xx_ll_usb.c ****     {
 1334              		.loc 1 656 28 view .LVU430
 1335 000e DCF8003B 		ldr	r3, [ip, #2816]
 656:Drivers/STM32F4xx_HAL_Driver/Src/stm32f4xx_ll_usb.c ****     {
 1336              		.loc 1 656 8 view .LVU431
 1337 0012 13F4004F 		tst	r3, #32768
 1338 0016 0FD1     		bne	.L99
 658:Drivers/STM32F4xx_HAL_Driver/Src/stm32f4xx_ll_usb.c ****                                     ((uint32_t)ep->type << 18) | (epnum << 22) |
 1339              		.loc 1 658 7 is_stmt 1 view .LVU432
 658:Drivers/STM32F4xx_HAL_Driver/Src/stm32f4xx_ll_usb.c ****                                     ((uint32_t)ep->type << 18) | (epnum << 22) |
 1340              		.loc 1 658 24 is_stmt 0 view .LVU433
 1341 0018 DCF8004B 		ldr	r4, [ip, #2816]
 658:Drivers/STM32F4xx_HAL_Driver/Src/stm32f4xx_ll_usb.c ****                                     ((uint32_t)ep->type << 18) | (epnum << 22) |
 1342              		.loc 1 658 40 view .LVU434
 1343 001c 8B68     		ldr	r3, [r1, #8]
 658:Drivers/STM32F4xx_HAL_Driver/Src/stm32f4xx_ll_usb.c ****                                     ((uint32_t)ep->type << 18) | (epnum << 22) |
 1344              		.loc 1 658 52 view .LVU435
 1345 001e C3F30A03 		ubfx	r3, r3, #0, #11
 659:Drivers/STM32F4xx_HAL_Driver/Src/stm32f4xx_ll_usb.c ****                                     USB_OTG_DOEPCTL_USBAEP;
 1346              		.loc 1 659 50 view .LVU436
 1347 0022 91F804E0 		ldrb	lr, [r1, #4]	@ zero_extendqisi2
 658:Drivers/STM32F4xx_HAL_Driver/Src/stm32f4xx_ll_usb.c ****                                     ((uint32_t)ep->type << 18) | (epnum << 22) |
 1348              		.loc 1 658 77 view .LVU437
 1349 0026 43EA8E43 		orr	r3, r3, lr, lsl #18
 659:Drivers/STM32F4xx_HAL_Driver/Src/stm32f4xx_ll_usb.c ****                                     USB_OTG_DOEPCTL_USBAEP;
 1350              		.loc 1 659 64 view .LVU438
 1351 002a 43EA8253 		orr	r3, r3, r2, lsl #22
 658:Drivers/STM32F4xx_HAL_Driver/Src/stm32f4xx_ll_usb.c ****                                     ((uint32_t)ep->type << 18) | (epnum << 22) |
 1352              		.loc 1 658 34 view .LVU439
 1353 002e 2343     		orrs	r3, r3, r4
 1354 0030 43F40043 		orr	r3, r3, #32768
 1355 0034 CCF8003B 		str	r3, [ip, #2816]
 1356              	.L99:
 663:Drivers/STM32F4xx_HAL_Driver/Src/stm32f4xx_ll_usb.c ****   }
 1357              		.loc 1 663 5 is_stmt 1 view .LVU440
 663:Drivers/STM32F4xx_HAL_Driver/Src/stm32f4xx_ll_usb.c ****   }
 1358              		.loc 1 663 16 is_stmt 0 view .LVU441
 1359 0038 D0F83C38 		ldr	r3, [r0, #2108]
 663:Drivers/STM32F4xx_HAL_Driver/Src/stm32f4xx_ll_usb.c ****   }
 1360              		.loc 1 663 76 view .LVU442
 1361 003c 0978     		ldrb	r1, [r1]	@ zero_extendqisi2
 1362              	.LVL82:
 663:Drivers/STM32F4xx_HAL_Driver/Src/stm32f4xx_ll_usb.c ****   }
ARM GAS  /tmp/cc0ThgoX.s 			page 57


 1363              		.loc 1 663 82 view .LVU443
 1364 003e 01F00F01 		and	r1, r1, #15
 663:Drivers/STM32F4xx_HAL_Driver/Src/stm32f4xx_ll_usb.c ****   }
 1365              		.loc 1 663 55 view .LVU444
 1366 0042 0122     		movs	r2, #1
 1367              	.LVL83:
 663:Drivers/STM32F4xx_HAL_Driver/Src/stm32f4xx_ll_usb.c ****   }
 1368              		.loc 1 663 55 view .LVU445
 1369 0044 8A40     		lsls	r2, r2, r1
 663:Drivers/STM32F4xx_HAL_Driver/Src/stm32f4xx_ll_usb.c ****   }
 1370              		.loc 1 663 27 view .LVU446
 1371 0046 43EA0243 		orr	r3, r3, r2, lsl #16
 1372 004a C0F83C38 		str	r3, [r0, #2108]
 1373              	.L98:
 666:Drivers/STM32F4xx_HAL_Driver/Src/stm32f4xx_ll_usb.c **** }
 1374              		.loc 1 666 3 is_stmt 1 view .LVU447
 667:Drivers/STM32F4xx_HAL_Driver/Src/stm32f4xx_ll_usb.c **** 
 1375              		.loc 1 667 1 is_stmt 0 view .LVU448
 1376 004e 0020     		movs	r0, #0
 1377              	.LVL84:
 667:Drivers/STM32F4xx_HAL_Driver/Src/stm32f4xx_ll_usb.c **** 
 1378              		.loc 1 667 1 view .LVU449
 1379 0050 10BD     		pop	{r4, pc}
 1380              	.LVL85:
 1381              	.L101:
 644:Drivers/STM32F4xx_HAL_Driver/Src/stm32f4xx_ll_usb.c ****     {
 1382              		.loc 1 644 5 is_stmt 1 view .LVU450
 644:Drivers/STM32F4xx_HAL_Driver/Src/stm32f4xx_ll_usb.c ****     {
 1383              		.loc 1 644 11 is_stmt 0 view .LVU451
 1384 0052 00EB421C 		add	ip, r0, r2, lsl #5
 644:Drivers/STM32F4xx_HAL_Driver/Src/stm32f4xx_ll_usb.c ****     {
 1385              		.loc 1 644 27 view .LVU452
 1386 0056 DCF80039 		ldr	r3, [ip, #2304]
 644:Drivers/STM32F4xx_HAL_Driver/Src/stm32f4xx_ll_usb.c ****     {
 1387              		.loc 1 644 8 view .LVU453
 1388 005a 13F4004F 		tst	r3, #32768
 1389 005e 11D1     		bne	.L97
 646:Drivers/STM32F4xx_HAL_Driver/Src/stm32f4xx_ll_usb.c ****                                    ((uint32_t)ep->type << 18) | (epnum << 22) |
 1390              		.loc 1 646 7 is_stmt 1 view .LVU454
 646:Drivers/STM32F4xx_HAL_Driver/Src/stm32f4xx_ll_usb.c ****                                    ((uint32_t)ep->type << 18) | (epnum << 22) |
 1391              		.loc 1 646 23 is_stmt 0 view .LVU455
 1392 0060 DCF80039 		ldr	r3, [ip, #2304]
 646:Drivers/STM32F4xx_HAL_Driver/Src/stm32f4xx_ll_usb.c ****                                    ((uint32_t)ep->type << 18) | (epnum << 22) |
 1393              		.loc 1 646 39 view .LVU456
 1394 0064 8C68     		ldr	r4, [r1, #8]
 646:Drivers/STM32F4xx_HAL_Driver/Src/stm32f4xx_ll_usb.c ****                                    ((uint32_t)ep->type << 18) | (epnum << 22) |
 1395              		.loc 1 646 51 view .LVU457
 1396 0066 C4F30A04 		ubfx	r4, r4, #0, #11
 647:Drivers/STM32F4xx_HAL_Driver/Src/stm32f4xx_ll_usb.c ****                                    USB_OTG_DIEPCTL_SD0PID_SEVNFRM |
 1397              		.loc 1 647 49 view .LVU458
 1398 006a 91F804E0 		ldrb	lr, [r1, #4]	@ zero_extendqisi2
 646:Drivers/STM32F4xx_HAL_Driver/Src/stm32f4xx_ll_usb.c ****                                    ((uint32_t)ep->type << 18) | (epnum << 22) |
 1399              		.loc 1 646 76 view .LVU459
 1400 006e 44EA8E44 		orr	r4, r4, lr, lsl #18
 647:Drivers/STM32F4xx_HAL_Driver/Src/stm32f4xx_ll_usb.c ****                                    USB_OTG_DIEPCTL_SD0PID_SEVNFRM |
 1401              		.loc 1 647 63 view .LVU460
 1402 0072 44EA8254 		orr	r4, r4, r2, lsl #22
ARM GAS  /tmp/cc0ThgoX.s 			page 58


 646:Drivers/STM32F4xx_HAL_Driver/Src/stm32f4xx_ll_usb.c ****                                    ((uint32_t)ep->type << 18) | (epnum << 22) |
 1403              		.loc 1 646 33 view .LVU461
 1404 0076 2343     		orrs	r3, r3, r4
 1405 0078 43F08053 		orr	r3, r3, #268435456
 1406 007c 43F40043 		orr	r3, r3, #32768
 1407 0080 CCF80039 		str	r3, [ip, #2304]
 1408              	.L97:
 652:Drivers/STM32F4xx_HAL_Driver/Src/stm32f4xx_ll_usb.c ****   }
 1409              		.loc 1 652 5 is_stmt 1 view .LVU462
 652:Drivers/STM32F4xx_HAL_Driver/Src/stm32f4xx_ll_usb.c ****   }
 1410              		.loc 1 652 16 is_stmt 0 view .LVU463
 1411 0084 D0F83C28 		ldr	r2, [r0, #2108]
 1412              	.LVL86:
 652:Drivers/STM32F4xx_HAL_Driver/Src/stm32f4xx_ll_usb.c ****   }
 1413              		.loc 1 652 75 view .LVU464
 1414 0088 0978     		ldrb	r1, [r1]	@ zero_extendqisi2
 1415              	.LVL87:
 652:Drivers/STM32F4xx_HAL_Driver/Src/stm32f4xx_ll_usb.c ****   }
 1416              		.loc 1 652 81 view .LVU465
 1417 008a 01F00F01 		and	r1, r1, #15
 652:Drivers/STM32F4xx_HAL_Driver/Src/stm32f4xx_ll_usb.c ****   }
 1418              		.loc 1 652 54 view .LVU466
 1419 008e 0123     		movs	r3, #1
 1420 0090 8B40     		lsls	r3, r3, r1
 652:Drivers/STM32F4xx_HAL_Driver/Src/stm32f4xx_ll_usb.c ****   }
 1421              		.loc 1 652 52 view .LVU467
 1422 0092 9BB2     		uxth	r3, r3
 652:Drivers/STM32F4xx_HAL_Driver/Src/stm32f4xx_ll_usb.c ****   }
 1423              		.loc 1 652 27 view .LVU468
 1424 0094 1343     		orrs	r3, r3, r2
 1425 0096 C0F83C38 		str	r3, [r0, #2108]
 1426 009a D8E7     		b	.L98
 1427              		.cfi_endproc
 1428              	.LFE145:
 1430              		.section	.text.USB_DeactivateEndpoint,"ax",%progbits
 1431              		.align	1
 1432              		.global	USB_DeactivateEndpoint
 1433              		.syntax unified
 1434              		.thumb
 1435              		.thumb_func
 1437              	USB_DeactivateEndpoint:
 1438              	.LVL88:
 1439              	.LFB146:
 676:Drivers/STM32F4xx_HAL_Driver/Src/stm32f4xx_ll_usb.c ****   uint32_t USBx_BASE = (uint32_t)USBx;
 1440              		.loc 1 676 1 is_stmt 1 view -0
 1441              		.cfi_startproc
 1442              		@ args = 0, pretend = 0, frame = 0
 1443              		@ frame_needed = 0, uses_anonymous_args = 0
 1444              		@ link register save eliminated.
 676:Drivers/STM32F4xx_HAL_Driver/Src/stm32f4xx_ll_usb.c ****   uint32_t USBx_BASE = (uint32_t)USBx;
 1445              		.loc 1 676 1 is_stmt 0 view .LVU470
 1446 0000 30B4     		push	{r4, r5}
 1447              	.LCFI21:
 1448              		.cfi_def_cfa_offset 8
 1449              		.cfi_offset 4, -8
 1450              		.cfi_offset 5, -4
 677:Drivers/STM32F4xx_HAL_Driver/Src/stm32f4xx_ll_usb.c ****   uint32_t epnum = (uint32_t)ep->num;
ARM GAS  /tmp/cc0ThgoX.s 			page 59


 1451              		.loc 1 677 3 is_stmt 1 view .LVU471
 1452              	.LVL89:
 678:Drivers/STM32F4xx_HAL_Driver/Src/stm32f4xx_ll_usb.c **** 
 1453              		.loc 1 678 3 view .LVU472
 678:Drivers/STM32F4xx_HAL_Driver/Src/stm32f4xx_ll_usb.c **** 
 1454              		.loc 1 678 32 is_stmt 0 view .LVU473
 1455 0002 0B78     		ldrb	r3, [r1]	@ zero_extendqisi2
 1456              	.LVL90:
 681:Drivers/STM32F4xx_HAL_Driver/Src/stm32f4xx_ll_usb.c ****   {
 1457              		.loc 1 681 3 is_stmt 1 view .LVU474
 681:Drivers/STM32F4xx_HAL_Driver/Src/stm32f4xx_ll_usb.c ****   {
 1458              		.loc 1 681 9 is_stmt 0 view .LVU475
 1459 0004 4A78     		ldrb	r2, [r1, #1]	@ zero_extendqisi2
 681:Drivers/STM32F4xx_HAL_Driver/Src/stm32f4xx_ll_usb.c ****   {
 1460              		.loc 1 681 6 view .LVU476
 1461 0006 012A     		cmp	r2, #1
 1462 0008 26D0     		beq	.L108
 699:Drivers/STM32F4xx_HAL_Driver/Src/stm32f4xx_ll_usb.c ****     {
 1463              		.loc 1 699 5 is_stmt 1 view .LVU477
 699:Drivers/STM32F4xx_HAL_Driver/Src/stm32f4xx_ll_usb.c ****     {
 1464              		.loc 1 699 10 is_stmt 0 view .LVU478
 1465 000a 00EB4313 		add	r3, r0, r3, lsl #5
 1466              	.LVL91:
 699:Drivers/STM32F4xx_HAL_Driver/Src/stm32f4xx_ll_usb.c ****     {
 1467              		.loc 1 699 27 view .LVU479
 1468 000e D3F8002B 		ldr	r2, [r3, #2816]
 699:Drivers/STM32F4xx_HAL_Driver/Src/stm32f4xx_ll_usb.c ****     {
 1469              		.loc 1 699 8 view .LVU480
 1470 0012 002A     		cmp	r2, #0
 1471 0014 52DB     		blt	.L109
 1472              	.LVL92:
 1473              	.L106:
 705:Drivers/STM32F4xx_HAL_Driver/Src/stm32f4xx_ll_usb.c ****     USBx_DEVICE->DAINTMSK &= ~(USB_OTG_DAINTMSK_OEPM & ((uint32_t)(1UL << (ep->num & EP_ADDR_MSK)) 
 1474              		.loc 1 705 5 is_stmt 1 view .LVU481
 705:Drivers/STM32F4xx_HAL_Driver/Src/stm32f4xx_ll_usb.c ****     USBx_DEVICE->DAINTMSK &= ~(USB_OTG_DAINTMSK_OEPM & ((uint32_t)(1UL << (ep->num & EP_ADDR_MSK)) 
 1475              		.loc 1 705 16 is_stmt 0 view .LVU482
 1476 0016 D0F83C48 		ldr	r4, [r0, #2108]
 705:Drivers/STM32F4xx_HAL_Driver/Src/stm32f4xx_ll_usb.c ****     USBx_DEVICE->DAINTMSK &= ~(USB_OTG_DAINTMSK_OEPM & ((uint32_t)(1UL << (ep->num & EP_ADDR_MSK)) 
 1477              		.loc 1 705 78 view .LVU483
 1478 001a 0A78     		ldrb	r2, [r1]	@ zero_extendqisi2
 705:Drivers/STM32F4xx_HAL_Driver/Src/stm32f4xx_ll_usb.c ****     USBx_DEVICE->DAINTMSK &= ~(USB_OTG_DAINTMSK_OEPM & ((uint32_t)(1UL << (ep->num & EP_ADDR_MSK)) 
 1479              		.loc 1 705 84 view .LVU484
 1480 001c 02F00F02 		and	r2, r2, #15
 705:Drivers/STM32F4xx_HAL_Driver/Src/stm32f4xx_ll_usb.c ****     USBx_DEVICE->DAINTMSK &= ~(USB_OTG_DAINTMSK_OEPM & ((uint32_t)(1UL << (ep->num & EP_ADDR_MSK)) 
 1481              		.loc 1 705 57 view .LVU485
 1482 0020 4FF0010C 		mov	ip, #1
 1483 0024 0CFA02F2 		lsl	r2, ip, r2
 705:Drivers/STM32F4xx_HAL_Driver/Src/stm32f4xx_ll_usb.c ****     USBx_DEVICE->DAINTMSK &= ~(USB_OTG_DAINTMSK_OEPM & ((uint32_t)(1UL << (ep->num & EP_ADDR_MSK)) 
 1484              		.loc 1 705 27 view .LVU486
 1485 0028 24EA0242 		bic	r2, r4, r2, lsl #16
 1486 002c C0F83C28 		str	r2, [r0, #2108]
 706:Drivers/STM32F4xx_HAL_Driver/Src/stm32f4xx_ll_usb.c ****     USBx_OUTEP(epnum)->DOEPCTL &= ~(USB_OTG_DOEPCTL_USBAEP |
 1487              		.loc 1 706 5 is_stmt 1 view .LVU487
 706:Drivers/STM32F4xx_HAL_Driver/Src/stm32f4xx_ll_usb.c ****     USBx_OUTEP(epnum)->DOEPCTL &= ~(USB_OTG_DOEPCTL_USBAEP |
 1488              		.loc 1 706 16 is_stmt 0 view .LVU488
 1489 0030 D0F81C28 		ldr	r2, [r0, #2076]
 706:Drivers/STM32F4xx_HAL_Driver/Src/stm32f4xx_ll_usb.c ****     USBx_OUTEP(epnum)->DOEPCTL &= ~(USB_OTG_DOEPCTL_USBAEP |
ARM GAS  /tmp/cc0ThgoX.s 			page 60


 1490              		.loc 1 706 78 view .LVU489
 1491 0034 0978     		ldrb	r1, [r1]	@ zero_extendqisi2
 1492              	.LVL93:
 706:Drivers/STM32F4xx_HAL_Driver/Src/stm32f4xx_ll_usb.c ****     USBx_OUTEP(epnum)->DOEPCTL &= ~(USB_OTG_DOEPCTL_USBAEP |
 1493              		.loc 1 706 84 view .LVU490
 1494 0036 01F00F01 		and	r1, r1, #15
 706:Drivers/STM32F4xx_HAL_Driver/Src/stm32f4xx_ll_usb.c ****     USBx_OUTEP(epnum)->DOEPCTL &= ~(USB_OTG_DOEPCTL_USBAEP |
 1495              		.loc 1 706 57 view .LVU491
 1496 003a 0CFA01FC 		lsl	ip, ip, r1
 706:Drivers/STM32F4xx_HAL_Driver/Src/stm32f4xx_ll_usb.c ****     USBx_OUTEP(epnum)->DOEPCTL &= ~(USB_OTG_DOEPCTL_USBAEP |
 1497              		.loc 1 706 27 view .LVU492
 1498 003e 22EA0C42 		bic	r2, r2, ip, lsl #16
 1499 0042 C0F81C28 		str	r2, [r0, #2076]
 707:Drivers/STM32F4xx_HAL_Driver/Src/stm32f4xx_ll_usb.c ****                                     USB_OTG_DOEPCTL_MPSIZ |
 1500              		.loc 1 707 5 is_stmt 1 view .LVU493
 707:Drivers/STM32F4xx_HAL_Driver/Src/stm32f4xx_ll_usb.c ****                                     USB_OTG_DOEPCTL_MPSIZ |
 1501              		.loc 1 707 22 is_stmt 0 view .LVU494
 1502 0046 D3F8001B 		ldr	r1, [r3, #2816]
 707:Drivers/STM32F4xx_HAL_Driver/Src/stm32f4xx_ll_usb.c ****                                     USB_OTG_DOEPCTL_MPSIZ |
 1503              		.loc 1 707 32 view .LVU495
 1504 004a 234A     		ldr	r2, .L111
 1505 004c 0A40     		ands	r2, r2, r1
 1506 004e C3F8002B 		str	r2, [r3, #2816]
 1507              	.L105:
 713:Drivers/STM32F4xx_HAL_Driver/Src/stm32f4xx_ll_usb.c **** }
 1508              		.loc 1 713 3 is_stmt 1 view .LVU496
 714:Drivers/STM32F4xx_HAL_Driver/Src/stm32f4xx_ll_usb.c **** 
 1509              		.loc 1 714 1 is_stmt 0 view .LVU497
 1510 0052 0020     		movs	r0, #0
 1511              	.LVL94:
 714:Drivers/STM32F4xx_HAL_Driver/Src/stm32f4xx_ll_usb.c **** 
 1512              		.loc 1 714 1 view .LVU498
 1513 0054 30BC     		pop	{r4, r5}
 1514              	.LCFI22:
 1515              		.cfi_remember_state
 1516              		.cfi_restore 5
 1517              		.cfi_restore 4
 1518              		.cfi_def_cfa_offset 0
 1519 0056 7047     		bx	lr
 1520              	.LVL95:
 1521              	.L108:
 1522              	.LCFI23:
 1523              		.cfi_restore_state
 683:Drivers/STM32F4xx_HAL_Driver/Src/stm32f4xx_ll_usb.c ****     {
 1524              		.loc 1 683 5 is_stmt 1 view .LVU499
 683:Drivers/STM32F4xx_HAL_Driver/Src/stm32f4xx_ll_usb.c ****     {
 1525              		.loc 1 683 10 is_stmt 0 view .LVU500
 1526 0058 00EB4313 		add	r3, r0, r3, lsl #5
 1527              	.LVL96:
 683:Drivers/STM32F4xx_HAL_Driver/Src/stm32f4xx_ll_usb.c ****     {
 1528              		.loc 1 683 26 view .LVU501
 1529 005c D3F80029 		ldr	r2, [r3, #2304]
 683:Drivers/STM32F4xx_HAL_Driver/Src/stm32f4xx_ll_usb.c ****     {
 1530              		.loc 1 683 8 view .LVU502
 1531 0060 002A     		cmp	r2, #0
 1532 0062 1EDB     		blt	.L110
 1533              	.LVL97:
ARM GAS  /tmp/cc0ThgoX.s 			page 61


 1534              	.L104:
 689:Drivers/STM32F4xx_HAL_Driver/Src/stm32f4xx_ll_usb.c ****     USBx_DEVICE->DAINTMSK &= ~(USB_OTG_DAINTMSK_IEPM & (uint32_t)(1UL << (ep->num & EP_ADDR_MSK)));
 1535              		.loc 1 689 5 is_stmt 1 view .LVU503
 689:Drivers/STM32F4xx_HAL_Driver/Src/stm32f4xx_ll_usb.c ****     USBx_DEVICE->DAINTMSK &= ~(USB_OTG_DAINTMSK_IEPM & (uint32_t)(1UL << (ep->num & EP_ADDR_MSK)));
 1536              		.loc 1 689 16 is_stmt 0 view .LVU504
 1537 0064 D0F83C58 		ldr	r5, [r0, #2108]
 689:Drivers/STM32F4xx_HAL_Driver/Src/stm32f4xx_ll_usb.c ****     USBx_DEVICE->DAINTMSK &= ~(USB_OTG_DAINTMSK_IEPM & (uint32_t)(1UL << (ep->num & EP_ADDR_MSK)));
 1538              		.loc 1 689 77 view .LVU505
 1539 0068 0A78     		ldrb	r2, [r1]	@ zero_extendqisi2
 689:Drivers/STM32F4xx_HAL_Driver/Src/stm32f4xx_ll_usb.c ****     USBx_DEVICE->DAINTMSK &= ~(USB_OTG_DAINTMSK_IEPM & (uint32_t)(1UL << (ep->num & EP_ADDR_MSK)));
 1540              		.loc 1 689 83 view .LVU506
 1541 006a 02F00F02 		and	r2, r2, #15
 689:Drivers/STM32F4xx_HAL_Driver/Src/stm32f4xx_ll_usb.c ****     USBx_DEVICE->DAINTMSK &= ~(USB_OTG_DAINTMSK_IEPM & (uint32_t)(1UL << (ep->num & EP_ADDR_MSK)));
 1542              		.loc 1 689 56 view .LVU507
 1543 006e 0124     		movs	r4, #1
 1544 0070 04FA02F2 		lsl	r2, r4, r2
 689:Drivers/STM32F4xx_HAL_Driver/Src/stm32f4xx_ll_usb.c ****     USBx_DEVICE->DAINTMSK &= ~(USB_OTG_DAINTMSK_IEPM & (uint32_t)(1UL << (ep->num & EP_ADDR_MSK)));
 1545              		.loc 1 689 54 view .LVU508
 1546 0074 92B2     		uxth	r2, r2
 689:Drivers/STM32F4xx_HAL_Driver/Src/stm32f4xx_ll_usb.c ****     USBx_DEVICE->DAINTMSK &= ~(USB_OTG_DAINTMSK_IEPM & (uint32_t)(1UL << (ep->num & EP_ADDR_MSK)));
 1547              		.loc 1 689 27 view .LVU509
 1548 0076 25EA0202 		bic	r2, r5, r2
 1549 007a C0F83C28 		str	r2, [r0, #2108]
 690:Drivers/STM32F4xx_HAL_Driver/Src/stm32f4xx_ll_usb.c ****     USBx_INEP(epnum)->DIEPCTL &= ~(USB_OTG_DIEPCTL_USBAEP |
 1550              		.loc 1 690 5 is_stmt 1 view .LVU510
 690:Drivers/STM32F4xx_HAL_Driver/Src/stm32f4xx_ll_usb.c ****     USBx_INEP(epnum)->DIEPCTL &= ~(USB_OTG_DIEPCTL_USBAEP |
 1551              		.loc 1 690 16 is_stmt 0 view .LVU511
 1552 007e D0F81C28 		ldr	r2, [r0, #2076]
 690:Drivers/STM32F4xx_HAL_Driver/Src/stm32f4xx_ll_usb.c ****     USBx_INEP(epnum)->DIEPCTL &= ~(USB_OTG_DIEPCTL_USBAEP |
 1553              		.loc 1 690 77 view .LVU512
 1554 0082 0978     		ldrb	r1, [r1]	@ zero_extendqisi2
 1555              	.LVL98:
 690:Drivers/STM32F4xx_HAL_Driver/Src/stm32f4xx_ll_usb.c ****     USBx_INEP(epnum)->DIEPCTL &= ~(USB_OTG_DIEPCTL_USBAEP |
 1556              		.loc 1 690 83 view .LVU513
 1557 0084 01F00F01 		and	r1, r1, #15
 690:Drivers/STM32F4xx_HAL_Driver/Src/stm32f4xx_ll_usb.c ****     USBx_INEP(epnum)->DIEPCTL &= ~(USB_OTG_DIEPCTL_USBAEP |
 1558              		.loc 1 690 56 view .LVU514
 1559 0088 8C40     		lsls	r4, r4, r1
 690:Drivers/STM32F4xx_HAL_Driver/Src/stm32f4xx_ll_usb.c ****     USBx_INEP(epnum)->DIEPCTL &= ~(USB_OTG_DIEPCTL_USBAEP |
 1560              		.loc 1 690 54 view .LVU515
 1561 008a A4B2     		uxth	r4, r4
 690:Drivers/STM32F4xx_HAL_Driver/Src/stm32f4xx_ll_usb.c ****     USBx_INEP(epnum)->DIEPCTL &= ~(USB_OTG_DIEPCTL_USBAEP |
 1562              		.loc 1 690 27 view .LVU516
 1563 008c 22EA0402 		bic	r2, r2, r4
 1564 0090 C0F81C28 		str	r2, [r0, #2076]
 691:Drivers/STM32F4xx_HAL_Driver/Src/stm32f4xx_ll_usb.c ****                                    USB_OTG_DIEPCTL_MPSIZ |
 1565              		.loc 1 691 5 is_stmt 1 view .LVU517
 691:Drivers/STM32F4xx_HAL_Driver/Src/stm32f4xx_ll_usb.c ****                                    USB_OTG_DIEPCTL_MPSIZ |
 1566              		.loc 1 691 21 is_stmt 0 view .LVU518
 1567 0094 D3F80019 		ldr	r1, [r3, #2304]
 691:Drivers/STM32F4xx_HAL_Driver/Src/stm32f4xx_ll_usb.c ****                                    USB_OTG_DIEPCTL_MPSIZ |
 1568              		.loc 1 691 31 view .LVU519
 1569 0098 104A     		ldr	r2, .L111+4
 1570 009a 0A40     		ands	r2, r2, r1
 1571 009c C3F80029 		str	r2, [r3, #2304]
 1572 00a0 D7E7     		b	.L105
 1573              	.LVL99:
ARM GAS  /tmp/cc0ThgoX.s 			page 62


 1574              	.L110:
 685:Drivers/STM32F4xx_HAL_Driver/Src/stm32f4xx_ll_usb.c ****       USBx_INEP(epnum)->DIEPCTL |= USB_OTG_DIEPCTL_EPDIS;
 1575              		.loc 1 685 7 is_stmt 1 view .LVU520
 685:Drivers/STM32F4xx_HAL_Driver/Src/stm32f4xx_ll_usb.c ****       USBx_INEP(epnum)->DIEPCTL |= USB_OTG_DIEPCTL_EPDIS;
 1576              		.loc 1 685 23 is_stmt 0 view .LVU521
 1577 00a2 D3F80029 		ldr	r2, [r3, #2304]
 685:Drivers/STM32F4xx_HAL_Driver/Src/stm32f4xx_ll_usb.c ****       USBx_INEP(epnum)->DIEPCTL |= USB_OTG_DIEPCTL_EPDIS;
 1578              		.loc 1 685 33 view .LVU522
 1579 00a6 42F00062 		orr	r2, r2, #134217728
 1580 00aa C3F80029 		str	r2, [r3, #2304]
 1581              	.LVL100:
 686:Drivers/STM32F4xx_HAL_Driver/Src/stm32f4xx_ll_usb.c ****     }
 1582              		.loc 1 686 7 is_stmt 1 view .LVU523
 686:Drivers/STM32F4xx_HAL_Driver/Src/stm32f4xx_ll_usb.c ****     }
 1583              		.loc 1 686 23 is_stmt 0 view .LVU524
 1584 00ae D3F80029 		ldr	r2, [r3, #2304]
 686:Drivers/STM32F4xx_HAL_Driver/Src/stm32f4xx_ll_usb.c ****     }
 1585              		.loc 1 686 33 view .LVU525
 1586 00b2 42F08042 		orr	r2, r2, #1073741824
 1587 00b6 C3F80029 		str	r2, [r3, #2304]
 1588 00ba D3E7     		b	.L104
 1589              	.LVL101:
 1590              	.L109:
 701:Drivers/STM32F4xx_HAL_Driver/Src/stm32f4xx_ll_usb.c ****       USBx_OUTEP(epnum)->DOEPCTL |= USB_OTG_DOEPCTL_EPDIS;
 1591              		.loc 1 701 7 is_stmt 1 view .LVU526
 701:Drivers/STM32F4xx_HAL_Driver/Src/stm32f4xx_ll_usb.c ****       USBx_OUTEP(epnum)->DOEPCTL |= USB_OTG_DOEPCTL_EPDIS;
 1592              		.loc 1 701 24 is_stmt 0 view .LVU527
 1593 00bc D3F8002B 		ldr	r2, [r3, #2816]
 701:Drivers/STM32F4xx_HAL_Driver/Src/stm32f4xx_ll_usb.c ****       USBx_OUTEP(epnum)->DOEPCTL |= USB_OTG_DOEPCTL_EPDIS;
 1594              		.loc 1 701 34 view .LVU528
 1595 00c0 42F00062 		orr	r2, r2, #134217728
 1596 00c4 C3F8002B 		str	r2, [r3, #2816]
 1597              	.LVL102:
 702:Drivers/STM32F4xx_HAL_Driver/Src/stm32f4xx_ll_usb.c ****     }
 1598              		.loc 1 702 7 is_stmt 1 view .LVU529
 702:Drivers/STM32F4xx_HAL_Driver/Src/stm32f4xx_ll_usb.c ****     }
 1599              		.loc 1 702 24 is_stmt 0 view .LVU530
 1600 00c8 D3F8002B 		ldr	r2, [r3, #2816]
 702:Drivers/STM32F4xx_HAL_Driver/Src/stm32f4xx_ll_usb.c ****     }
 1601              		.loc 1 702 34 view .LVU531
 1602 00cc 42F08042 		orr	r2, r2, #1073741824
 1603 00d0 C3F8002B 		str	r2, [r3, #2816]
 1604 00d4 9FE7     		b	.L106
 1605              	.L112:
 1606 00d6 00BF     		.align	2
 1607              	.L111:
 1608 00d8 0078F3EF 		.word	-269256704
 1609 00dc 007833EC 		.word	-332171264
 1610              		.cfi_endproc
 1611              	.LFE146:
 1613              		.section	.text.USB_DeactivateDedicatedEndpoint,"ax",%progbits
 1614              		.align	1
 1615              		.global	USB_DeactivateDedicatedEndpoint
 1616              		.syntax unified
 1617              		.thumb
 1618              		.thumb_func
 1620              	USB_DeactivateDedicatedEndpoint:
ARM GAS  /tmp/cc0ThgoX.s 			page 63


 1621              	.LVL103:
 1622              	.LFB147:
 723:Drivers/STM32F4xx_HAL_Driver/Src/stm32f4xx_ll_usb.c ****   uint32_t USBx_BASE = (uint32_t)USBx;
 1623              		.loc 1 723 1 is_stmt 1 view -0
 1624              		.cfi_startproc
 1625              		@ args = 0, pretend = 0, frame = 0
 1626              		@ frame_needed = 0, uses_anonymous_args = 0
 1627              		@ link register save eliminated.
 724:Drivers/STM32F4xx_HAL_Driver/Src/stm32f4xx_ll_usb.c ****   uint32_t epnum = (uint32_t)ep->num;
 1628              		.loc 1 724 3 view .LVU533
 725:Drivers/STM32F4xx_HAL_Driver/Src/stm32f4xx_ll_usb.c **** 
 1629              		.loc 1 725 3 view .LVU534
 725:Drivers/STM32F4xx_HAL_Driver/Src/stm32f4xx_ll_usb.c **** 
 1630              		.loc 1 725 32 is_stmt 0 view .LVU535
 1631 0000 0B78     		ldrb	r3, [r1]	@ zero_extendqisi2
 1632              	.LVL104:
 728:Drivers/STM32F4xx_HAL_Driver/Src/stm32f4xx_ll_usb.c ****   {
 1633              		.loc 1 728 3 is_stmt 1 view .LVU536
 728:Drivers/STM32F4xx_HAL_Driver/Src/stm32f4xx_ll_usb.c ****   {
 1634              		.loc 1 728 9 is_stmt 0 view .LVU537
 1635 0002 4A78     		ldrb	r2, [r1, #1]	@ zero_extendqisi2
 728:Drivers/STM32F4xx_HAL_Driver/Src/stm32f4xx_ll_usb.c ****   {
 1636              		.loc 1 728 6 view .LVU538
 1637 0004 012A     		cmp	r2, #1
 1638 0006 18D0     		beq	.L118
 741:Drivers/STM32F4xx_HAL_Driver/Src/stm32f4xx_ll_usb.c ****     {
 1639              		.loc 1 741 5 is_stmt 1 view .LVU539
 741:Drivers/STM32F4xx_HAL_Driver/Src/stm32f4xx_ll_usb.c ****     {
 1640              		.loc 1 741 10 is_stmt 0 view .LVU540
 1641 0008 00EB4313 		add	r3, r0, r3, lsl #5
 1642              	.LVL105:
 741:Drivers/STM32F4xx_HAL_Driver/Src/stm32f4xx_ll_usb.c ****     {
 1643              		.loc 1 741 27 view .LVU541
 1644 000c D3F8002B 		ldr	r2, [r3, #2816]
 741:Drivers/STM32F4xx_HAL_Driver/Src/stm32f4xx_ll_usb.c ****     {
 1645              		.loc 1 741 8 view .LVU542
 1646 0010 002A     		cmp	r2, #0
 1647 0012 38DB     		blt	.L119
 1648              	.LVL106:
 1649              	.L117:
 747:Drivers/STM32F4xx_HAL_Driver/Src/stm32f4xx_ll_usb.c ****     USBx_DEVICE->DAINTMSK &= ~(USB_OTG_DAINTMSK_OEPM & ((uint32_t)(1UL << (ep->num & EP_ADDR_MSK)) 
 1650              		.loc 1 747 5 is_stmt 1 view .LVU543
 747:Drivers/STM32F4xx_HAL_Driver/Src/stm32f4xx_ll_usb.c ****     USBx_DEVICE->DAINTMSK &= ~(USB_OTG_DAINTMSK_OEPM & ((uint32_t)(1UL << (ep->num & EP_ADDR_MSK)) 
 1651              		.loc 1 747 22 is_stmt 0 view .LVU544
 1652 0014 D3F8002B 		ldr	r2, [r3, #2816]
 747:Drivers/STM32F4xx_HAL_Driver/Src/stm32f4xx_ll_usb.c ****     USBx_DEVICE->DAINTMSK &= ~(USB_OTG_DAINTMSK_OEPM & ((uint32_t)(1UL << (ep->num & EP_ADDR_MSK)) 
 1653              		.loc 1 747 32 view .LVU545
 1654 0018 22F40042 		bic	r2, r2, #32768
 1655 001c C3F8002B 		str	r2, [r3, #2816]
 748:Drivers/STM32F4xx_HAL_Driver/Src/stm32f4xx_ll_usb.c ****   }
 1656              		.loc 1 748 5 is_stmt 1 view .LVU546
 748:Drivers/STM32F4xx_HAL_Driver/Src/stm32f4xx_ll_usb.c ****   }
 1657              		.loc 1 748 16 is_stmt 0 view .LVU547
 1658 0020 D0F81C38 		ldr	r3, [r0, #2076]
 748:Drivers/STM32F4xx_HAL_Driver/Src/stm32f4xx_ll_usb.c ****   }
 1659              		.loc 1 748 78 view .LVU548
 1660 0024 0978     		ldrb	r1, [r1]	@ zero_extendqisi2
ARM GAS  /tmp/cc0ThgoX.s 			page 64


 1661              	.LVL107:
 748:Drivers/STM32F4xx_HAL_Driver/Src/stm32f4xx_ll_usb.c ****   }
 1662              		.loc 1 748 84 view .LVU549
 1663 0026 01F00F01 		and	r1, r1, #15
 748:Drivers/STM32F4xx_HAL_Driver/Src/stm32f4xx_ll_usb.c ****   }
 1664              		.loc 1 748 57 view .LVU550
 1665 002a 0122     		movs	r2, #1
 1666 002c 8A40     		lsls	r2, r2, r1
 748:Drivers/STM32F4xx_HAL_Driver/Src/stm32f4xx_ll_usb.c ****   }
 1667              		.loc 1 748 27 view .LVU551
 1668 002e 23EA0243 		bic	r3, r3, r2, lsl #16
 1669 0032 C0F81C38 		str	r3, [r0, #2076]
 1670              	.L116:
 751:Drivers/STM32F4xx_HAL_Driver/Src/stm32f4xx_ll_usb.c **** }
 1671              		.loc 1 751 3 is_stmt 1 view .LVU552
 752:Drivers/STM32F4xx_HAL_Driver/Src/stm32f4xx_ll_usb.c **** 
 1672              		.loc 1 752 1 is_stmt 0 view .LVU553
 1673 0036 0020     		movs	r0, #0
 1674              	.LVL108:
 752:Drivers/STM32F4xx_HAL_Driver/Src/stm32f4xx_ll_usb.c **** 
 1675              		.loc 1 752 1 view .LVU554
 1676 0038 7047     		bx	lr
 1677              	.LVL109:
 1678              	.L118:
 730:Drivers/STM32F4xx_HAL_Driver/Src/stm32f4xx_ll_usb.c ****     {
 1679              		.loc 1 730 5 is_stmt 1 view .LVU555
 730:Drivers/STM32F4xx_HAL_Driver/Src/stm32f4xx_ll_usb.c ****     {
 1680              		.loc 1 730 10 is_stmt 0 view .LVU556
 1681 003a 00EB4313 		add	r3, r0, r3, lsl #5
 1682              	.LVL110:
 730:Drivers/STM32F4xx_HAL_Driver/Src/stm32f4xx_ll_usb.c ****     {
 1683              		.loc 1 730 26 view .LVU557
 1684 003e D3F80029 		ldr	r2, [r3, #2304]
 730:Drivers/STM32F4xx_HAL_Driver/Src/stm32f4xx_ll_usb.c ****     {
 1685              		.loc 1 730 8 view .LVU558
 1686 0042 002A     		cmp	r2, #0
 1687 0044 12DB     		blt	.L120
 1688              	.LVL111:
 1689              	.L115:
 736:Drivers/STM32F4xx_HAL_Driver/Src/stm32f4xx_ll_usb.c ****     USBx_DEVICE->DAINTMSK &= ~(USB_OTG_DAINTMSK_IEPM & (uint32_t)(1UL << (ep->num & EP_ADDR_MSK)));
 1690              		.loc 1 736 5 is_stmt 1 view .LVU559
 736:Drivers/STM32F4xx_HAL_Driver/Src/stm32f4xx_ll_usb.c ****     USBx_DEVICE->DAINTMSK &= ~(USB_OTG_DAINTMSK_IEPM & (uint32_t)(1UL << (ep->num & EP_ADDR_MSK)));
 1691              		.loc 1 736 21 is_stmt 0 view .LVU560
 1692 0046 D3F80029 		ldr	r2, [r3, #2304]
 736:Drivers/STM32F4xx_HAL_Driver/Src/stm32f4xx_ll_usb.c ****     USBx_DEVICE->DAINTMSK &= ~(USB_OTG_DAINTMSK_IEPM & (uint32_t)(1UL << (ep->num & EP_ADDR_MSK)));
 1693              		.loc 1 736 31 view .LVU561
 1694 004a 22F40042 		bic	r2, r2, #32768
 1695 004e C3F80029 		str	r2, [r3, #2304]
 737:Drivers/STM32F4xx_HAL_Driver/Src/stm32f4xx_ll_usb.c ****   }
 1696              		.loc 1 737 5 is_stmt 1 view .LVU562
 737:Drivers/STM32F4xx_HAL_Driver/Src/stm32f4xx_ll_usb.c ****   }
 1697              		.loc 1 737 16 is_stmt 0 view .LVU563
 1698 0052 D0F81C28 		ldr	r2, [r0, #2076]
 737:Drivers/STM32F4xx_HAL_Driver/Src/stm32f4xx_ll_usb.c ****   }
 1699              		.loc 1 737 77 view .LVU564
 1700 0056 0978     		ldrb	r1, [r1]	@ zero_extendqisi2
 1701              	.LVL112:
ARM GAS  /tmp/cc0ThgoX.s 			page 65


 737:Drivers/STM32F4xx_HAL_Driver/Src/stm32f4xx_ll_usb.c ****   }
 1702              		.loc 1 737 83 view .LVU565
 1703 0058 01F00F01 		and	r1, r1, #15
 737:Drivers/STM32F4xx_HAL_Driver/Src/stm32f4xx_ll_usb.c ****   }
 1704              		.loc 1 737 56 view .LVU566
 1705 005c 0123     		movs	r3, #1
 1706 005e 8B40     		lsls	r3, r3, r1
 737:Drivers/STM32F4xx_HAL_Driver/Src/stm32f4xx_ll_usb.c ****   }
 1707              		.loc 1 737 54 view .LVU567
 1708 0060 9BB2     		uxth	r3, r3
 737:Drivers/STM32F4xx_HAL_Driver/Src/stm32f4xx_ll_usb.c ****   }
 1709              		.loc 1 737 27 view .LVU568
 1710 0062 22EA0303 		bic	r3, r2, r3
 1711 0066 C0F81C38 		str	r3, [r0, #2076]
 1712 006a E4E7     		b	.L116
 1713              	.LVL113:
 1714              	.L120:
 732:Drivers/STM32F4xx_HAL_Driver/Src/stm32f4xx_ll_usb.c ****       USBx_INEP(epnum)->DIEPCTL  |= USB_OTG_DIEPCTL_EPDIS;
 1715              		.loc 1 732 7 is_stmt 1 view .LVU569
 732:Drivers/STM32F4xx_HAL_Driver/Src/stm32f4xx_ll_usb.c ****       USBx_INEP(epnum)->DIEPCTL  |= USB_OTG_DIEPCTL_EPDIS;
 1716              		.loc 1 732 23 is_stmt 0 view .LVU570
 1717 006c D3F80029 		ldr	r2, [r3, #2304]
 732:Drivers/STM32F4xx_HAL_Driver/Src/stm32f4xx_ll_usb.c ****       USBx_INEP(epnum)->DIEPCTL  |= USB_OTG_DIEPCTL_EPDIS;
 1718              		.loc 1 732 34 view .LVU571
 1719 0070 42F00062 		orr	r2, r2, #134217728
 1720 0074 C3F80029 		str	r2, [r3, #2304]
 1721              	.LVL114:
 733:Drivers/STM32F4xx_HAL_Driver/Src/stm32f4xx_ll_usb.c ****     }
 1722              		.loc 1 733 7 is_stmt 1 view .LVU572
 733:Drivers/STM32F4xx_HAL_Driver/Src/stm32f4xx_ll_usb.c ****     }
 1723              		.loc 1 733 23 is_stmt 0 view .LVU573
 1724 0078 D3F80029 		ldr	r2, [r3, #2304]
 733:Drivers/STM32F4xx_HAL_Driver/Src/stm32f4xx_ll_usb.c ****     }
 1725              		.loc 1 733 34 view .LVU574
 1726 007c 42F08042 		orr	r2, r2, #1073741824
 1727 0080 C3F80029 		str	r2, [r3, #2304]
 1728 0084 DFE7     		b	.L115
 1729              	.LVL115:
 1730              	.L119:
 743:Drivers/STM32F4xx_HAL_Driver/Src/stm32f4xx_ll_usb.c ****       USBx_OUTEP(epnum)->DOEPCTL  |= USB_OTG_DOEPCTL_EPDIS;
 1731              		.loc 1 743 7 is_stmt 1 view .LVU575
 743:Drivers/STM32F4xx_HAL_Driver/Src/stm32f4xx_ll_usb.c ****       USBx_OUTEP(epnum)->DOEPCTL  |= USB_OTG_DOEPCTL_EPDIS;
 1732              		.loc 1 743 24 is_stmt 0 view .LVU576
 1733 0086 D3F8002B 		ldr	r2, [r3, #2816]
 743:Drivers/STM32F4xx_HAL_Driver/Src/stm32f4xx_ll_usb.c ****       USBx_OUTEP(epnum)->DOEPCTL  |= USB_OTG_DOEPCTL_EPDIS;
 1734              		.loc 1 743 35 view .LVU577
 1735 008a 42F00062 		orr	r2, r2, #134217728
 1736 008e C3F8002B 		str	r2, [r3, #2816]
 1737              	.LVL116:
 744:Drivers/STM32F4xx_HAL_Driver/Src/stm32f4xx_ll_usb.c ****     }
 1738              		.loc 1 744 7 is_stmt 1 view .LVU578
 744:Drivers/STM32F4xx_HAL_Driver/Src/stm32f4xx_ll_usb.c ****     }
 1739              		.loc 1 744 24 is_stmt 0 view .LVU579
 1740 0092 D3F8002B 		ldr	r2, [r3, #2816]
 744:Drivers/STM32F4xx_HAL_Driver/Src/stm32f4xx_ll_usb.c ****     }
 1741              		.loc 1 744 35 view .LVU580
 1742 0096 42F08042 		orr	r2, r2, #1073741824
ARM GAS  /tmp/cc0ThgoX.s 			page 66


 1743 009a C3F8002B 		str	r2, [r3, #2816]
 1744 009e B9E7     		b	.L117
 1745              		.cfi_endproc
 1746              	.LFE147:
 1748              		.section	.text.USB_EPStopXfer,"ax",%progbits
 1749              		.align	1
 1750              		.global	USB_EPStopXfer
 1751              		.syntax unified
 1752              		.thumb
 1753              		.thumb_func
 1755              	USB_EPStopXfer:
 1756              	.LVL117:
 1757              	.LFB149:
 937:Drivers/STM32F4xx_HAL_Driver/Src/stm32f4xx_ll_usb.c ****   __IO uint32_t count = 0U;
 1758              		.loc 1 937 1 is_stmt 1 view -0
 1759              		.cfi_startproc
 1760              		@ args = 0, pretend = 0, frame = 8
 1761              		@ frame_needed = 0, uses_anonymous_args = 0
 1762              		@ link register save eliminated.
 937:Drivers/STM32F4xx_HAL_Driver/Src/stm32f4xx_ll_usb.c ****   __IO uint32_t count = 0U;
 1763              		.loc 1 937 1 is_stmt 0 view .LVU582
 1764 0000 10B4     		push	{r4}
 1765              	.LCFI24:
 1766              		.cfi_def_cfa_offset 4
 1767              		.cfi_offset 4, -4
 1768 0002 83B0     		sub	sp, sp, #12
 1769              	.LCFI25:
 1770              		.cfi_def_cfa_offset 16
 1771 0004 0246     		mov	r2, r0
 938:Drivers/STM32F4xx_HAL_Driver/Src/stm32f4xx_ll_usb.c ****   HAL_StatusTypeDef ret = HAL_OK;
 1772              		.loc 1 938 3 is_stmt 1 view .LVU583
 938:Drivers/STM32F4xx_HAL_Driver/Src/stm32f4xx_ll_usb.c ****   HAL_StatusTypeDef ret = HAL_OK;
 1773              		.loc 1 938 17 is_stmt 0 view .LVU584
 1774 0006 0023     		movs	r3, #0
 1775 0008 0193     		str	r3, [sp, #4]
 939:Drivers/STM32F4xx_HAL_Driver/Src/stm32f4xx_ll_usb.c ****   uint32_t USBx_BASE = (uint32_t)USBx;
 1776              		.loc 1 939 3 is_stmt 1 view .LVU585
 1777              	.LVL118:
 940:Drivers/STM32F4xx_HAL_Driver/Src/stm32f4xx_ll_usb.c **** 
 1778              		.loc 1 940 3 view .LVU586
 943:Drivers/STM32F4xx_HAL_Driver/Src/stm32f4xx_ll_usb.c ****   {
 1779              		.loc 1 943 3 view .LVU587
 943:Drivers/STM32F4xx_HAL_Driver/Src/stm32f4xx_ll_usb.c ****   {
 1780              		.loc 1 943 9 is_stmt 0 view .LVU588
 1781 000a 4878     		ldrb	r0, [r1, #1]	@ zero_extendqisi2
 1782              	.LVL119:
 943:Drivers/STM32F4xx_HAL_Driver/Src/stm32f4xx_ll_usb.c ****   {
 1783              		.loc 1 943 6 view .LVU589
 1784 000c 0128     		cmp	r0, #1
 1785 000e 0BD0     		beq	.L130
 965:Drivers/STM32F4xx_HAL_Driver/Src/stm32f4xx_ll_usb.c ****     {
 1786              		.loc 1 965 5 is_stmt 1 view .LVU590
 965:Drivers/STM32F4xx_HAL_Driver/Src/stm32f4xx_ll_usb.c ****     {
 1787              		.loc 1 965 11 is_stmt 0 view .LVU591
 1788 0010 0B78     		ldrb	r3, [r1]	@ zero_extendqisi2
 1789 0012 02EB4313 		add	r3, r2, r3, lsl #5
 965:Drivers/STM32F4xx_HAL_Driver/Src/stm32f4xx_ll_usb.c ****     {
ARM GAS  /tmp/cc0ThgoX.s 			page 67


 1790              		.loc 1 965 30 view .LVU592
 1791 0016 D3F8000B 		ldr	r0, [r3, #2816]
 965:Drivers/STM32F4xx_HAL_Driver/Src/stm32f4xx_ll_usb.c ****     {
 1792              		.loc 1 965 8 view .LVU593
 1793 001a 0028     		cmp	r0, #0
 1794 001c 2DDB     		blt	.L131
 939:Drivers/STM32F4xx_HAL_Driver/Src/stm32f4xx_ll_usb.c ****   uint32_t USBx_BASE = (uint32_t)USBx;
 1795              		.loc 1 939 21 view .LVU594
 1796 001e 0020     		movs	r0, #0
 1797              	.L123:
 1798              	.LVL120:
 983:Drivers/STM32F4xx_HAL_Driver/Src/stm32f4xx_ll_usb.c **** }
 1799              		.loc 1 983 3 is_stmt 1 view .LVU595
 984:Drivers/STM32F4xx_HAL_Driver/Src/stm32f4xx_ll_usb.c **** 
 1800              		.loc 1 984 1 is_stmt 0 view .LVU596
 1801 0020 03B0     		add	sp, sp, #12
 1802              	.LCFI26:
 1803              		.cfi_remember_state
 1804              		.cfi_def_cfa_offset 4
 1805              		@ sp needed
 1806 0022 5DF8044B 		ldr	r4, [sp], #4
 1807              	.LCFI27:
 1808              		.cfi_restore 4
 1809              		.cfi_def_cfa_offset 0
 1810 0026 7047     		bx	lr
 1811              	.LVL121:
 1812              	.L130:
 1813              	.LCFI28:
 1814              		.cfi_restore_state
 946:Drivers/STM32F4xx_HAL_Driver/Src/stm32f4xx_ll_usb.c ****     {
 1815              		.loc 1 946 5 is_stmt 1 view .LVU597
 946:Drivers/STM32F4xx_HAL_Driver/Src/stm32f4xx_ll_usb.c ****     {
 1816              		.loc 1 946 11 is_stmt 0 view .LVU598
 1817 0028 0B78     		ldrb	r3, [r1]	@ zero_extendqisi2
 1818 002a 02EB4313 		add	r3, r2, r3, lsl #5
 946:Drivers/STM32F4xx_HAL_Driver/Src/stm32f4xx_ll_usb.c ****     {
 1819              		.loc 1 946 29 view .LVU599
 1820 002e D3F80049 		ldr	r4, [r3, #2304]
 946:Drivers/STM32F4xx_HAL_Driver/Src/stm32f4xx_ll_usb.c ****     {
 1821              		.loc 1 946 8 view .LVU600
 1822 0032 002C     		cmp	r4, #0
 1823 0034 01DB     		blt	.L132
 939:Drivers/STM32F4xx_HAL_Driver/Src/stm32f4xx_ll_usb.c ****   uint32_t USBx_BASE = (uint32_t)USBx;
 1824              		.loc 1 939 21 view .LVU601
 1825 0036 0020     		movs	r0, #0
 1826 0038 F2E7     		b	.L123
 1827              	.L132:
 948:Drivers/STM32F4xx_HAL_Driver/Src/stm32f4xx_ll_usb.c ****       USBx_INEP(ep->num)->DIEPCTL |= (USB_OTG_DIEPCTL_EPDIS);
 1828              		.loc 1 948 7 is_stmt 1 view .LVU602
 948:Drivers/STM32F4xx_HAL_Driver/Src/stm32f4xx_ll_usb.c ****       USBx_INEP(ep->num)->DIEPCTL |= (USB_OTG_DIEPCTL_EPDIS);
 1829              		.loc 1 948 25 is_stmt 0 view .LVU603
 1830 003a D3F80049 		ldr	r4, [r3, #2304]
 948:Drivers/STM32F4xx_HAL_Driver/Src/stm32f4xx_ll_usb.c ****       USBx_INEP(ep->num)->DIEPCTL |= (USB_OTG_DIEPCTL_EPDIS);
 1831              		.loc 1 948 35 view .LVU604
 1832 003e 44F00064 		orr	r4, r4, #134217728
 1833 0042 C3F80049 		str	r4, [r3, #2304]
 949:Drivers/STM32F4xx_HAL_Driver/Src/stm32f4xx_ll_usb.c **** 
ARM GAS  /tmp/cc0ThgoX.s 			page 68


 1834              		.loc 1 949 7 is_stmt 1 view .LVU605
 1835 0046 0B78     		ldrb	r3, [r1]	@ zero_extendqisi2
 949:Drivers/STM32F4xx_HAL_Driver/Src/stm32f4xx_ll_usb.c **** 
 1836              		.loc 1 949 25 is_stmt 0 view .LVU606
 1837 0048 02EB4313 		add	r3, r2, r3, lsl #5
 1838 004c D3F80049 		ldr	r4, [r3, #2304]
 949:Drivers/STM32F4xx_HAL_Driver/Src/stm32f4xx_ll_usb.c **** 
 1839              		.loc 1 949 35 view .LVU607
 1840 0050 44F08044 		orr	r4, r4, #1073741824
 1841 0054 C3F80049 		str	r4, [r3, #2304]
 1842              	.L124:
 951:Drivers/STM32F4xx_HAL_Driver/Src/stm32f4xx_ll_usb.c ****       {
 1843              		.loc 1 951 7 is_stmt 1 view .LVU608
 953:Drivers/STM32F4xx_HAL_Driver/Src/stm32f4xx_ll_usb.c **** 
 1844              		.loc 1 953 9 view .LVU609
 953:Drivers/STM32F4xx_HAL_Driver/Src/stm32f4xx_ll_usb.c **** 
 1845              		.loc 1 953 14 is_stmt 0 view .LVU610
 1846 0058 019B     		ldr	r3, [sp, #4]
 1847 005a 0133     		adds	r3, r3, #1
 1848 005c 0193     		str	r3, [sp, #4]
 955:Drivers/STM32F4xx_HAL_Driver/Src/stm32f4xx_ll_usb.c ****         {
 1849              		.loc 1 955 9 is_stmt 1 view .LVU611
 955:Drivers/STM32F4xx_HAL_Driver/Src/stm32f4xx_ll_usb.c ****         {
 1850              		.loc 1 955 19 is_stmt 0 view .LVU612
 1851 005e 019C     		ldr	r4, [sp, #4]
 955:Drivers/STM32F4xx_HAL_Driver/Src/stm32f4xx_ll_usb.c ****         {
 1852              		.loc 1 955 12 view .LVU613
 1853 0060 42F21073 		movw	r3, #10000
 1854 0064 9C42     		cmp	r4, r3
 1855 0066 DBD8     		bhi	.L123
 960:Drivers/STM32F4xx_HAL_Driver/Src/stm32f4xx_ll_usb.c ****     }
 1856              		.loc 1 960 72 is_stmt 1 view .LVU614
 960:Drivers/STM32F4xx_HAL_Driver/Src/stm32f4xx_ll_usb.c ****     }
 1857              		.loc 1 960 18 is_stmt 0 view .LVU615
 1858 0068 0B78     		ldrb	r3, [r1]	@ zero_extendqisi2
 1859 006a 02EB4313 		add	r3, r2, r3, lsl #5
 960:Drivers/STM32F4xx_HAL_Driver/Src/stm32f4xx_ll_usb.c ****     }
 1860              		.loc 1 960 36 view .LVU616
 1861 006e D3F80039 		ldr	r3, [r3, #2304]
 960:Drivers/STM32F4xx_HAL_Driver/Src/stm32f4xx_ll_usb.c ****     }
 1862              		.loc 1 960 72 view .LVU617
 1863 0072 002B     		cmp	r3, #0
 1864 0074 F0DB     		blt	.L124
 939:Drivers/STM32F4xx_HAL_Driver/Src/stm32f4xx_ll_usb.c ****   uint32_t USBx_BASE = (uint32_t)USBx;
 1865              		.loc 1 939 21 view .LVU618
 1866 0076 0020     		movs	r0, #0
 1867 0078 D2E7     		b	.L123
 1868              	.L131:
 967:Drivers/STM32F4xx_HAL_Driver/Src/stm32f4xx_ll_usb.c ****       USBx_OUTEP(ep->num)->DOEPCTL |= (USB_OTG_DOEPCTL_EPDIS);
 1869              		.loc 1 967 7 is_stmt 1 view .LVU619
 967:Drivers/STM32F4xx_HAL_Driver/Src/stm32f4xx_ll_usb.c ****       USBx_OUTEP(ep->num)->DOEPCTL |= (USB_OTG_DOEPCTL_EPDIS);
 1870              		.loc 1 967 26 is_stmt 0 view .LVU620
 1871 007a D3F8000B 		ldr	r0, [r3, #2816]
 967:Drivers/STM32F4xx_HAL_Driver/Src/stm32f4xx_ll_usb.c ****       USBx_OUTEP(ep->num)->DOEPCTL |= (USB_OTG_DOEPCTL_EPDIS);
 1872              		.loc 1 967 36 view .LVU621
 1873 007e 40F00060 		orr	r0, r0, #134217728
 1874 0082 C3F8000B 		str	r0, [r3, #2816]
ARM GAS  /tmp/cc0ThgoX.s 			page 69


 968:Drivers/STM32F4xx_HAL_Driver/Src/stm32f4xx_ll_usb.c **** 
 1875              		.loc 1 968 7 is_stmt 1 view .LVU622
 1876 0086 0B78     		ldrb	r3, [r1]	@ zero_extendqisi2
 968:Drivers/STM32F4xx_HAL_Driver/Src/stm32f4xx_ll_usb.c **** 
 1877              		.loc 1 968 26 is_stmt 0 view .LVU623
 1878 0088 02EB4313 		add	r3, r2, r3, lsl #5
 1879 008c D3F8000B 		ldr	r0, [r3, #2816]
 968:Drivers/STM32F4xx_HAL_Driver/Src/stm32f4xx_ll_usb.c **** 
 1880              		.loc 1 968 36 view .LVU624
 1881 0090 40F08040 		orr	r0, r0, #1073741824
 1882 0094 C3F8000B 		str	r0, [r3, #2816]
 1883              	.L125:
 970:Drivers/STM32F4xx_HAL_Driver/Src/stm32f4xx_ll_usb.c ****       {
 1884              		.loc 1 970 7 is_stmt 1 view .LVU625
 972:Drivers/STM32F4xx_HAL_Driver/Src/stm32f4xx_ll_usb.c **** 
 1885              		.loc 1 972 9 view .LVU626
 972:Drivers/STM32F4xx_HAL_Driver/Src/stm32f4xx_ll_usb.c **** 
 1886              		.loc 1 972 14 is_stmt 0 view .LVU627
 1887 0098 019B     		ldr	r3, [sp, #4]
 1888 009a 0133     		adds	r3, r3, #1
 1889 009c 0193     		str	r3, [sp, #4]
 974:Drivers/STM32F4xx_HAL_Driver/Src/stm32f4xx_ll_usb.c ****         {
 1890              		.loc 1 974 9 is_stmt 1 view .LVU628
 974:Drivers/STM32F4xx_HAL_Driver/Src/stm32f4xx_ll_usb.c ****         {
 1891              		.loc 1 974 19 is_stmt 0 view .LVU629
 1892 009e 0198     		ldr	r0, [sp, #4]
 974:Drivers/STM32F4xx_HAL_Driver/Src/stm32f4xx_ll_usb.c ****         {
 1893              		.loc 1 974 12 view .LVU630
 1894 00a0 42F21073 		movw	r3, #10000
 1895 00a4 9842     		cmp	r0, r3
 1896 00a6 08D8     		bhi	.L128
 979:Drivers/STM32F4xx_HAL_Driver/Src/stm32f4xx_ll_usb.c ****     }
 1897              		.loc 1 979 73 is_stmt 1 view .LVU631
 979:Drivers/STM32F4xx_HAL_Driver/Src/stm32f4xx_ll_usb.c ****     }
 1898              		.loc 1 979 18 is_stmt 0 view .LVU632
 1899 00a8 0B78     		ldrb	r3, [r1]	@ zero_extendqisi2
 1900 00aa 02EB4313 		add	r3, r2, r3, lsl #5
 979:Drivers/STM32F4xx_HAL_Driver/Src/stm32f4xx_ll_usb.c ****     }
 1901              		.loc 1 979 37 view .LVU633
 1902 00ae D3F8003B 		ldr	r3, [r3, #2816]
 979:Drivers/STM32F4xx_HAL_Driver/Src/stm32f4xx_ll_usb.c ****     }
 1903              		.loc 1 979 73 view .LVU634
 1904 00b2 002B     		cmp	r3, #0
 1905 00b4 F0DB     		blt	.L125
 939:Drivers/STM32F4xx_HAL_Driver/Src/stm32f4xx_ll_usb.c ****   uint32_t USBx_BASE = (uint32_t)USBx;
 1906              		.loc 1 939 21 view .LVU635
 1907 00b6 0020     		movs	r0, #0
 1908 00b8 B2E7     		b	.L123
 1909              	.L128:
 976:Drivers/STM32F4xx_HAL_Driver/Src/stm32f4xx_ll_usb.c ****           break;
 1910              		.loc 1 976 15 view .LVU636
 1911 00ba 0120     		movs	r0, #1
 1912 00bc B0E7     		b	.L123
 1913              		.cfi_endproc
 1914              	.LFE149:
 1916              		.section	.text.USB_WritePacket,"ax",%progbits
 1917              		.align	1
ARM GAS  /tmp/cc0ThgoX.s 			page 70


 1918              		.global	USB_WritePacket
 1919              		.syntax unified
 1920              		.thumb
 1921              		.thumb_func
 1923              	USB_WritePacket:
 1924              	.LVL122:
 1925              	.LFB150:
1002:Drivers/STM32F4xx_HAL_Driver/Src/stm32f4xx_ll_usb.c ****   uint32_t USBx_BASE = (uint32_t)USBx;
 1926              		.loc 1 1002 1 is_stmt 1 view -0
 1927              		.cfi_startproc
 1928              		@ args = 4, pretend = 0, frame = 0
 1929              		@ frame_needed = 0, uses_anonymous_args = 0
1002:Drivers/STM32F4xx_HAL_Driver/Src/stm32f4xx_ll_usb.c ****   uint32_t USBx_BASE = (uint32_t)USBx;
 1930              		.loc 1 1002 1 is_stmt 0 view .LVU638
 1931 0000 10B5     		push	{r4, lr}
 1932              	.LCFI29:
 1933              		.cfi_def_cfa_offset 8
 1934              		.cfi_offset 4, -8
 1935              		.cfi_offset 14, -4
 1936 0002 9DF80840 		ldrb	r4, [sp, #8]	@ zero_extendqisi2
1003:Drivers/STM32F4xx_HAL_Driver/Src/stm32f4xx_ll_usb.c ****   uint8_t *pSrc = src;
 1937              		.loc 1 1003 3 is_stmt 1 view .LVU639
 1938              	.LVL123:
1004:Drivers/STM32F4xx_HAL_Driver/Src/stm32f4xx_ll_usb.c ****   uint32_t count32b;
 1939              		.loc 1 1004 3 view .LVU640
1005:Drivers/STM32F4xx_HAL_Driver/Src/stm32f4xx_ll_usb.c ****   uint32_t i;
 1940              		.loc 1 1005 3 view .LVU641
1006:Drivers/STM32F4xx_HAL_Driver/Src/stm32f4xx_ll_usb.c **** 
 1941              		.loc 1 1006 3 view .LVU642
1008:Drivers/STM32F4xx_HAL_Driver/Src/stm32f4xx_ll_usb.c ****   {
 1942              		.loc 1 1008 3 view .LVU643
1008:Drivers/STM32F4xx_HAL_Driver/Src/stm32f4xx_ll_usb.c ****   {
 1943              		.loc 1 1008 6 is_stmt 0 view .LVU644
 1944 0006 84B9     		cbnz	r4, .L134
1010:Drivers/STM32F4xx_HAL_Driver/Src/stm32f4xx_ll_usb.c ****     for (i = 0U; i < count32b; i++)
 1945              		.loc 1 1010 5 is_stmt 1 view .LVU645
1010:Drivers/STM32F4xx_HAL_Driver/Src/stm32f4xx_ll_usb.c ****     for (i = 0U; i < count32b; i++)
 1946              		.loc 1 1010 31 is_stmt 0 view .LVU646
 1947 0008 0333     		adds	r3, r3, #3
 1948              	.LVL124:
1010:Drivers/STM32F4xx_HAL_Driver/Src/stm32f4xx_ll_usb.c ****     for (i = 0U; i < count32b; i++)
 1949              		.loc 1 1010 14 view .LVU647
 1950 000a 4FEA930E 		lsr	lr, r3, #2
 1951              	.LVL125:
1011:Drivers/STM32F4xx_HAL_Driver/Src/stm32f4xx_ll_usb.c ****     {
 1952              		.loc 1 1011 5 is_stmt 1 view .LVU648
1011:Drivers/STM32F4xx_HAL_Driver/Src/stm32f4xx_ll_usb.c ****     {
 1953              		.loc 1 1011 12 is_stmt 0 view .LVU649
 1954 000e 4FF0000C 		mov	ip, #0
1011:Drivers/STM32F4xx_HAL_Driver/Src/stm32f4xx_ll_usb.c ****     {
 1955              		.loc 1 1011 5 view .LVU650
 1956 0012 08E0     		b	.L135
 1957              	.LVL126:
 1958              	.L136:
1013:Drivers/STM32F4xx_HAL_Driver/Src/stm32f4xx_ll_usb.c ****       pSrc++;
 1959              		.loc 1 1013 7 is_stmt 1 view .LVU651
 1960 0014 00EB0233 		add	r3, r0, r2, lsl #12
ARM GAS  /tmp/cc0ThgoX.s 			page 71


 1961 0018 03F58053 		add	r3, r3, #4096
1013:Drivers/STM32F4xx_HAL_Driver/Src/stm32f4xx_ll_usb.c ****       pSrc++;
 1962              		.loc 1 1013 41 is_stmt 0 view .LVU652
 1963 001c 51F8044B 		ldr	r4, [r1], #4	@ unaligned
 1964              	.LVL127:
1013:Drivers/STM32F4xx_HAL_Driver/Src/stm32f4xx_ll_usb.c ****       pSrc++;
 1965              		.loc 1 1013 39 view .LVU653
 1966 0020 1C60     		str	r4, [r3]
1014:Drivers/STM32F4xx_HAL_Driver/Src/stm32f4xx_ll_usb.c ****       pSrc++;
 1967              		.loc 1 1014 7 is_stmt 1 view .LVU654
 1968              	.LVL128:
1015:Drivers/STM32F4xx_HAL_Driver/Src/stm32f4xx_ll_usb.c ****       pSrc++;
 1969              		.loc 1 1015 7 view .LVU655
1016:Drivers/STM32F4xx_HAL_Driver/Src/stm32f4xx_ll_usb.c ****       pSrc++;
 1970              		.loc 1 1016 7 view .LVU656
1017:Drivers/STM32F4xx_HAL_Driver/Src/stm32f4xx_ll_usb.c ****     }
 1971              		.loc 1 1017 7 view .LVU657
1011:Drivers/STM32F4xx_HAL_Driver/Src/stm32f4xx_ll_usb.c ****     {
 1972              		.loc 1 1011 33 discriminator 3 view .LVU658
 1973 0022 0CF1010C 		add	ip, ip, #1
 1974              	.LVL129:
 1975              	.L135:
1011:Drivers/STM32F4xx_HAL_Driver/Src/stm32f4xx_ll_usb.c ****     {
 1976              		.loc 1 1011 20 discriminator 1 view .LVU659
 1977 0026 F445     		cmp	ip, lr
 1978 0028 F4D3     		bcc	.L136
 1979              	.LVL130:
 1980              	.L134:
1021:Drivers/STM32F4xx_HAL_Driver/Src/stm32f4xx_ll_usb.c **** }
 1981              		.loc 1 1021 3 view .LVU660
1022:Drivers/STM32F4xx_HAL_Driver/Src/stm32f4xx_ll_usb.c **** 
 1982              		.loc 1 1022 1 is_stmt 0 view .LVU661
 1983 002a 0020     		movs	r0, #0
 1984              	.LVL131:
1022:Drivers/STM32F4xx_HAL_Driver/Src/stm32f4xx_ll_usb.c **** 
 1985              		.loc 1 1022 1 view .LVU662
 1986 002c 10BD     		pop	{r4, pc}
1022:Drivers/STM32F4xx_HAL_Driver/Src/stm32f4xx_ll_usb.c **** 
 1987              		.loc 1 1022 1 view .LVU663
 1988              		.cfi_endproc
 1989              	.LFE150:
 1991              		.section	.text.USB_EPStartXfer,"ax",%progbits
 1992              		.align	1
 1993              		.global	USB_EPStartXfer
 1994              		.syntax unified
 1995              		.thumb
 1996              		.thumb_func
 1998              	USB_EPStartXfer:
 1999              	.LVL132:
 2000              	.LFB148:
 765:Drivers/STM32F4xx_HAL_Driver/Src/stm32f4xx_ll_usb.c ****   uint32_t USBx_BASE = (uint32_t)USBx;
 2001              		.loc 1 765 1 is_stmt 1 view -0
 2002              		.cfi_startproc
 2003              		@ args = 0, pretend = 0, frame = 0
 2004              		@ frame_needed = 0, uses_anonymous_args = 0
 765:Drivers/STM32F4xx_HAL_Driver/Src/stm32f4xx_ll_usb.c ****   uint32_t USBx_BASE = (uint32_t)USBx;
 2005              		.loc 1 765 1 is_stmt 0 view .LVU665
ARM GAS  /tmp/cc0ThgoX.s 			page 72


 2006 0000 F0B5     		push	{r4, r5, r6, r7, lr}
 2007              	.LCFI30:
 2008              		.cfi_def_cfa_offset 20
 2009              		.cfi_offset 4, -20
 2010              		.cfi_offset 5, -16
 2011              		.cfi_offset 6, -12
 2012              		.cfi_offset 7, -8
 2013              		.cfi_offset 14, -4
 2014 0002 83B0     		sub	sp, sp, #12
 2015              	.LCFI31:
 2016              		.cfi_def_cfa_offset 32
 766:Drivers/STM32F4xx_HAL_Driver/Src/stm32f4xx_ll_usb.c ****   uint32_t epnum = (uint32_t)ep->num;
 2017              		.loc 1 766 3 is_stmt 1 view .LVU666
 2018              	.LVL133:
 767:Drivers/STM32F4xx_HAL_Driver/Src/stm32f4xx_ll_usb.c ****   uint16_t pktcnt;
 2019              		.loc 1 767 3 view .LVU667
 767:Drivers/STM32F4xx_HAL_Driver/Src/stm32f4xx_ll_usb.c ****   uint16_t pktcnt;
 2020              		.loc 1 767 32 is_stmt 0 view .LVU668
 2021 0004 0C78     		ldrb	r4, [r1]	@ zero_extendqisi2
 2022              	.LVL134:
 768:Drivers/STM32F4xx_HAL_Driver/Src/stm32f4xx_ll_usb.c **** 
 2023              		.loc 1 768 3 is_stmt 1 view .LVU669
 771:Drivers/STM32F4xx_HAL_Driver/Src/stm32f4xx_ll_usb.c ****   {
 2024              		.loc 1 771 3 view .LVU670
 771:Drivers/STM32F4xx_HAL_Driver/Src/stm32f4xx_ll_usb.c ****   {
 2025              		.loc 1 771 9 is_stmt 0 view .LVU671
 2026 0006 4B78     		ldrb	r3, [r1, #1]	@ zero_extendqisi2
 771:Drivers/STM32F4xx_HAL_Driver/Src/stm32f4xx_ll_usb.c ****   {
 2027              		.loc 1 771 6 view .LVU672
 2028 0008 012B     		cmp	r3, #1
 2029 000a 2DD0     		beq	.L161
 870:Drivers/STM32F4xx_HAL_Driver/Src/stm32f4xx_ll_usb.c ****     USBx_OUTEP(epnum)->DOEPTSIZ &= ~(USB_OTG_DOEPTSIZ_PKTCNT);
 2030              		.loc 1 870 5 is_stmt 1 view .LVU673
 870:Drivers/STM32F4xx_HAL_Driver/Src/stm32f4xx_ll_usb.c ****     USBx_OUTEP(epnum)->DOEPTSIZ &= ~(USB_OTG_DOEPTSIZ_PKTCNT);
 2031              		.loc 1 870 22 is_stmt 0 view .LVU674
 2032 000c 00EB441C 		add	ip, r0, r4, lsl #5
 2033 0010 0CF53063 		add	r3, ip, #2816
 2034 0014 1D69     		ldr	r5, [r3, #16]
 870:Drivers/STM32F4xx_HAL_Driver/Src/stm32f4xx_ll_usb.c ****     USBx_OUTEP(epnum)->DOEPTSIZ &= ~(USB_OTG_DOEPTSIZ_PKTCNT);
 2035              		.loc 1 870 33 view .LVU675
 2036 0016 6FF31205 		bfc	r5, #0, #19
 2037 001a 1D61     		str	r5, [r3, #16]
 871:Drivers/STM32F4xx_HAL_Driver/Src/stm32f4xx_ll_usb.c **** 
 2038              		.loc 1 871 5 is_stmt 1 view .LVU676
 871:Drivers/STM32F4xx_HAL_Driver/Src/stm32f4xx_ll_usb.c **** 
 2039              		.loc 1 871 22 is_stmt 0 view .LVU677
 2040 001c 1D69     		ldr	r5, [r3, #16]
 871:Drivers/STM32F4xx_HAL_Driver/Src/stm32f4xx_ll_usb.c **** 
 2041              		.loc 1 871 33 view .LVU678
 2042 001e 6FF3DC45 		bfc	r5, #19, #10
 2043 0022 1D61     		str	r5, [r3, #16]
 873:Drivers/STM32F4xx_HAL_Driver/Src/stm32f4xx_ll_usb.c ****     {
 2044              		.loc 1 873 5 is_stmt 1 view .LVU679
 873:Drivers/STM32F4xx_HAL_Driver/Src/stm32f4xx_ll_usb.c ****     {
 2045              		.loc 1 873 8 is_stmt 0 view .LVU680
 2046 0024 002C     		cmp	r4, #0
 2047 0026 40F0CE80 		bne	.L153
ARM GAS  /tmp/cc0ThgoX.s 			page 73


 875:Drivers/STM32F4xx_HAL_Driver/Src/stm32f4xx_ll_usb.c ****       {
 2048              		.loc 1 875 7 is_stmt 1 view .LVU681
 875:Drivers/STM32F4xx_HAL_Driver/Src/stm32f4xx_ll_usb.c ****       {
 2049              		.loc 1 875 13 is_stmt 0 view .LVU682
 2050 002a 0C69     		ldr	r4, [r1, #16]
 2051              	.LVL135:
 875:Drivers/STM32F4xx_HAL_Driver/Src/stm32f4xx_ll_usb.c ****       {
 2052              		.loc 1 875 10 view .LVU683
 2053 002c 0CB1     		cbz	r4, .L154
 877:Drivers/STM32F4xx_HAL_Driver/Src/stm32f4xx_ll_usb.c ****       }
 2054              		.loc 1 877 9 is_stmt 1 view .LVU684
 877:Drivers/STM32F4xx_HAL_Driver/Src/stm32f4xx_ll_usb.c ****       }
 2055              		.loc 1 877 26 is_stmt 0 view .LVU685
 2056 002e 8C68     		ldr	r4, [r1, #8]
 877:Drivers/STM32F4xx_HAL_Driver/Src/stm32f4xx_ll_usb.c ****       }
 2057              		.loc 1 877 22 view .LVU686
 2058 0030 0C61     		str	r4, [r1, #16]
 2059              	.L154:
 881:Drivers/STM32F4xx_HAL_Driver/Src/stm32f4xx_ll_usb.c **** 
 2060              		.loc 1 881 7 is_stmt 1 view .LVU687
 881:Drivers/STM32F4xx_HAL_Driver/Src/stm32f4xx_ll_usb.c **** 
 2061              		.loc 1 881 25 is_stmt 0 view .LVU688
 2062 0032 8C68     		ldr	r4, [r1, #8]
 881:Drivers/STM32F4xx_HAL_Driver/Src/stm32f4xx_ll_usb.c **** 
 2063              		.loc 1 881 21 view .LVU689
 2064 0034 0C62     		str	r4, [r1, #32]
 883:Drivers/STM32F4xx_HAL_Driver/Src/stm32f4xx_ll_usb.c ****       USBx_OUTEP(epnum)->DOEPTSIZ |= (USB_OTG_DOEPTSIZ_PKTCNT & (1U << 19));
 2065              		.loc 1 883 7 is_stmt 1 view .LVU690
 883:Drivers/STM32F4xx_HAL_Driver/Src/stm32f4xx_ll_usb.c ****       USBx_OUTEP(epnum)->DOEPTSIZ |= (USB_OTG_DOEPTSIZ_PKTCNT & (1U << 19));
 2066              		.loc 1 883 24 is_stmt 0 view .LVU691
 2067 0036 1D69     		ldr	r5, [r3, #16]
 883:Drivers/STM32F4xx_HAL_Driver/Src/stm32f4xx_ll_usb.c ****       USBx_OUTEP(epnum)->DOEPTSIZ |= (USB_OTG_DOEPTSIZ_PKTCNT & (1U << 19));
 2068              		.loc 1 883 63 view .LVU692
 2069 0038 C4F31204 		ubfx	r4, r4, #0, #19
 883:Drivers/STM32F4xx_HAL_Driver/Src/stm32f4xx_ll_usb.c ****       USBx_OUTEP(epnum)->DOEPTSIZ |= (USB_OTG_DOEPTSIZ_PKTCNT & (1U << 19));
 2070              		.loc 1 883 35 view .LVU693
 2071 003c 2C43     		orrs	r4, r4, r5
 2072 003e 1C61     		str	r4, [r3, #16]
 884:Drivers/STM32F4xx_HAL_Driver/Src/stm32f4xx_ll_usb.c ****     }
 2073              		.loc 1 884 7 is_stmt 1 view .LVU694
 884:Drivers/STM32F4xx_HAL_Driver/Src/stm32f4xx_ll_usb.c ****     }
 2074              		.loc 1 884 24 is_stmt 0 view .LVU695
 2075 0040 1C69     		ldr	r4, [r3, #16]
 884:Drivers/STM32F4xx_HAL_Driver/Src/stm32f4xx_ll_usb.c ****     }
 2076              		.loc 1 884 35 view .LVU696
 2077 0042 44F40024 		orr	r4, r4, #524288
 2078 0046 1C61     		str	r4, [r3, #16]
 2079              	.L155:
 903:Drivers/STM32F4xx_HAL_Driver/Src/stm32f4xx_ll_usb.c ****     {
 2080              		.loc 1 903 5 is_stmt 1 view .LVU697
 903:Drivers/STM32F4xx_HAL_Driver/Src/stm32f4xx_ll_usb.c ****     {
 2081              		.loc 1 903 8 is_stmt 0 view .LVU698
 2082 0048 012A     		cmp	r2, #1
 2083 004a 00F0DF80 		beq	.L162
 2084              	.LVL136:
 2085              	.L157:
 911:Drivers/STM32F4xx_HAL_Driver/Src/stm32f4xx_ll_usb.c ****     {
ARM GAS  /tmp/cc0ThgoX.s 			page 74


 2086              		.loc 1 911 5 is_stmt 1 view .LVU699
 911:Drivers/STM32F4xx_HAL_Driver/Src/stm32f4xx_ll_usb.c ****     {
 2087              		.loc 1 911 11 is_stmt 0 view .LVU700
 2088 004e 0B79     		ldrb	r3, [r1, #4]	@ zero_extendqisi2
 911:Drivers/STM32F4xx_HAL_Driver/Src/stm32f4xx_ll_usb.c ****     {
 2089              		.loc 1 911 8 view .LVU701
 2090 0050 012B     		cmp	r3, #1
 2091 0052 00F0E180 		beq	.L163
 2092              	.L158:
 923:Drivers/STM32F4xx_HAL_Driver/Src/stm32f4xx_ll_usb.c ****   }
 2093              		.loc 1 923 5 is_stmt 1 view .LVU702
 923:Drivers/STM32F4xx_HAL_Driver/Src/stm32f4xx_ll_usb.c ****   }
 2094              		.loc 1 923 22 is_stmt 0 view .LVU703
 2095 0056 DCF8003B 		ldr	r3, [ip, #2816]
 923:Drivers/STM32F4xx_HAL_Driver/Src/stm32f4xx_ll_usb.c ****   }
 2096              		.loc 1 923 32 view .LVU704
 2097 005a 43F00443 		orr	r3, r3, #-2080374784
 2098 005e CCF8003B 		str	r3, [ip, #2816]
 2099              	.LVL137:
 2100              	.L149:
 926:Drivers/STM32F4xx_HAL_Driver/Src/stm32f4xx_ll_usb.c **** }
 2101              		.loc 1 926 3 is_stmt 1 view .LVU705
 927:Drivers/STM32F4xx_HAL_Driver/Src/stm32f4xx_ll_usb.c **** 
 2102              		.loc 1 927 1 is_stmt 0 view .LVU706
 2103 0062 0020     		movs	r0, #0
 2104 0064 03B0     		add	sp, sp, #12
 2105              	.LCFI32:
 2106              		.cfi_remember_state
 2107              		.cfi_def_cfa_offset 20
 2108              		@ sp needed
 2109 0066 F0BD     		pop	{r4, r5, r6, r7, pc}
 2110              	.LVL138:
 2111              	.L161:
 2112              	.LCFI33:
 2113              		.cfi_restore_state
 774:Drivers/STM32F4xx_HAL_Driver/Src/stm32f4xx_ll_usb.c ****     {
 2114              		.loc 1 774 5 is_stmt 1 view .LVU707
 774:Drivers/STM32F4xx_HAL_Driver/Src/stm32f4xx_ll_usb.c ****     {
 2115              		.loc 1 774 11 is_stmt 0 view .LVU708
 2116 0068 0B69     		ldr	r3, [r1, #16]
 774:Drivers/STM32F4xx_HAL_Driver/Src/stm32f4xx_ll_usb.c ****     {
 2117              		.loc 1 774 8 view .LVU709
 2118 006a 73BB     		cbnz	r3, .L140
 776:Drivers/STM32F4xx_HAL_Driver/Src/stm32f4xx_ll_usb.c ****       USBx_INEP(epnum)->DIEPTSIZ |= (USB_OTG_DIEPTSIZ_PKTCNT & (1U << 19));
 2119              		.loc 1 776 7 is_stmt 1 view .LVU710
 776:Drivers/STM32F4xx_HAL_Driver/Src/stm32f4xx_ll_usb.c ****       USBx_INEP(epnum)->DIEPTSIZ |= (USB_OTG_DIEPTSIZ_PKTCNT & (1U << 19));
 2120              		.loc 1 776 23 is_stmt 0 view .LVU711
 2121 006c 00EB4413 		add	r3, r0, r4, lsl #5
 2122 0070 D3F81059 		ldr	r5, [r3, #2320]
 776:Drivers/STM32F4xx_HAL_Driver/Src/stm32f4xx_ll_usb.c ****       USBx_INEP(epnum)->DIEPTSIZ |= (USB_OTG_DIEPTSIZ_PKTCNT & (1U << 19));
 2123              		.loc 1 776 34 view .LVU712
 2124 0074 6FF3DC45 		bfc	r5, #19, #10
 2125 0078 C3F81059 		str	r5, [r3, #2320]
 777:Drivers/STM32F4xx_HAL_Driver/Src/stm32f4xx_ll_usb.c ****       USBx_INEP(epnum)->DIEPTSIZ &= ~(USB_OTG_DIEPTSIZ_XFRSIZ);
 2126              		.loc 1 777 7 is_stmt 1 view .LVU713
 777:Drivers/STM32F4xx_HAL_Driver/Src/stm32f4xx_ll_usb.c ****       USBx_INEP(epnum)->DIEPTSIZ &= ~(USB_OTG_DIEPTSIZ_XFRSIZ);
 2127              		.loc 1 777 23 is_stmt 0 view .LVU714
ARM GAS  /tmp/cc0ThgoX.s 			page 75


 2128 007c D3F81059 		ldr	r5, [r3, #2320]
 777:Drivers/STM32F4xx_HAL_Driver/Src/stm32f4xx_ll_usb.c ****       USBx_INEP(epnum)->DIEPTSIZ &= ~(USB_OTG_DIEPTSIZ_XFRSIZ);
 2129              		.loc 1 777 34 view .LVU715
 2130 0080 45F40025 		orr	r5, r5, #524288
 2131 0084 C3F81059 		str	r5, [r3, #2320]
 778:Drivers/STM32F4xx_HAL_Driver/Src/stm32f4xx_ll_usb.c ****     }
 2132              		.loc 1 778 7 is_stmt 1 view .LVU716
 778:Drivers/STM32F4xx_HAL_Driver/Src/stm32f4xx_ll_usb.c ****     }
 2133              		.loc 1 778 23 is_stmt 0 view .LVU717
 2134 0088 D3F81059 		ldr	r5, [r3, #2320]
 778:Drivers/STM32F4xx_HAL_Driver/Src/stm32f4xx_ll_usb.c ****     }
 2135              		.loc 1 778 34 view .LVU718
 2136 008c 6FF31205 		bfc	r5, #0, #19
 2137 0090 C3F81059 		str	r5, [r3, #2320]
 2138              	.L141:
 814:Drivers/STM32F4xx_HAL_Driver/Src/stm32f4xx_ll_usb.c ****     {
 2139              		.loc 1 814 5 is_stmt 1 view .LVU719
 814:Drivers/STM32F4xx_HAL_Driver/Src/stm32f4xx_ll_usb.c ****     {
 2140              		.loc 1 814 8 is_stmt 0 view .LVU720
 2141 0094 012A     		cmp	r2, #1
 2142 0096 54D0     		beq	.L164
 839:Drivers/STM32F4xx_HAL_Driver/Src/stm32f4xx_ll_usb.c **** 
 2143              		.loc 1 839 7 is_stmt 1 view .LVU721
 839:Drivers/STM32F4xx_HAL_Driver/Src/stm32f4xx_ll_usb.c **** 
 2144              		.loc 1 839 23 is_stmt 0 view .LVU722
 2145 0098 00EB4414 		add	r4, r0, r4, lsl #5
 2146              	.LVL139:
 839:Drivers/STM32F4xx_HAL_Driver/Src/stm32f4xx_ll_usb.c **** 
 2147              		.loc 1 839 23 view .LVU723
 2148 009c D4F80039 		ldr	r3, [r4, #2304]
 839:Drivers/STM32F4xx_HAL_Driver/Src/stm32f4xx_ll_usb.c **** 
 2149              		.loc 1 839 33 view .LVU724
 2150 00a0 43F00443 		orr	r3, r3, #-2080374784
 2151 00a4 C4F80039 		str	r3, [r4, #2304]
 841:Drivers/STM32F4xx_HAL_Driver/Src/stm32f4xx_ll_usb.c ****       {
 2152              		.loc 1 841 7 is_stmt 1 view .LVU725
 841:Drivers/STM32F4xx_HAL_Driver/Src/stm32f4xx_ll_usb.c ****       {
 2153              		.loc 1 841 13 is_stmt 0 view .LVU726
 2154 00a8 0B79     		ldrb	r3, [r1, #4]	@ zero_extendqisi2
 841:Drivers/STM32F4xx_HAL_Driver/Src/stm32f4xx_ll_usb.c ****       {
 2155              		.loc 1 841 10 view .LVU727
 2156 00aa 012B     		cmp	r3, #1
 2157 00ac 72D0     		beq	.L150
 844:Drivers/STM32F4xx_HAL_Driver/Src/stm32f4xx_ll_usb.c ****         {
 2158              		.loc 1 844 9 is_stmt 1 view .LVU728
 844:Drivers/STM32F4xx_HAL_Driver/Src/stm32f4xx_ll_usb.c ****         {
 2159              		.loc 1 844 15 is_stmt 0 view .LVU729
 2160 00ae 0B69     		ldr	r3, [r1, #16]
 844:Drivers/STM32F4xx_HAL_Driver/Src/stm32f4xx_ll_usb.c ****         {
 2161              		.loc 1 844 12 view .LVU730
 2162 00b0 002B     		cmp	r3, #0
 2163 00b2 D6D0     		beq	.L149
 846:Drivers/STM32F4xx_HAL_Driver/Src/stm32f4xx_ll_usb.c ****         }
 2164              		.loc 1 846 11 is_stmt 1 view .LVU731
 846:Drivers/STM32F4xx_HAL_Driver/Src/stm32f4xx_ll_usb.c ****         }
 2165              		.loc 1 846 22 is_stmt 0 view .LVU732
 2166 00b4 D0F83438 		ldr	r3, [r0, #2100]
ARM GAS  /tmp/cc0ThgoX.s 			page 76


 846:Drivers/STM32F4xx_HAL_Driver/Src/stm32f4xx_ll_usb.c ****         }
 2167              		.loc 1 846 48 view .LVU733
 2168 00b8 0978     		ldrb	r1, [r1]	@ zero_extendqisi2
 2169              	.LVL140:
 846:Drivers/STM32F4xx_HAL_Driver/Src/stm32f4xx_ll_usb.c ****         }
 2170              		.loc 1 846 54 view .LVU734
 2171 00ba 01F00F01 		and	r1, r1, #15
 846:Drivers/STM32F4xx_HAL_Driver/Src/stm32f4xx_ll_usb.c ****         }
 2172              		.loc 1 846 42 view .LVU735
 2173 00be 0122     		movs	r2, #1
 2174              	.LVL141:
 846:Drivers/STM32F4xx_HAL_Driver/Src/stm32f4xx_ll_usb.c ****         }
 2175              		.loc 1 846 42 view .LVU736
 2176 00c0 8A40     		lsls	r2, r2, r1
 846:Drivers/STM32F4xx_HAL_Driver/Src/stm32f4xx_ll_usb.c ****         }
 2177              		.loc 1 846 35 view .LVU737
 2178 00c2 1343     		orrs	r3, r3, r2
 2179 00c4 C0F83438 		str	r3, [r0, #2100]
 2180 00c8 CBE7     		b	.L149
 2181              	.LVL142:
 2182              	.L140:
 787:Drivers/STM32F4xx_HAL_Driver/Src/stm32f4xx_ll_usb.c ****       USBx_INEP(epnum)->DIEPTSIZ &= ~(USB_OTG_DIEPTSIZ_PKTCNT);
 2183              		.loc 1 787 7 is_stmt 1 view .LVU738
 787:Drivers/STM32F4xx_HAL_Driver/Src/stm32f4xx_ll_usb.c ****       USBx_INEP(epnum)->DIEPTSIZ &= ~(USB_OTG_DIEPTSIZ_PKTCNT);
 2184              		.loc 1 787 23 is_stmt 0 view .LVU739
 2185 00ca 00EB4413 		add	r3, r0, r4, lsl #5
 2186 00ce 03F51063 		add	r3, r3, #2304
 2187 00d2 1D69     		ldr	r5, [r3, #16]
 787:Drivers/STM32F4xx_HAL_Driver/Src/stm32f4xx_ll_usb.c ****       USBx_INEP(epnum)->DIEPTSIZ &= ~(USB_OTG_DIEPTSIZ_PKTCNT);
 2188              		.loc 1 787 34 view .LVU740
 2189 00d4 6FF31205 		bfc	r5, #0, #19
 2190 00d8 1D61     		str	r5, [r3, #16]
 788:Drivers/STM32F4xx_HAL_Driver/Src/stm32f4xx_ll_usb.c **** 
 2191              		.loc 1 788 7 is_stmt 1 view .LVU741
 788:Drivers/STM32F4xx_HAL_Driver/Src/stm32f4xx_ll_usb.c **** 
 2192              		.loc 1 788 23 is_stmt 0 view .LVU742
 2193 00da 1D69     		ldr	r5, [r3, #16]
 788:Drivers/STM32F4xx_HAL_Driver/Src/stm32f4xx_ll_usb.c **** 
 2194              		.loc 1 788 34 view .LVU743
 2195 00dc 6FF3DC45 		bfc	r5, #19, #10
 2196 00e0 1D61     		str	r5, [r3, #16]
 790:Drivers/STM32F4xx_HAL_Driver/Src/stm32f4xx_ll_usb.c ****       {
 2197              		.loc 1 790 7 is_stmt 1 view .LVU744
 790:Drivers/STM32F4xx_HAL_Driver/Src/stm32f4xx_ll_usb.c ****       {
 2198              		.loc 1 790 10 is_stmt 0 view .LVU745
 2199 00e2 84B9     		cbnz	r4, .L142
 792:Drivers/STM32F4xx_HAL_Driver/Src/stm32f4xx_ll_usb.c ****         {
 2200              		.loc 1 792 9 is_stmt 1 view .LVU746
 792:Drivers/STM32F4xx_HAL_Driver/Src/stm32f4xx_ll_usb.c ****         {
 2201              		.loc 1 792 15 is_stmt 0 view .LVU747
 2202 00e4 0E69     		ldr	r6, [r1, #16]
 792:Drivers/STM32F4xx_HAL_Driver/Src/stm32f4xx_ll_usb.c ****         {
 2203              		.loc 1 792 30 view .LVU748
 2204 00e6 8D68     		ldr	r5, [r1, #8]
 792:Drivers/STM32F4xx_HAL_Driver/Src/stm32f4xx_ll_usb.c ****         {
 2205              		.loc 1 792 12 view .LVU749
 2206 00e8 AE42     		cmp	r6, r5
ARM GAS  /tmp/cc0ThgoX.s 			page 77


 2207 00ea 00D9     		bls	.L143
 794:Drivers/STM32F4xx_HAL_Driver/Src/stm32f4xx_ll_usb.c ****         }
 2208              		.loc 1 794 11 is_stmt 1 view .LVU750
 794:Drivers/STM32F4xx_HAL_Driver/Src/stm32f4xx_ll_usb.c ****         }
 2209              		.loc 1 794 24 is_stmt 0 view .LVU751
 2210 00ec 0D61     		str	r5, [r1, #16]
 2211              	.L143:
 797:Drivers/STM32F4xx_HAL_Driver/Src/stm32f4xx_ll_usb.c ****       }
 2212              		.loc 1 797 9 is_stmt 1 view .LVU752
 797:Drivers/STM32F4xx_HAL_Driver/Src/stm32f4xx_ll_usb.c ****       }
 2213              		.loc 1 797 25 is_stmt 0 view .LVU753
 2214 00ee 1D69     		ldr	r5, [r3, #16]
 797:Drivers/STM32F4xx_HAL_Driver/Src/stm32f4xx_ll_usb.c ****       }
 2215              		.loc 1 797 36 view .LVU754
 2216 00f0 45F40025 		orr	r5, r5, #524288
 2217 00f4 1D61     		str	r5, [r3, #16]
 2218              	.L144:
 811:Drivers/STM32F4xx_HAL_Driver/Src/stm32f4xx_ll_usb.c ****     }
 2219              		.loc 1 811 7 is_stmt 1 view .LVU755
 811:Drivers/STM32F4xx_HAL_Driver/Src/stm32f4xx_ll_usb.c ****     }
 2220              		.loc 1 811 23 is_stmt 0 view .LVU756
 2221 00f6 1D69     		ldr	r5, [r3, #16]
 811:Drivers/STM32F4xx_HAL_Driver/Src/stm32f4xx_ll_usb.c ****     }
 2222              		.loc 1 811 62 view .LVU757
 2223 00f8 0E69     		ldr	r6, [r1, #16]
 2224 00fa C6F3120C 		ubfx	ip, r6, #0, #19
 811:Drivers/STM32F4xx_HAL_Driver/Src/stm32f4xx_ll_usb.c ****     }
 2225              		.loc 1 811 34 view .LVU758
 2226 00fe 45EA0C05 		orr	r5, r5, ip
 2227 0102 1D61     		str	r5, [r3, #16]
 2228 0104 C6E7     		b	.L141
 2229              	.L142:
 801:Drivers/STM32F4xx_HAL_Driver/Src/stm32f4xx_ll_usb.c ****         USBx_INEP(epnum)->DIEPTSIZ |= (USB_OTG_DIEPTSIZ_PKTCNT & ((uint32_t)pktcnt << 19));
 2230              		.loc 1 801 9 is_stmt 1 view .LVU759
 801:Drivers/STM32F4xx_HAL_Driver/Src/stm32f4xx_ll_usb.c ****         USBx_INEP(epnum)->DIEPTSIZ |= (USB_OTG_DIEPTSIZ_PKTCNT & ((uint32_t)pktcnt << 19));
 2231              		.loc 1 801 32 is_stmt 0 view .LVU760
 2232 0106 0D69     		ldr	r5, [r1, #16]
 801:Drivers/STM32F4xx_HAL_Driver/Src/stm32f4xx_ll_usb.c ****         USBx_INEP(epnum)->DIEPTSIZ |= (USB_OTG_DIEPTSIZ_PKTCNT & ((uint32_t)pktcnt << 19));
 2233              		.loc 1 801 47 view .LVU761
 2234 0108 8E68     		ldr	r6, [r1, #8]
 801:Drivers/STM32F4xx_HAL_Driver/Src/stm32f4xx_ll_usb.c ****         USBx_INEP(epnum)->DIEPTSIZ |= (USB_OTG_DIEPTSIZ_PKTCNT & ((uint32_t)pktcnt << 19));
 2235              		.loc 1 801 43 view .LVU762
 2236 010a 3544     		add	r5, r5, r6
 801:Drivers/STM32F4xx_HAL_Driver/Src/stm32f4xx_ll_usb.c ****         USBx_INEP(epnum)->DIEPTSIZ |= (USB_OTG_DIEPTSIZ_PKTCNT & ((uint32_t)pktcnt << 19));
 2237              		.loc 1 801 59 view .LVU763
 2238 010c 013D     		subs	r5, r5, #1
 801:Drivers/STM32F4xx_HAL_Driver/Src/stm32f4xx_ll_usb.c ****         USBx_INEP(epnum)->DIEPTSIZ |= (USB_OTG_DIEPTSIZ_PKTCNT & ((uint32_t)pktcnt << 19));
 2239              		.loc 1 801 65 view .LVU764
 2240 010e B5FBF6F5 		udiv	r5, r5, r6
 2241              	.LVL143:
 802:Drivers/STM32F4xx_HAL_Driver/Src/stm32f4xx_ll_usb.c **** 
 2242              		.loc 1 802 9 is_stmt 1 view .LVU765
 802:Drivers/STM32F4xx_HAL_Driver/Src/stm32f4xx_ll_usb.c **** 
 2243              		.loc 1 802 25 is_stmt 0 view .LVU766
 2244 0112 1E69     		ldr	r6, [r3, #16]
 2245 0114 1FFA85FC 		uxth	ip, r5
 802:Drivers/STM32F4xx_HAL_Driver/Src/stm32f4xx_ll_usb.c **** 
ARM GAS  /tmp/cc0ThgoX.s 			page 78


 2246              		.loc 1 802 64 view .LVU767
 2247 0118 494F     		ldr	r7, .L166
 2248 011a 07EAC545 		and	r5, r7, r5, lsl #19
 2249              	.LVL144:
 802:Drivers/STM32F4xx_HAL_Driver/Src/stm32f4xx_ll_usb.c **** 
 2250              		.loc 1 802 36 view .LVU768
 2251 011e 3543     		orrs	r5, r5, r6
 2252 0120 1D61     		str	r5, [r3, #16]
 804:Drivers/STM32F4xx_HAL_Driver/Src/stm32f4xx_ll_usb.c ****         {
 2253              		.loc 1 804 9 is_stmt 1 view .LVU769
 804:Drivers/STM32F4xx_HAL_Driver/Src/stm32f4xx_ll_usb.c ****         {
 2254              		.loc 1 804 15 is_stmt 0 view .LVU770
 2255 0122 0D79     		ldrb	r5, [r1, #4]	@ zero_extendqisi2
 804:Drivers/STM32F4xx_HAL_Driver/Src/stm32f4xx_ll_usb.c ****         {
 2256              		.loc 1 804 12 view .LVU771
 2257 0124 012D     		cmp	r5, #1
 2258 0126 E6D1     		bne	.L144
 806:Drivers/STM32F4xx_HAL_Driver/Src/stm32f4xx_ll_usb.c ****           USBx_INEP(epnum)->DIEPTSIZ |= (USB_OTG_DIEPTSIZ_MULCNT & ((uint32_t)pktcnt << 29));
 2259              		.loc 1 806 11 is_stmt 1 view .LVU772
 806:Drivers/STM32F4xx_HAL_Driver/Src/stm32f4xx_ll_usb.c ****           USBx_INEP(epnum)->DIEPTSIZ |= (USB_OTG_DIEPTSIZ_MULCNT & ((uint32_t)pktcnt << 29));
 2260              		.loc 1 806 27 is_stmt 0 view .LVU773
 2261 0128 1D69     		ldr	r5, [r3, #16]
 806:Drivers/STM32F4xx_HAL_Driver/Src/stm32f4xx_ll_usb.c ****           USBx_INEP(epnum)->DIEPTSIZ |= (USB_OTG_DIEPTSIZ_MULCNT & ((uint32_t)pktcnt << 29));
 2262              		.loc 1 806 38 view .LVU774
 2263 012a 25F0C045 		bic	r5, r5, #1610612736
 2264 012e 1D61     		str	r5, [r3, #16]
 807:Drivers/STM32F4xx_HAL_Driver/Src/stm32f4xx_ll_usb.c ****         }
 2265              		.loc 1 807 11 is_stmt 1 view .LVU775
 807:Drivers/STM32F4xx_HAL_Driver/Src/stm32f4xx_ll_usb.c ****         }
 2266              		.loc 1 807 27 is_stmt 0 view .LVU776
 2267 0130 1D69     		ldr	r5, [r3, #16]
 807:Drivers/STM32F4xx_HAL_Driver/Src/stm32f4xx_ll_usb.c ****         }
 2268              		.loc 1 807 86 view .LVU777
 2269 0132 4FEA4C7C 		lsl	ip, ip, #29
 2270              	.LVL145:
 807:Drivers/STM32F4xx_HAL_Driver/Src/stm32f4xx_ll_usb.c ****         }
 2271              		.loc 1 807 66 view .LVU778
 2272 0136 0CF0C04C 		and	ip, ip, #1610612736
 807:Drivers/STM32F4xx_HAL_Driver/Src/stm32f4xx_ll_usb.c ****         }
 2273              		.loc 1 807 38 view .LVU779
 2274 013a 45EA0C05 		orr	r5, r5, ip
 2275 013e 1D61     		str	r5, [r3, #16]
 2276 0140 D9E7     		b	.L144
 2277              	.LVL146:
 2278              	.L164:
 816:Drivers/STM32F4xx_HAL_Driver/Src/stm32f4xx_ll_usb.c ****       {
 2279              		.loc 1 816 7 is_stmt 1 view .LVU780
 816:Drivers/STM32F4xx_HAL_Driver/Src/stm32f4xx_ll_usb.c ****       {
 2280              		.loc 1 816 23 is_stmt 0 view .LVU781
 2281 0142 CB69     		ldr	r3, [r1, #28]
 816:Drivers/STM32F4xx_HAL_Driver/Src/stm32f4xx_ll_usb.c ****       {
 2282              		.loc 1 816 10 view .LVU782
 2283 0144 1BB1     		cbz	r3, .L146
 818:Drivers/STM32F4xx_HAL_Driver/Src/stm32f4xx_ll_usb.c ****       }
 2284              		.loc 1 818 9 is_stmt 1 view .LVU783
 2285 0146 00EB4412 		add	r2, r0, r4, lsl #5
 2286              	.LVL147:
ARM GAS  /tmp/cc0ThgoX.s 			page 79


 818:Drivers/STM32F4xx_HAL_Driver/Src/stm32f4xx_ll_usb.c ****       }
 2287              		.loc 1 818 35 is_stmt 0 view .LVU784
 2288 014a C2F81439 		str	r3, [r2, #2324]
 2289              	.L146:
 821:Drivers/STM32F4xx_HAL_Driver/Src/stm32f4xx_ll_usb.c ****       {
 2290              		.loc 1 821 7 is_stmt 1 view .LVU785
 821:Drivers/STM32F4xx_HAL_Driver/Src/stm32f4xx_ll_usb.c ****       {
 2291              		.loc 1 821 13 is_stmt 0 view .LVU786
 2292 014e 0B79     		ldrb	r3, [r1, #4]	@ zero_extendqisi2
 821:Drivers/STM32F4xx_HAL_Driver/Src/stm32f4xx_ll_usb.c ****       {
 2293              		.loc 1 821 10 view .LVU787
 2294 0150 012B     		cmp	r3, #1
 2295 0152 08D0     		beq	.L165
 2296              	.L147:
 834:Drivers/STM32F4xx_HAL_Driver/Src/stm32f4xx_ll_usb.c ****     }
 2297              		.loc 1 834 7 is_stmt 1 view .LVU788
 834:Drivers/STM32F4xx_HAL_Driver/Src/stm32f4xx_ll_usb.c ****     }
 2298              		.loc 1 834 23 is_stmt 0 view .LVU789
 2299 0154 00EB4414 		add	r4, r0, r4, lsl #5
 2300              	.LVL148:
 834:Drivers/STM32F4xx_HAL_Driver/Src/stm32f4xx_ll_usb.c ****     }
 2301              		.loc 1 834 23 view .LVU790
 2302 0158 D4F80039 		ldr	r3, [r4, #2304]
 834:Drivers/STM32F4xx_HAL_Driver/Src/stm32f4xx_ll_usb.c ****     }
 2303              		.loc 1 834 33 view .LVU791
 2304 015c 43F00443 		orr	r3, r3, #-2080374784
 2305 0160 C4F80039 		str	r3, [r4, #2304]
 2306 0164 7DE7     		b	.L149
 2307              	.LVL149:
 2308              	.L165:
 823:Drivers/STM32F4xx_HAL_Driver/Src/stm32f4xx_ll_usb.c ****         {
 2309              		.loc 1 823 9 is_stmt 1 view .LVU792
 823:Drivers/STM32F4xx_HAL_Driver/Src/stm32f4xx_ll_usb.c ****         {
 2310              		.loc 1 823 25 is_stmt 0 view .LVU793
 2311 0166 D0F80838 		ldr	r3, [r0, #2056]
 823:Drivers/STM32F4xx_HAL_Driver/Src/stm32f4xx_ll_usb.c ****         {
 2312              		.loc 1 823 12 view .LVU794
 2313 016a 13F4807F 		tst	r3, #256
 2314 016e 08D1     		bne	.L148
 825:Drivers/STM32F4xx_HAL_Driver/Src/stm32f4xx_ll_usb.c ****         }
 2315              		.loc 1 825 11 is_stmt 1 view .LVU795
 825:Drivers/STM32F4xx_HAL_Driver/Src/stm32f4xx_ll_usb.c ****         }
 2316              		.loc 1 825 27 is_stmt 0 view .LVU796
 2317 0170 00EB4412 		add	r2, r0, r4, lsl #5
 2318 0174 D2F80039 		ldr	r3, [r2, #2304]
 825:Drivers/STM32F4xx_HAL_Driver/Src/stm32f4xx_ll_usb.c ****         }
 2319              		.loc 1 825 37 view .LVU797
 2320 0178 43F00053 		orr	r3, r3, #536870912
 2321 017c C2F80039 		str	r3, [r2, #2304]
 2322 0180 E8E7     		b	.L147
 2323              	.L148:
 829:Drivers/STM32F4xx_HAL_Driver/Src/stm32f4xx_ll_usb.c ****         }
 2324              		.loc 1 829 11 is_stmt 1 view .LVU798
 829:Drivers/STM32F4xx_HAL_Driver/Src/stm32f4xx_ll_usb.c ****         }
 2325              		.loc 1 829 27 is_stmt 0 view .LVU799
 2326 0182 00EB4412 		add	r2, r0, r4, lsl #5
 2327 0186 D2F80039 		ldr	r3, [r2, #2304]
ARM GAS  /tmp/cc0ThgoX.s 			page 80


 829:Drivers/STM32F4xx_HAL_Driver/Src/stm32f4xx_ll_usb.c ****         }
 2328              		.loc 1 829 37 view .LVU800
 2329 018a 43F08053 		orr	r3, r3, #268435456
 2330 018e C2F80039 		str	r3, [r2, #2304]
 2331 0192 DFE7     		b	.L147
 2332              	.LVL150:
 2333              	.L150:
 851:Drivers/STM32F4xx_HAL_Driver/Src/stm32f4xx_ll_usb.c ****         {
 2334              		.loc 1 851 9 is_stmt 1 view .LVU801
 851:Drivers/STM32F4xx_HAL_Driver/Src/stm32f4xx_ll_usb.c ****         {
 2335              		.loc 1 851 25 is_stmt 0 view .LVU802
 2336 0194 D0F80838 		ldr	r3, [r0, #2056]
 851:Drivers/STM32F4xx_HAL_Driver/Src/stm32f4xx_ll_usb.c ****         {
 2337              		.loc 1 851 12 view .LVU803
 2338 0198 13F4807F 		tst	r3, #256
 2339 019c 0CD1     		bne	.L151
 853:Drivers/STM32F4xx_HAL_Driver/Src/stm32f4xx_ll_usb.c ****         }
 2340              		.loc 1 853 11 is_stmt 1 view .LVU804
 853:Drivers/STM32F4xx_HAL_Driver/Src/stm32f4xx_ll_usb.c ****         }
 2341              		.loc 1 853 27 is_stmt 0 view .LVU805
 2342 019e D4F80039 		ldr	r3, [r4, #2304]
 853:Drivers/STM32F4xx_HAL_Driver/Src/stm32f4xx_ll_usb.c ****         }
 2343              		.loc 1 853 37 view .LVU806
 2344 01a2 43F00053 		orr	r3, r3, #536870912
 2345 01a6 C4F80039 		str	r3, [r4, #2304]
 2346              	.L152:
 860:Drivers/STM32F4xx_HAL_Driver/Src/stm32f4xx_ll_usb.c ****       }
 2347              		.loc 1 860 9 is_stmt 1 view .LVU807
 860:Drivers/STM32F4xx_HAL_Driver/Src/stm32f4xx_ll_usb.c ****       }
 2348              		.loc 1 860 15 is_stmt 0 view .LVU808
 2349 01aa 0092     		str	r2, [sp]
 2350 01ac 0B8A     		ldrh	r3, [r1, #16]
 2351 01ae 0A78     		ldrb	r2, [r1]	@ zero_extendqisi2
 2352              	.LVL151:
 860:Drivers/STM32F4xx_HAL_Driver/Src/stm32f4xx_ll_usb.c ****       }
 2353              		.loc 1 860 15 view .LVU809
 2354 01b0 C968     		ldr	r1, [r1, #12]
 2355              	.LVL152:
 860:Drivers/STM32F4xx_HAL_Driver/Src/stm32f4xx_ll_usb.c ****       }
 2356              		.loc 1 860 15 view .LVU810
 2357 01b2 FFF7FEFF 		bl	USB_WritePacket
 2358              	.LVL153:
 860:Drivers/STM32F4xx_HAL_Driver/Src/stm32f4xx_ll_usb.c ****       }
 2359              		.loc 1 860 15 view .LVU811
 2360 01b6 54E7     		b	.L149
 2361              	.LVL154:
 2362              	.L151:
 857:Drivers/STM32F4xx_HAL_Driver/Src/stm32f4xx_ll_usb.c ****         }
 2363              		.loc 1 857 11 is_stmt 1 view .LVU812
 857:Drivers/STM32F4xx_HAL_Driver/Src/stm32f4xx_ll_usb.c ****         }
 2364              		.loc 1 857 27 is_stmt 0 view .LVU813
 2365 01b8 D4F80039 		ldr	r3, [r4, #2304]
 857:Drivers/STM32F4xx_HAL_Driver/Src/stm32f4xx_ll_usb.c ****         }
 2366              		.loc 1 857 37 view .LVU814
 2367 01bc 43F08053 		orr	r3, r3, #268435456
 2368 01c0 C4F80039 		str	r3, [r4, #2304]
 2369 01c4 F1E7     		b	.L152
ARM GAS  /tmp/cc0ThgoX.s 			page 81


 2370              	.LVL155:
 2371              	.L153:
 888:Drivers/STM32F4xx_HAL_Driver/Src/stm32f4xx_ll_usb.c ****       {
 2372              		.loc 1 888 7 is_stmt 1 view .LVU815
 888:Drivers/STM32F4xx_HAL_Driver/Src/stm32f4xx_ll_usb.c ****       {
 2373              		.loc 1 888 13 is_stmt 0 view .LVU816
 2374 01c6 0C69     		ldr	r4, [r1, #16]
 2375              	.LVL156:
 888:Drivers/STM32F4xx_HAL_Driver/Src/stm32f4xx_ll_usb.c ****       {
 2376              		.loc 1 888 10 view .LVU817
 2377 01c8 54B9     		cbnz	r4, .L156
 890:Drivers/STM32F4xx_HAL_Driver/Src/stm32f4xx_ll_usb.c ****         USBx_OUTEP(epnum)->DOEPTSIZ |= (USB_OTG_DOEPTSIZ_PKTCNT & (1U << 19));
 2378              		.loc 1 890 9 is_stmt 1 view .LVU818
 890:Drivers/STM32F4xx_HAL_Driver/Src/stm32f4xx_ll_usb.c ****         USBx_OUTEP(epnum)->DOEPTSIZ |= (USB_OTG_DOEPTSIZ_PKTCNT & (1U << 19));
 2379              		.loc 1 890 26 is_stmt 0 view .LVU819
 2380 01ca 1C69     		ldr	r4, [r3, #16]
 890:Drivers/STM32F4xx_HAL_Driver/Src/stm32f4xx_ll_usb.c ****         USBx_OUTEP(epnum)->DOEPTSIZ |= (USB_OTG_DOEPTSIZ_PKTCNT & (1U << 19));
 2381              		.loc 1 890 69 view .LVU820
 2382 01cc 8D68     		ldr	r5, [r1, #8]
 890:Drivers/STM32F4xx_HAL_Driver/Src/stm32f4xx_ll_usb.c ****         USBx_OUTEP(epnum)->DOEPTSIZ |= (USB_OTG_DOEPTSIZ_PKTCNT & (1U << 19));
 2383              		.loc 1 890 65 view .LVU821
 2384 01ce C5F31205 		ubfx	r5, r5, #0, #19
 890:Drivers/STM32F4xx_HAL_Driver/Src/stm32f4xx_ll_usb.c ****         USBx_OUTEP(epnum)->DOEPTSIZ |= (USB_OTG_DOEPTSIZ_PKTCNT & (1U << 19));
 2385              		.loc 1 890 37 view .LVU822
 2386 01d2 2C43     		orrs	r4, r4, r5
 2387 01d4 1C61     		str	r4, [r3, #16]
 891:Drivers/STM32F4xx_HAL_Driver/Src/stm32f4xx_ll_usb.c ****       }
 2388              		.loc 1 891 9 is_stmt 1 view .LVU823
 891:Drivers/STM32F4xx_HAL_Driver/Src/stm32f4xx_ll_usb.c ****       }
 2389              		.loc 1 891 26 is_stmt 0 view .LVU824
 2390 01d6 1C69     		ldr	r4, [r3, #16]
 891:Drivers/STM32F4xx_HAL_Driver/Src/stm32f4xx_ll_usb.c ****       }
 2391              		.loc 1 891 37 view .LVU825
 2392 01d8 44F40024 		orr	r4, r4, #524288
 2393 01dc 1C61     		str	r4, [r3, #16]
 2394 01de 33E7     		b	.L155
 2395              	.L156:
 895:Drivers/STM32F4xx_HAL_Driver/Src/stm32f4xx_ll_usb.c ****         ep->xfer_size = ep->maxpacket * pktcnt;
 2396              		.loc 1 895 9 is_stmt 1 view .LVU826
 895:Drivers/STM32F4xx_HAL_Driver/Src/stm32f4xx_ll_usb.c ****         ep->xfer_size = ep->maxpacket * pktcnt;
 2397              		.loc 1 895 47 is_stmt 0 view .LVU827
 2398 01e0 8D68     		ldr	r5, [r1, #8]
 895:Drivers/STM32F4xx_HAL_Driver/Src/stm32f4xx_ll_usb.c ****         ep->xfer_size = ep->maxpacket * pktcnt;
 2399              		.loc 1 895 43 view .LVU828
 2400 01e2 2C44     		add	r4, r4, r5
 895:Drivers/STM32F4xx_HAL_Driver/Src/stm32f4xx_ll_usb.c ****         ep->xfer_size = ep->maxpacket * pktcnt;
 2401              		.loc 1 895 59 view .LVU829
 2402 01e4 013C     		subs	r4, r4, #1
 895:Drivers/STM32F4xx_HAL_Driver/Src/stm32f4xx_ll_usb.c ****         ep->xfer_size = ep->maxpacket * pktcnt;
 2403              		.loc 1 895 65 view .LVU830
 2404 01e6 B4FBF5F4 		udiv	r4, r4, r5
 2405              	.LVL157:
 896:Drivers/STM32F4xx_HAL_Driver/Src/stm32f4xx_ll_usb.c **** 
 2406              		.loc 1 896 9 is_stmt 1 view .LVU831
 2407 01ea A4B2     		uxth	r4, r4
 896:Drivers/STM32F4xx_HAL_Driver/Src/stm32f4xx_ll_usb.c **** 
 2408              		.loc 1 896 39 is_stmt 0 view .LVU832
ARM GAS  /tmp/cc0ThgoX.s 			page 82


 2409 01ec 04FB05F5 		mul	r5, r4, r5
 896:Drivers/STM32F4xx_HAL_Driver/Src/stm32f4xx_ll_usb.c **** 
 2410              		.loc 1 896 23 view .LVU833
 2411 01f0 0D62     		str	r5, [r1, #32]
 898:Drivers/STM32F4xx_HAL_Driver/Src/stm32f4xx_ll_usb.c ****         USBx_OUTEP(epnum)->DOEPTSIZ |= USB_OTG_DOEPTSIZ_XFRSIZ & ep->xfer_size;
 2412              		.loc 1 898 9 is_stmt 1 view .LVU834
 898:Drivers/STM32F4xx_HAL_Driver/Src/stm32f4xx_ll_usb.c ****         USBx_OUTEP(epnum)->DOEPTSIZ |= USB_OTG_DOEPTSIZ_XFRSIZ & ep->xfer_size;
 2413              		.loc 1 898 26 is_stmt 0 view .LVU835
 2414 01f2 1D69     		ldr	r5, [r3, #16]
 898:Drivers/STM32F4xx_HAL_Driver/Src/stm32f4xx_ll_usb.c ****         USBx_OUTEP(epnum)->DOEPTSIZ |= USB_OTG_DOEPTSIZ_XFRSIZ & ep->xfer_size;
 2415              		.loc 1 898 64 view .LVU836
 2416 01f4 124E     		ldr	r6, .L166
 2417 01f6 06EAC444 		and	r4, r6, r4, lsl #19
 2418              	.LVL158:
 898:Drivers/STM32F4xx_HAL_Driver/Src/stm32f4xx_ll_usb.c ****         USBx_OUTEP(epnum)->DOEPTSIZ |= USB_OTG_DOEPTSIZ_XFRSIZ & ep->xfer_size;
 2419              		.loc 1 898 37 view .LVU837
 2420 01fa 2C43     		orrs	r4, r4, r5
 2421 01fc 1C61     		str	r4, [r3, #16]
 2422              	.LVL159:
 899:Drivers/STM32F4xx_HAL_Driver/Src/stm32f4xx_ll_usb.c ****       }
 2423              		.loc 1 899 9 is_stmt 1 view .LVU838
 899:Drivers/STM32F4xx_HAL_Driver/Src/stm32f4xx_ll_usb.c ****       }
 2424              		.loc 1 899 26 is_stmt 0 view .LVU839
 2425 01fe 1C69     		ldr	r4, [r3, #16]
 899:Drivers/STM32F4xx_HAL_Driver/Src/stm32f4xx_ll_usb.c ****       }
 2426              		.loc 1 899 68 view .LVU840
 2427 0200 0D6A     		ldr	r5, [r1, #32]
 899:Drivers/STM32F4xx_HAL_Driver/Src/stm32f4xx_ll_usb.c ****       }
 2428              		.loc 1 899 64 view .LVU841
 2429 0202 C5F31205 		ubfx	r5, r5, #0, #19
 899:Drivers/STM32F4xx_HAL_Driver/Src/stm32f4xx_ll_usb.c ****       }
 2430              		.loc 1 899 37 view .LVU842
 2431 0206 2C43     		orrs	r4, r4, r5
 2432 0208 1C61     		str	r4, [r3, #16]
 2433 020a 1DE7     		b	.L155
 2434              	.LVL160:
 2435              	.L162:
 905:Drivers/STM32F4xx_HAL_Driver/Src/stm32f4xx_ll_usb.c ****       {
 2436              		.loc 1 905 7 is_stmt 1 view .LVU843
 905:Drivers/STM32F4xx_HAL_Driver/Src/stm32f4xx_ll_usb.c ****       {
 2437              		.loc 1 905 23 is_stmt 0 view .LVU844
 2438 020c CA68     		ldr	r2, [r1, #12]
 2439              	.LVL161:
 905:Drivers/STM32F4xx_HAL_Driver/Src/stm32f4xx_ll_usb.c ****       {
 2440              		.loc 1 905 10 view .LVU845
 2441 020e 002A     		cmp	r2, #0
 2442 0210 3FF41DAF 		beq	.L157
 907:Drivers/STM32F4xx_HAL_Driver/Src/stm32f4xx_ll_usb.c ****       }
 2443              		.loc 1 907 9 is_stmt 1 view .LVU846
 907:Drivers/STM32F4xx_HAL_Driver/Src/stm32f4xx_ll_usb.c ****       }
 2444              		.loc 1 907 36 is_stmt 0 view .LVU847
 2445 0214 5A61     		str	r2, [r3, #20]
 2446 0216 1AE7     		b	.L157
 2447              	.L163:
 913:Drivers/STM32F4xx_HAL_Driver/Src/stm32f4xx_ll_usb.c ****       {
 2448              		.loc 1 913 7 is_stmt 1 view .LVU848
 913:Drivers/STM32F4xx_HAL_Driver/Src/stm32f4xx_ll_usb.c ****       {
ARM GAS  /tmp/cc0ThgoX.s 			page 83


 2449              		.loc 1 913 23 is_stmt 0 view .LVU849
 2450 0218 D0F80838 		ldr	r3, [r0, #2056]
 913:Drivers/STM32F4xx_HAL_Driver/Src/stm32f4xx_ll_usb.c ****       {
 2451              		.loc 1 913 10 view .LVU850
 2452 021c 13F4807F 		tst	r3, #256
 2453 0220 06D1     		bne	.L159
 915:Drivers/STM32F4xx_HAL_Driver/Src/stm32f4xx_ll_usb.c ****       }
 2454              		.loc 1 915 9 is_stmt 1 view .LVU851
 915:Drivers/STM32F4xx_HAL_Driver/Src/stm32f4xx_ll_usb.c ****       }
 2455              		.loc 1 915 26 is_stmt 0 view .LVU852
 2456 0222 DCF8003B 		ldr	r3, [ip, #2816]
 915:Drivers/STM32F4xx_HAL_Driver/Src/stm32f4xx_ll_usb.c ****       }
 2457              		.loc 1 915 36 view .LVU853
 2458 0226 43F00053 		orr	r3, r3, #536870912
 2459 022a CCF8003B 		str	r3, [ip, #2816]
 2460 022e 12E7     		b	.L158
 2461              	.L159:
 919:Drivers/STM32F4xx_HAL_Driver/Src/stm32f4xx_ll_usb.c ****       }
 2462              		.loc 1 919 9 is_stmt 1 view .LVU854
 919:Drivers/STM32F4xx_HAL_Driver/Src/stm32f4xx_ll_usb.c ****       }
 2463              		.loc 1 919 26 is_stmt 0 view .LVU855
 2464 0230 DCF8003B 		ldr	r3, [ip, #2816]
 919:Drivers/STM32F4xx_HAL_Driver/Src/stm32f4xx_ll_usb.c ****       }
 2465              		.loc 1 919 36 view .LVU856
 2466 0234 43F08053 		orr	r3, r3, #268435456
 2467 0238 CCF8003B 		str	r3, [ip, #2816]
 2468 023c 0BE7     		b	.L158
 2469              	.L167:
 2470 023e 00BF     		.align	2
 2471              	.L166:
 2472 0240 0000F81F 		.word	536346624
 2473              		.cfi_endproc
 2474              	.LFE148:
 2476              		.section	.text.USB_ReadPacket,"ax",%progbits
 2477              		.align	1
 2478              		.global	USB_ReadPacket
 2479              		.syntax unified
 2480              		.thumb
 2481              		.thumb_func
 2483              	USB_ReadPacket:
 2484              	.LVL162:
 2485              	.LFB151:
1032:Drivers/STM32F4xx_HAL_Driver/Src/stm32f4xx_ll_usb.c ****   uint32_t USBx_BASE = (uint32_t)USBx;
 2486              		.loc 1 1032 1 is_stmt 1 view -0
 2487              		.cfi_startproc
 2488              		@ args = 0, pretend = 0, frame = 0
 2489              		@ frame_needed = 0, uses_anonymous_args = 0
1032:Drivers/STM32F4xx_HAL_Driver/Src/stm32f4xx_ll_usb.c ****   uint32_t USBx_BASE = (uint32_t)USBx;
 2490              		.loc 1 1032 1 is_stmt 0 view .LVU858
 2491 0000 10B5     		push	{r4, lr}
 2492              	.LCFI34:
 2493              		.cfi_def_cfa_offset 8
 2494              		.cfi_offset 4, -8
 2495              		.cfi_offset 14, -4
 2496 0002 8446     		mov	ip, r0
 2497 0004 0846     		mov	r0, r1
 2498              	.LVL163:
ARM GAS  /tmp/cc0ThgoX.s 			page 84


1033:Drivers/STM32F4xx_HAL_Driver/Src/stm32f4xx_ll_usb.c ****   uint8_t *pDest = dest;
 2499              		.loc 1 1033 3 is_stmt 1 view .LVU859
1034:Drivers/STM32F4xx_HAL_Driver/Src/stm32f4xx_ll_usb.c ****   uint32_t pData;
 2500              		.loc 1 1034 3 view .LVU860
1035:Drivers/STM32F4xx_HAL_Driver/Src/stm32f4xx_ll_usb.c ****   uint32_t i;
 2501              		.loc 1 1035 3 view .LVU861
1036:Drivers/STM32F4xx_HAL_Driver/Src/stm32f4xx_ll_usb.c ****   uint32_t count32b = (uint32_t)len >> 2U;
 2502              		.loc 1 1036 3 view .LVU862
1037:Drivers/STM32F4xx_HAL_Driver/Src/stm32f4xx_ll_usb.c ****   uint16_t remaining_bytes = len % 4U;
 2503              		.loc 1 1037 3 view .LVU863
1037:Drivers/STM32F4xx_HAL_Driver/Src/stm32f4xx_ll_usb.c ****   uint16_t remaining_bytes = len % 4U;
 2504              		.loc 1 1037 37 is_stmt 0 view .LVU864
 2505 0006 4FEA920E 		lsr	lr, r2, #2
 2506              	.LVL164:
1038:Drivers/STM32F4xx_HAL_Driver/Src/stm32f4xx_ll_usb.c **** 
 2507              		.loc 1 1038 3 is_stmt 1 view .LVU865
1038:Drivers/STM32F4xx_HAL_Driver/Src/stm32f4xx_ll_usb.c **** 
 2508              		.loc 1 1038 12 is_stmt 0 view .LVU866
 2509 000a 02F00302 		and	r2, r2, #3
 2510              	.LVL165:
1040:Drivers/STM32F4xx_HAL_Driver/Src/stm32f4xx_ll_usb.c ****   {
 2511              		.loc 1 1040 3 is_stmt 1 view .LVU867
1040:Drivers/STM32F4xx_HAL_Driver/Src/stm32f4xx_ll_usb.c ****   {
 2512              		.loc 1 1040 10 is_stmt 0 view .LVU868
 2513 000e 0023     		movs	r3, #0
1040:Drivers/STM32F4xx_HAL_Driver/Src/stm32f4xx_ll_usb.c ****   {
 2514              		.loc 1 1040 3 view .LVU869
 2515 0010 05E0     		b	.L169
 2516              	.LVL166:
 2517              	.L170:
1042:Drivers/STM32F4xx_HAL_Driver/Src/stm32f4xx_ll_usb.c ****     pDest++;
 2518              		.loc 1 1042 5 is_stmt 1 view .LVU870
 2519 0012 0CF58051 		add	r1, ip, #4096
 2520 0016 0968     		ldr	r1, [r1]
 2521 0018 40F8041B 		str	r1, [r0], #4	@ unaligned
 2522              	.LVL167:
1043:Drivers/STM32F4xx_HAL_Driver/Src/stm32f4xx_ll_usb.c ****     pDest++;
 2523              		.loc 1 1043 5 view .LVU871
1044:Drivers/STM32F4xx_HAL_Driver/Src/stm32f4xx_ll_usb.c ****     pDest++;
 2524              		.loc 1 1044 5 view .LVU872
1045:Drivers/STM32F4xx_HAL_Driver/Src/stm32f4xx_ll_usb.c ****     pDest++;
 2525              		.loc 1 1045 5 view .LVU873
1046:Drivers/STM32F4xx_HAL_Driver/Src/stm32f4xx_ll_usb.c ****   }
 2526              		.loc 1 1046 5 view .LVU874
1040:Drivers/STM32F4xx_HAL_Driver/Src/stm32f4xx_ll_usb.c ****   {
 2527              		.loc 1 1040 31 discriminator 3 view .LVU875
 2528 001c 0133     		adds	r3, r3, #1
 2529              	.LVL168:
 2530              	.L169:
1040:Drivers/STM32F4xx_HAL_Driver/Src/stm32f4xx_ll_usb.c ****   {
 2531              		.loc 1 1040 18 discriminator 1 view .LVU876
 2532 001e 7345     		cmp	r3, lr
 2533 0020 F7D3     		bcc	.L170
1050:Drivers/STM32F4xx_HAL_Driver/Src/stm32f4xx_ll_usb.c ****   {
 2534              		.loc 1 1050 3 view .LVU877
1050:Drivers/STM32F4xx_HAL_Driver/Src/stm32f4xx_ll_usb.c ****   {
 2535              		.loc 1 1050 6 is_stmt 0 view .LVU878
ARM GAS  /tmp/cc0ThgoX.s 			page 85


 2536 0022 7AB1     		cbz	r2, .L171
1052:Drivers/STM32F4xx_HAL_Driver/Src/stm32f4xx_ll_usb.c ****     __UNALIGNED_UINT32_WRITE(&pData, USBx_DFIFO(0U));
 2537              		.loc 1 1052 5 is_stmt 1 view .LVU879
 2538              	.LVL169:
1053:Drivers/STM32F4xx_HAL_Driver/Src/stm32f4xx_ll_usb.c **** 
 2539              		.loc 1 1053 5 view .LVU880
 2540 0024 0CF5805C 		add	ip, ip, #4096
 2541              	.LVL170:
1053:Drivers/STM32F4xx_HAL_Driver/Src/stm32f4xx_ll_usb.c **** 
 2542              		.loc 1 1053 5 is_stmt 0 view .LVU881
 2543 0028 DCF80040 		ldr	r4, [ip]
1052:Drivers/STM32F4xx_HAL_Driver/Src/stm32f4xx_ll_usb.c ****     __UNALIGNED_UINT32_WRITE(&pData, USBx_DFIFO(0U));
 2544              		.loc 1 1052 7 view .LVU882
 2545 002c 0021     		movs	r1, #0
 2546              	.LVL171:
 2547              	.L172:
1055:Drivers/STM32F4xx_HAL_Driver/Src/stm32f4xx_ll_usb.c ****     {
 2548              		.loc 1 1055 5 is_stmt 1 view .LVU883
1057:Drivers/STM32F4xx_HAL_Driver/Src/stm32f4xx_ll_usb.c ****       i++;
 2549              		.loc 1 1057 7 view .LVU884
1057:Drivers/STM32F4xx_HAL_Driver/Src/stm32f4xx_ll_usb.c ****       i++;
 2550              		.loc 1 1057 50 is_stmt 0 view .LVU885
 2551 002e CBB2     		uxtb	r3, r1
 2552 0030 DB00     		lsls	r3, r3, #3
1057:Drivers/STM32F4xx_HAL_Driver/Src/stm32f4xx_ll_usb.c ****       i++;
 2553              		.loc 1 1057 43 view .LVU886
 2554 0032 24FA03F3 		lsr	r3, r4, r3
1057:Drivers/STM32F4xx_HAL_Driver/Src/stm32f4xx_ll_usb.c ****       i++;
 2555              		.loc 1 1057 25 view .LVU887
 2556 0036 00F8013B 		strb	r3, [r0], #1
 2557              	.LVL172:
1058:Drivers/STM32F4xx_HAL_Driver/Src/stm32f4xx_ll_usb.c ****       pDest++;
 2558              		.loc 1 1058 7 is_stmt 1 view .LVU888
1058:Drivers/STM32F4xx_HAL_Driver/Src/stm32f4xx_ll_usb.c ****       pDest++;
 2559              		.loc 1 1058 8 is_stmt 0 view .LVU889
 2560 003a 0131     		adds	r1, r1, #1
 2561              	.LVL173:
1059:Drivers/STM32F4xx_HAL_Driver/Src/stm32f4xx_ll_usb.c ****       remaining_bytes--;
 2562              		.loc 1 1059 7 is_stmt 1 view .LVU890
1060:Drivers/STM32F4xx_HAL_Driver/Src/stm32f4xx_ll_usb.c ****     } while (remaining_bytes != 0U);
 2563              		.loc 1 1060 7 view .LVU891
1060:Drivers/STM32F4xx_HAL_Driver/Src/stm32f4xx_ll_usb.c ****     } while (remaining_bytes != 0U);
 2564              		.loc 1 1060 22 is_stmt 0 view .LVU892
 2565 003c 013A     		subs	r2, r2, #1
 2566              	.LVL174:
1060:Drivers/STM32F4xx_HAL_Driver/Src/stm32f4xx_ll_usb.c ****     } while (remaining_bytes != 0U);
 2567              		.loc 1 1060 22 view .LVU893
 2568 003e 92B2     		uxth	r2, r2
 2569              	.LVL175:
1061:Drivers/STM32F4xx_HAL_Driver/Src/stm32f4xx_ll_usb.c ****   }
 2570              		.loc 1 1061 30 is_stmt 1 discriminator 1 view .LVU894
 2571 0040 002A     		cmp	r2, #0
 2572 0042 F4D1     		bne	.L172
 2573              	.LVL176:
 2574              	.L171:
1064:Drivers/STM32F4xx_HAL_Driver/Src/stm32f4xx_ll_usb.c **** }
 2575              		.loc 1 1064 3 view .LVU895
ARM GAS  /tmp/cc0ThgoX.s 			page 86


1065:Drivers/STM32F4xx_HAL_Driver/Src/stm32f4xx_ll_usb.c **** 
 2576              		.loc 1 1065 1 is_stmt 0 view .LVU896
 2577 0044 10BD     		pop	{r4, pc}
 2578              		.cfi_endproc
 2579              	.LFE151:
 2581              		.section	.text.USB_EPSetStall,"ax",%progbits
 2582              		.align	1
 2583              		.global	USB_EPSetStall
 2584              		.syntax unified
 2585              		.thumb
 2586              		.thumb_func
 2588              	USB_EPSetStall:
 2589              	.LVL177:
 2590              	.LFB152:
1074:Drivers/STM32F4xx_HAL_Driver/Src/stm32f4xx_ll_usb.c ****   uint32_t USBx_BASE = (uint32_t)USBx;
 2591              		.loc 1 1074 1 is_stmt 1 view -0
 2592              		.cfi_startproc
 2593              		@ args = 0, pretend = 0, frame = 0
 2594              		@ frame_needed = 0, uses_anonymous_args = 0
 2595              		@ link register save eliminated.
1075:Drivers/STM32F4xx_HAL_Driver/Src/stm32f4xx_ll_usb.c ****   uint32_t epnum = (uint32_t)ep->num;
 2596              		.loc 1 1075 3 view .LVU898
1076:Drivers/STM32F4xx_HAL_Driver/Src/stm32f4xx_ll_usb.c **** 
 2597              		.loc 1 1076 3 view .LVU899
1076:Drivers/STM32F4xx_HAL_Driver/Src/stm32f4xx_ll_usb.c **** 
 2598              		.loc 1 1076 32 is_stmt 0 view .LVU900
 2599 0000 0B78     		ldrb	r3, [r1]	@ zero_extendqisi2
 2600              	.LVL178:
1078:Drivers/STM32F4xx_HAL_Driver/Src/stm32f4xx_ll_usb.c ****   {
 2601              		.loc 1 1078 3 is_stmt 1 view .LVU901
1078:Drivers/STM32F4xx_HAL_Driver/Src/stm32f4xx_ll_usb.c ****   {
 2602              		.loc 1 1078 9 is_stmt 0 view .LVU902
 2603 0002 4A78     		ldrb	r2, [r1, #1]	@ zero_extendqisi2
1078:Drivers/STM32F4xx_HAL_Driver/Src/stm32f4xx_ll_usb.c ****   {
 2604              		.loc 1 1078 6 view .LVU903
 2605 0004 012A     		cmp	r2, #1
 2606 0006 14D0     		beq	.L179
1088:Drivers/STM32F4xx_HAL_Driver/Src/stm32f4xx_ll_usb.c ****     {
 2607              		.loc 1 1088 5 is_stmt 1 view .LVU904
1088:Drivers/STM32F4xx_HAL_Driver/Src/stm32f4xx_ll_usb.c ****     {
 2608              		.loc 1 1088 11 is_stmt 0 view .LVU905
 2609 0008 00EB4310 		add	r0, r0, r3, lsl #5
 2610              	.LVL179:
1088:Drivers/STM32F4xx_HAL_Driver/Src/stm32f4xx_ll_usb.c ****     {
 2611              		.loc 1 1088 28 view .LVU906
 2612 000c D0F8002B 		ldr	r2, [r0, #2816]
1088:Drivers/STM32F4xx_HAL_Driver/Src/stm32f4xx_ll_usb.c ****     {
 2613              		.loc 1 1088 8 view .LVU907
 2614 0010 002A     		cmp	r2, #0
 2615 0012 06DB     		blt	.L178
1088:Drivers/STM32F4xx_HAL_Driver/Src/stm32f4xx_ll_usb.c ****     {
 2616              		.loc 1 1088 70 discriminator 1 view .LVU908
 2617 0014 2BB1     		cbz	r3, .L178
1090:Drivers/STM32F4xx_HAL_Driver/Src/stm32f4xx_ll_usb.c ****     }
 2618              		.loc 1 1090 7 is_stmt 1 view .LVU909
1090:Drivers/STM32F4xx_HAL_Driver/Src/stm32f4xx_ll_usb.c ****     }
 2619              		.loc 1 1090 24 is_stmt 0 view .LVU910
ARM GAS  /tmp/cc0ThgoX.s 			page 87


 2620 0016 D0F8003B 		ldr	r3, [r0, #2816]
 2621              	.LVL180:
1090:Drivers/STM32F4xx_HAL_Driver/Src/stm32f4xx_ll_usb.c ****     }
 2622              		.loc 1 1090 34 view .LVU911
 2623 001a 23F08043 		bic	r3, r3, #1073741824
 2624 001e C0F8003B 		str	r3, [r0, #2816]
 2625              	.LVL181:
 2626              	.L178:
1092:Drivers/STM32F4xx_HAL_Driver/Src/stm32f4xx_ll_usb.c ****   }
 2627              		.loc 1 1092 5 is_stmt 1 view .LVU912
1092:Drivers/STM32F4xx_HAL_Driver/Src/stm32f4xx_ll_usb.c ****   }
 2628              		.loc 1 1092 22 is_stmt 0 view .LVU913
 2629 0022 D0F8003B 		ldr	r3, [r0, #2816]
1092:Drivers/STM32F4xx_HAL_Driver/Src/stm32f4xx_ll_usb.c ****   }
 2630              		.loc 1 1092 32 view .LVU914
 2631 0026 43F40013 		orr	r3, r3, #2097152
 2632 002a C0F8003B 		str	r3, [r0, #2816]
 2633              	.L177:
1095:Drivers/STM32F4xx_HAL_Driver/Src/stm32f4xx_ll_usb.c **** }
 2634              		.loc 1 1095 3 is_stmt 1 view .LVU915
1096:Drivers/STM32F4xx_HAL_Driver/Src/stm32f4xx_ll_usb.c **** 
 2635              		.loc 1 1096 1 is_stmt 0 view .LVU916
 2636 002e 0020     		movs	r0, #0
 2637 0030 7047     		bx	lr
 2638              	.LVL182:
 2639              	.L179:
1080:Drivers/STM32F4xx_HAL_Driver/Src/stm32f4xx_ll_usb.c ****     {
 2640              		.loc 1 1080 5 is_stmt 1 view .LVU917
1080:Drivers/STM32F4xx_HAL_Driver/Src/stm32f4xx_ll_usb.c ****     {
 2641              		.loc 1 1080 11 is_stmt 0 view .LVU918
 2642 0032 00EB4310 		add	r0, r0, r3, lsl #5
 2643              	.LVL183:
1080:Drivers/STM32F4xx_HAL_Driver/Src/stm32f4xx_ll_usb.c ****     {
 2644              		.loc 1 1080 27 view .LVU919
 2645 0036 D0F80029 		ldr	r2, [r0, #2304]
1080:Drivers/STM32F4xx_HAL_Driver/Src/stm32f4xx_ll_usb.c ****     {
 2646              		.loc 1 1080 8 view .LVU920
 2647 003a 002A     		cmp	r2, #0
 2648 003c 06DB     		blt	.L176
1080:Drivers/STM32F4xx_HAL_Driver/Src/stm32f4xx_ll_usb.c ****     {
 2649              		.loc 1 1080 69 discriminator 1 view .LVU921
 2650 003e 2BB1     		cbz	r3, .L176
1082:Drivers/STM32F4xx_HAL_Driver/Src/stm32f4xx_ll_usb.c ****     }
 2651              		.loc 1 1082 7 is_stmt 1 view .LVU922
1082:Drivers/STM32F4xx_HAL_Driver/Src/stm32f4xx_ll_usb.c ****     }
 2652              		.loc 1 1082 23 is_stmt 0 view .LVU923
 2653 0040 D0F80039 		ldr	r3, [r0, #2304]
 2654              	.LVL184:
1082:Drivers/STM32F4xx_HAL_Driver/Src/stm32f4xx_ll_usb.c ****     }
 2655              		.loc 1 1082 33 view .LVU924
 2656 0044 23F08043 		bic	r3, r3, #1073741824
 2657 0048 C0F80039 		str	r3, [r0, #2304]
 2658              	.LVL185:
 2659              	.L176:
1084:Drivers/STM32F4xx_HAL_Driver/Src/stm32f4xx_ll_usb.c ****   }
 2660              		.loc 1 1084 5 is_stmt 1 view .LVU925
1084:Drivers/STM32F4xx_HAL_Driver/Src/stm32f4xx_ll_usb.c ****   }
ARM GAS  /tmp/cc0ThgoX.s 			page 88


 2661              		.loc 1 1084 21 is_stmt 0 view .LVU926
 2662 004c D0F80039 		ldr	r3, [r0, #2304]
1084:Drivers/STM32F4xx_HAL_Driver/Src/stm32f4xx_ll_usb.c ****   }
 2663              		.loc 1 1084 31 view .LVU927
 2664 0050 43F40013 		orr	r3, r3, #2097152
 2665 0054 C0F80039 		str	r3, [r0, #2304]
 2666 0058 E9E7     		b	.L177
 2667              		.cfi_endproc
 2668              	.LFE152:
 2670              		.section	.text.USB_EPClearStall,"ax",%progbits
 2671              		.align	1
 2672              		.global	USB_EPClearStall
 2673              		.syntax unified
 2674              		.thumb
 2675              		.thumb_func
 2677              	USB_EPClearStall:
 2678              	.LVL186:
 2679              	.LFB153:
1105:Drivers/STM32F4xx_HAL_Driver/Src/stm32f4xx_ll_usb.c ****   uint32_t USBx_BASE = (uint32_t)USBx;
 2680              		.loc 1 1105 1 is_stmt 1 view -0
 2681              		.cfi_startproc
 2682              		@ args = 0, pretend = 0, frame = 0
 2683              		@ frame_needed = 0, uses_anonymous_args = 0
 2684              		@ link register save eliminated.
1106:Drivers/STM32F4xx_HAL_Driver/Src/stm32f4xx_ll_usb.c ****   uint32_t epnum = (uint32_t)ep->num;
 2685              		.loc 1 1106 3 view .LVU929
1107:Drivers/STM32F4xx_HAL_Driver/Src/stm32f4xx_ll_usb.c **** 
 2686              		.loc 1 1107 3 view .LVU930
1107:Drivers/STM32F4xx_HAL_Driver/Src/stm32f4xx_ll_usb.c **** 
 2687              		.loc 1 1107 32 is_stmt 0 view .LVU931
 2688 0000 0B78     		ldrb	r3, [r1]	@ zero_extendqisi2
 2689              	.LVL187:
1109:Drivers/STM32F4xx_HAL_Driver/Src/stm32f4xx_ll_usb.c ****   {
 2690              		.loc 1 1109 3 is_stmt 1 view .LVU932
1109:Drivers/STM32F4xx_HAL_Driver/Src/stm32f4xx_ll_usb.c ****   {
 2691              		.loc 1 1109 9 is_stmt 0 view .LVU933
 2692 0002 4A78     		ldrb	r2, [r1, #1]	@ zero_extendqisi2
1109:Drivers/STM32F4xx_HAL_Driver/Src/stm32f4xx_ll_usb.c ****   {
 2693              		.loc 1 1109 6 view .LVU934
 2694 0004 012A     		cmp	r2, #1
 2695 0006 0ED0     		beq	.L183
1119:Drivers/STM32F4xx_HAL_Driver/Src/stm32f4xx_ll_usb.c ****     if ((ep->type == EP_TYPE_INTR) || (ep->type == EP_TYPE_BULK))
 2696              		.loc 1 1119 5 is_stmt 1 view .LVU935
1119:Drivers/STM32F4xx_HAL_Driver/Src/stm32f4xx_ll_usb.c ****     if ((ep->type == EP_TYPE_INTR) || (ep->type == EP_TYPE_BULK))
 2697              		.loc 1 1119 22 is_stmt 0 view .LVU936
 2698 0008 00EB4310 		add	r0, r0, r3, lsl #5
 2699              	.LVL188:
1119:Drivers/STM32F4xx_HAL_Driver/Src/stm32f4xx_ll_usb.c ****     if ((ep->type == EP_TYPE_INTR) || (ep->type == EP_TYPE_BULK))
 2700              		.loc 1 1119 22 view .LVU937
 2701 000c D0F8003B 		ldr	r3, [r0, #2816]
 2702              	.LVL189:
1119:Drivers/STM32F4xx_HAL_Driver/Src/stm32f4xx_ll_usb.c ****     if ((ep->type == EP_TYPE_INTR) || (ep->type == EP_TYPE_BULK))
 2703              		.loc 1 1119 32 view .LVU938
 2704 0010 23F40013 		bic	r3, r3, #2097152
 2705 0014 C0F8003B 		str	r3, [r0, #2816]
 2706              	.LVL190:
1120:Drivers/STM32F4xx_HAL_Driver/Src/stm32f4xx_ll_usb.c ****     {
ARM GAS  /tmp/cc0ThgoX.s 			page 89


 2707              		.loc 1 1120 5 is_stmt 1 view .LVU939
1120:Drivers/STM32F4xx_HAL_Driver/Src/stm32f4xx_ll_usb.c ****     {
 2708              		.loc 1 1120 12 is_stmt 0 view .LVU940
 2709 0018 0B79     		ldrb	r3, [r1, #4]	@ zero_extendqisi2
1120:Drivers/STM32F4xx_HAL_Driver/Src/stm32f4xx_ll_usb.c ****     {
 2710              		.loc 1 1120 36 view .LVU941
 2711 001a 023B     		subs	r3, r3, #2
 2712 001c DBB2     		uxtb	r3, r3
1120:Drivers/STM32F4xx_HAL_Driver/Src/stm32f4xx_ll_usb.c ****     {
 2713              		.loc 1 1120 8 view .LVU942
 2714 001e 012B     		cmp	r3, #1
 2715 0020 15D9     		bls	.L184
 2716              	.L182:
1125:Drivers/STM32F4xx_HAL_Driver/Src/stm32f4xx_ll_usb.c **** }
 2717              		.loc 1 1125 3 is_stmt 1 view .LVU943
1126:Drivers/STM32F4xx_HAL_Driver/Src/stm32f4xx_ll_usb.c **** 
 2718              		.loc 1 1126 1 is_stmt 0 view .LVU944
 2719 0022 0020     		movs	r0, #0
 2720 0024 7047     		bx	lr
 2721              	.LVL191:
 2722              	.L183:
1111:Drivers/STM32F4xx_HAL_Driver/Src/stm32f4xx_ll_usb.c ****     if ((ep->type == EP_TYPE_INTR) || (ep->type == EP_TYPE_BULK))
 2723              		.loc 1 1111 5 is_stmt 1 view .LVU945
1111:Drivers/STM32F4xx_HAL_Driver/Src/stm32f4xx_ll_usb.c ****     if ((ep->type == EP_TYPE_INTR) || (ep->type == EP_TYPE_BULK))
 2724              		.loc 1 1111 21 is_stmt 0 view .LVU946
 2725 0026 00EB4310 		add	r0, r0, r3, lsl #5
 2726              	.LVL192:
1111:Drivers/STM32F4xx_HAL_Driver/Src/stm32f4xx_ll_usb.c ****     if ((ep->type == EP_TYPE_INTR) || (ep->type == EP_TYPE_BULK))
 2727              		.loc 1 1111 21 view .LVU947
 2728 002a D0F80039 		ldr	r3, [r0, #2304]
 2729              	.LVL193:
1111:Drivers/STM32F4xx_HAL_Driver/Src/stm32f4xx_ll_usb.c ****     if ((ep->type == EP_TYPE_INTR) || (ep->type == EP_TYPE_BULK))
 2730              		.loc 1 1111 31 view .LVU948
 2731 002e 23F40013 		bic	r3, r3, #2097152
 2732 0032 C0F80039 		str	r3, [r0, #2304]
 2733              	.LVL194:
1112:Drivers/STM32F4xx_HAL_Driver/Src/stm32f4xx_ll_usb.c ****     {
 2734              		.loc 1 1112 5 is_stmt 1 view .LVU949
1112:Drivers/STM32F4xx_HAL_Driver/Src/stm32f4xx_ll_usb.c ****     {
 2735              		.loc 1 1112 12 is_stmt 0 view .LVU950
 2736 0036 0B79     		ldrb	r3, [r1, #4]	@ zero_extendqisi2
1112:Drivers/STM32F4xx_HAL_Driver/Src/stm32f4xx_ll_usb.c ****     {
 2737              		.loc 1 1112 36 view .LVU951
 2738 0038 023B     		subs	r3, r3, #2
 2739 003a DBB2     		uxtb	r3, r3
1112:Drivers/STM32F4xx_HAL_Driver/Src/stm32f4xx_ll_usb.c ****     {
 2740              		.loc 1 1112 8 view .LVU952
 2741 003c 012B     		cmp	r3, #1
 2742 003e F0D8     		bhi	.L182
1114:Drivers/STM32F4xx_HAL_Driver/Src/stm32f4xx_ll_usb.c ****     }
 2743              		.loc 1 1114 7 is_stmt 1 view .LVU953
1114:Drivers/STM32F4xx_HAL_Driver/Src/stm32f4xx_ll_usb.c ****     }
 2744              		.loc 1 1114 23 is_stmt 0 view .LVU954
 2745 0040 D0F80039 		ldr	r3, [r0, #2304]
1114:Drivers/STM32F4xx_HAL_Driver/Src/stm32f4xx_ll_usb.c ****     }
 2746              		.loc 1 1114 33 view .LVU955
 2747 0044 43F08053 		orr	r3, r3, #268435456
ARM GAS  /tmp/cc0ThgoX.s 			page 90


 2748 0048 C0F80039 		str	r3, [r0, #2304]
 2749 004c E9E7     		b	.L182
 2750              	.L184:
1122:Drivers/STM32F4xx_HAL_Driver/Src/stm32f4xx_ll_usb.c ****     }
 2751              		.loc 1 1122 7 is_stmt 1 view .LVU956
1122:Drivers/STM32F4xx_HAL_Driver/Src/stm32f4xx_ll_usb.c ****     }
 2752              		.loc 1 1122 24 is_stmt 0 view .LVU957
 2753 004e D0F8003B 		ldr	r3, [r0, #2816]
1122:Drivers/STM32F4xx_HAL_Driver/Src/stm32f4xx_ll_usb.c ****     }
 2754              		.loc 1 1122 34 view .LVU958
 2755 0052 43F08053 		orr	r3, r3, #268435456
 2756 0056 C0F8003B 		str	r3, [r0, #2816]
 2757 005a E2E7     		b	.L182
 2758              		.cfi_endproc
 2759              	.LFE153:
 2761              		.section	.text.USB_StopDevice,"ax",%progbits
 2762              		.align	1
 2763              		.global	USB_StopDevice
 2764              		.syntax unified
 2765              		.thumb
 2766              		.thumb_func
 2768              	USB_StopDevice:
 2769              	.LVL195:
 2770              	.LFB154:
1134:Drivers/STM32F4xx_HAL_Driver/Src/stm32f4xx_ll_usb.c ****   HAL_StatusTypeDef ret;
 2771              		.loc 1 1134 1 is_stmt 1 view -0
 2772              		.cfi_startproc
 2773              		@ args = 0, pretend = 0, frame = 0
 2774              		@ frame_needed = 0, uses_anonymous_args = 0
1134:Drivers/STM32F4xx_HAL_Driver/Src/stm32f4xx_ll_usb.c ****   HAL_StatusTypeDef ret;
 2775              		.loc 1 1134 1 is_stmt 0 view .LVU960
 2776 0000 10B5     		push	{r4, lr}
 2777              	.LCFI35:
 2778              		.cfi_def_cfa_offset 8
 2779              		.cfi_offset 4, -8
 2780              		.cfi_offset 14, -4
 2781 0002 0446     		mov	r4, r0
1135:Drivers/STM32F4xx_HAL_Driver/Src/stm32f4xx_ll_usb.c ****   uint32_t USBx_BASE = (uint32_t)USBx;
 2782              		.loc 1 1135 3 is_stmt 1 view .LVU961
1136:Drivers/STM32F4xx_HAL_Driver/Src/stm32f4xx_ll_usb.c ****   uint32_t i;
 2783              		.loc 1 1136 3 view .LVU962
 2784              	.LVL196:
1137:Drivers/STM32F4xx_HAL_Driver/Src/stm32f4xx_ll_usb.c **** 
 2785              		.loc 1 1137 3 view .LVU963
1140:Drivers/STM32F4xx_HAL_Driver/Src/stm32f4xx_ll_usb.c ****   {
 2786              		.loc 1 1140 3 view .LVU964
1140:Drivers/STM32F4xx_HAL_Driver/Src/stm32f4xx_ll_usb.c ****   {
 2787              		.loc 1 1140 10 is_stmt 0 view .LVU965
 2788 0004 0022     		movs	r2, #0
1140:Drivers/STM32F4xx_HAL_Driver/Src/stm32f4xx_ll_usb.c ****   {
 2789              		.loc 1 1140 3 view .LVU966
 2790 0006 08E0     		b	.L186
 2791              	.LVL197:
 2792              	.L187:
1142:Drivers/STM32F4xx_HAL_Driver/Src/stm32f4xx_ll_usb.c ****     USBx_OUTEP(i)->DOEPINT = 0xFB7FU;
 2793              		.loc 1 1142 5 is_stmt 1 view .LVU967
 2794 0008 04EB4213 		add	r3, r4, r2, lsl #5
ARM GAS  /tmp/cc0ThgoX.s 			page 91


1142:Drivers/STM32F4xx_HAL_Driver/Src/stm32f4xx_ll_usb.c ****     USBx_OUTEP(i)->DOEPINT = 0xFB7FU;
 2795              		.loc 1 1142 27 is_stmt 0 view .LVU968
 2796 000c 4FF67F31 		movw	r1, #64383
 2797 0010 C3F80819 		str	r1, [r3, #2312]
1143:Drivers/STM32F4xx_HAL_Driver/Src/stm32f4xx_ll_usb.c ****   }
 2798              		.loc 1 1143 5 is_stmt 1 view .LVU969
1143:Drivers/STM32F4xx_HAL_Driver/Src/stm32f4xx_ll_usb.c ****   }
 2799              		.loc 1 1143 28 is_stmt 0 view .LVU970
 2800 0014 C3F8081B 		str	r1, [r3, #2824]
1140:Drivers/STM32F4xx_HAL_Driver/Src/stm32f4xx_ll_usb.c ****   {
 2801              		.loc 1 1140 26 is_stmt 1 discriminator 3 view .LVU971
 2802 0018 0132     		adds	r2, r2, #1
 2803              	.LVL198:
 2804              	.L186:
1140:Drivers/STM32F4xx_HAL_Driver/Src/stm32f4xx_ll_usb.c ****   {
 2805              		.loc 1 1140 18 discriminator 1 view .LVU972
 2806 001a 0E2A     		cmp	r2, #14
 2807 001c F4D9     		bls	.L187
1147:Drivers/STM32F4xx_HAL_Driver/Src/stm32f4xx_ll_usb.c ****   USBx_DEVICE->DOEPMSK  = 0U;
 2808              		.loc 1 1147 3 view .LVU973
1147:Drivers/STM32F4xx_HAL_Driver/Src/stm32f4xx_ll_usb.c ****   USBx_DEVICE->DOEPMSK  = 0U;
 2809              		.loc 1 1147 25 is_stmt 0 view .LVU974
 2810 001e 0022     		movs	r2, #0
 2811              	.LVL199:
1147:Drivers/STM32F4xx_HAL_Driver/Src/stm32f4xx_ll_usb.c ****   USBx_DEVICE->DOEPMSK  = 0U;
 2812              		.loc 1 1147 25 view .LVU975
 2813 0020 C4F81028 		str	r2, [r4, #2064]
1148:Drivers/STM32F4xx_HAL_Driver/Src/stm32f4xx_ll_usb.c ****   USBx_DEVICE->DAINTMSK = 0U;
 2814              		.loc 1 1148 3 is_stmt 1 view .LVU976
1148:Drivers/STM32F4xx_HAL_Driver/Src/stm32f4xx_ll_usb.c ****   USBx_DEVICE->DAINTMSK = 0U;
 2815              		.loc 1 1148 25 is_stmt 0 view .LVU977
 2816 0024 C4F81428 		str	r2, [r4, #2068]
1149:Drivers/STM32F4xx_HAL_Driver/Src/stm32f4xx_ll_usb.c **** 
 2817              		.loc 1 1149 3 is_stmt 1 view .LVU978
1149:Drivers/STM32F4xx_HAL_Driver/Src/stm32f4xx_ll_usb.c **** 
 2818              		.loc 1 1149 25 is_stmt 0 view .LVU979
 2819 0028 C4F81C28 		str	r2, [r4, #2076]
1152:Drivers/STM32F4xx_HAL_Driver/Src/stm32f4xx_ll_usb.c ****   if (ret != HAL_OK)
 2820              		.loc 1 1152 3 is_stmt 1 view .LVU980
1152:Drivers/STM32F4xx_HAL_Driver/Src/stm32f4xx_ll_usb.c ****   if (ret != HAL_OK)
 2821              		.loc 1 1152 9 is_stmt 0 view .LVU981
 2822 002c 2046     		mov	r0, r4
 2823              	.LVL200:
1152:Drivers/STM32F4xx_HAL_Driver/Src/stm32f4xx_ll_usb.c ****   if (ret != HAL_OK)
 2824              		.loc 1 1152 9 view .LVU982
 2825 002e FFF7FEFF 		bl	USB_FlushRxFifo
 2826              	.LVL201:
1153:Drivers/STM32F4xx_HAL_Driver/Src/stm32f4xx_ll_usb.c ****   {
 2827              		.loc 1 1153 3 is_stmt 1 view .LVU983
1153:Drivers/STM32F4xx_HAL_Driver/Src/stm32f4xx_ll_usb.c ****   {
 2828              		.loc 1 1153 6 is_stmt 0 view .LVU984
 2829 0032 00B1     		cbz	r0, .L190
 2830              	.L188:
1165:Drivers/STM32F4xx_HAL_Driver/Src/stm32f4xx_ll_usb.c **** 
 2831              		.loc 1 1165 1 view .LVU985
 2832 0034 10BD     		pop	{r4, pc}
 2833              	.LVL202:
ARM GAS  /tmp/cc0ThgoX.s 			page 92


 2834              	.L190:
1158:Drivers/STM32F4xx_HAL_Driver/Src/stm32f4xx_ll_usb.c ****   if (ret != HAL_OK)
 2835              		.loc 1 1158 3 is_stmt 1 view .LVU986
1158:Drivers/STM32F4xx_HAL_Driver/Src/stm32f4xx_ll_usb.c ****   if (ret != HAL_OK)
 2836              		.loc 1 1158 9 is_stmt 0 view .LVU987
 2837 0036 1021     		movs	r1, #16
 2838 0038 2046     		mov	r0, r4
 2839              	.LVL203:
1158:Drivers/STM32F4xx_HAL_Driver/Src/stm32f4xx_ll_usb.c ****   if (ret != HAL_OK)
 2840              		.loc 1 1158 9 view .LVU988
 2841 003a FFF7FEFF 		bl	USB_FlushTxFifo
 2842              	.LVL204:
1159:Drivers/STM32F4xx_HAL_Driver/Src/stm32f4xx_ll_usb.c ****   {
 2843              		.loc 1 1159 3 is_stmt 1 view .LVU989
1161:Drivers/STM32F4xx_HAL_Driver/Src/stm32f4xx_ll_usb.c ****   }
 2844              		.loc 1 1161 5 view .LVU990
 2845 003e F9E7     		b	.L188
 2846              		.cfi_endproc
 2847              	.LFE154:
 2849              		.section	.text.USB_SetDevAddress,"ax",%progbits
 2850              		.align	1
 2851              		.global	USB_SetDevAddress
 2852              		.syntax unified
 2853              		.thumb
 2854              		.thumb_func
 2856              	USB_SetDevAddress:
 2857              	.LVL205:
 2858              	.LFB155:
1175:Drivers/STM32F4xx_HAL_Driver/Src/stm32f4xx_ll_usb.c ****   uint32_t USBx_BASE = (uint32_t)USBx;
 2859              		.loc 1 1175 1 view -0
 2860              		.cfi_startproc
 2861              		@ args = 0, pretend = 0, frame = 0
 2862              		@ frame_needed = 0, uses_anonymous_args = 0
 2863              		@ link register save eliminated.
1176:Drivers/STM32F4xx_HAL_Driver/Src/stm32f4xx_ll_usb.c **** 
 2864              		.loc 1 1176 3 view .LVU992
1178:Drivers/STM32F4xx_HAL_Driver/Src/stm32f4xx_ll_usb.c ****   USBx_DEVICE->DCFG |= ((uint32_t)address << 4) & USB_OTG_DCFG_DAD;
 2865              		.loc 1 1178 3 view .LVU993
1178:Drivers/STM32F4xx_HAL_Driver/Src/stm32f4xx_ll_usb.c ****   USBx_DEVICE->DCFG |= ((uint32_t)address << 4) & USB_OTG_DCFG_DAD;
 2866              		.loc 1 1178 14 is_stmt 0 view .LVU994
 2867 0000 D0F80038 		ldr	r3, [r0, #2048]
1178:Drivers/STM32F4xx_HAL_Driver/Src/stm32f4xx_ll_usb.c ****   USBx_DEVICE->DCFG |= ((uint32_t)address << 4) & USB_OTG_DCFG_DAD;
 2868              		.loc 1 1178 21 view .LVU995
 2869 0004 23F4FE63 		bic	r3, r3, #2032
 2870 0008 C0F80038 		str	r3, [r0, #2048]
1179:Drivers/STM32F4xx_HAL_Driver/Src/stm32f4xx_ll_usb.c **** 
 2871              		.loc 1 1179 3 is_stmt 1 view .LVU996
1179:Drivers/STM32F4xx_HAL_Driver/Src/stm32f4xx_ll_usb.c **** 
 2872              		.loc 1 1179 14 is_stmt 0 view .LVU997
 2873 000c D0F80038 		ldr	r3, [r0, #2048]
1179:Drivers/STM32F4xx_HAL_Driver/Src/stm32f4xx_ll_usb.c **** 
 2874              		.loc 1 1179 43 view .LVU998
 2875 0010 0901     		lsls	r1, r1, #4
 2876              	.LVL206:
1179:Drivers/STM32F4xx_HAL_Driver/Src/stm32f4xx_ll_usb.c **** 
 2877              		.loc 1 1179 49 view .LVU999
 2878 0012 01F4FE61 		and	r1, r1, #2032
ARM GAS  /tmp/cc0ThgoX.s 			page 93


1179:Drivers/STM32F4xx_HAL_Driver/Src/stm32f4xx_ll_usb.c **** 
 2879              		.loc 1 1179 21 view .LVU1000
 2880 0016 0B43     		orrs	r3, r3, r1
 2881 0018 C0F80038 		str	r3, [r0, #2048]
1181:Drivers/STM32F4xx_HAL_Driver/Src/stm32f4xx_ll_usb.c **** }
 2882              		.loc 1 1181 3 is_stmt 1 view .LVU1001
1182:Drivers/STM32F4xx_HAL_Driver/Src/stm32f4xx_ll_usb.c **** 
 2883              		.loc 1 1182 1 is_stmt 0 view .LVU1002
 2884 001c 0020     		movs	r0, #0
 2885              	.LVL207:
1182:Drivers/STM32F4xx_HAL_Driver/Src/stm32f4xx_ll_usb.c **** 
 2886              		.loc 1 1182 1 view .LVU1003
 2887 001e 7047     		bx	lr
 2888              		.cfi_endproc
 2889              	.LFE155:
 2891              		.section	.text.USB_DevConnect,"ax",%progbits
 2892              		.align	1
 2893              		.global	USB_DevConnect
 2894              		.syntax unified
 2895              		.thumb
 2896              		.thumb_func
 2898              	USB_DevConnect:
 2899              	.LVL208:
 2900              	.LFB156:
1190:Drivers/STM32F4xx_HAL_Driver/Src/stm32f4xx_ll_usb.c ****   uint32_t USBx_BASE = (uint32_t)USBx;
 2901              		.loc 1 1190 1 is_stmt 1 view -0
 2902              		.cfi_startproc
 2903              		@ args = 0, pretend = 0, frame = 0
 2904              		@ frame_needed = 0, uses_anonymous_args = 0
 2905              		@ link register save eliminated.
1191:Drivers/STM32F4xx_HAL_Driver/Src/stm32f4xx_ll_usb.c **** 
 2906              		.loc 1 1191 3 view .LVU1005
1194:Drivers/STM32F4xx_HAL_Driver/Src/stm32f4xx_ll_usb.c **** 
 2907              		.loc 1 1194 3 view .LVU1006
 2908 0000 D0F8003E 		ldr	r3, [r0, #3584]
1194:Drivers/STM32F4xx_HAL_Driver/Src/stm32f4xx_ll_usb.c **** 
 2909              		.loc 1 1194 16 is_stmt 0 view .LVU1007
 2910 0004 23F00303 		bic	r3, r3, #3
 2911 0008 C0F8003E 		str	r3, [r0, #3584]
1196:Drivers/STM32F4xx_HAL_Driver/Src/stm32f4xx_ll_usb.c **** 
 2912              		.loc 1 1196 3 is_stmt 1 view .LVU1008
1196:Drivers/STM32F4xx_HAL_Driver/Src/stm32f4xx_ll_usb.c **** 
 2913              		.loc 1 1196 14 is_stmt 0 view .LVU1009
 2914 000c D0F80438 		ldr	r3, [r0, #2052]
1196:Drivers/STM32F4xx_HAL_Driver/Src/stm32f4xx_ll_usb.c **** 
 2915              		.loc 1 1196 21 view .LVU1010
 2916 0010 23F00203 		bic	r3, r3, #2
 2917 0014 C0F80438 		str	r3, [r0, #2052]
1198:Drivers/STM32F4xx_HAL_Driver/Src/stm32f4xx_ll_usb.c **** }
 2918              		.loc 1 1198 3 is_stmt 1 view .LVU1011
1199:Drivers/STM32F4xx_HAL_Driver/Src/stm32f4xx_ll_usb.c **** 
 2919              		.loc 1 1199 1 is_stmt 0 view .LVU1012
 2920 0018 0020     		movs	r0, #0
 2921              	.LVL209:
1199:Drivers/STM32F4xx_HAL_Driver/Src/stm32f4xx_ll_usb.c **** 
 2922              		.loc 1 1199 1 view .LVU1013
 2923 001a 7047     		bx	lr
ARM GAS  /tmp/cc0ThgoX.s 			page 94


 2924              		.cfi_endproc
 2925              	.LFE156:
 2927              		.section	.text.USB_DevDisconnect,"ax",%progbits
 2928              		.align	1
 2929              		.global	USB_DevDisconnect
 2930              		.syntax unified
 2931              		.thumb
 2932              		.thumb_func
 2934              	USB_DevDisconnect:
 2935              	.LVL210:
 2936              	.LFB157:
1207:Drivers/STM32F4xx_HAL_Driver/Src/stm32f4xx_ll_usb.c ****   uint32_t USBx_BASE = (uint32_t)USBx;
 2937              		.loc 1 1207 1 is_stmt 1 view -0
 2938              		.cfi_startproc
 2939              		@ args = 0, pretend = 0, frame = 0
 2940              		@ frame_needed = 0, uses_anonymous_args = 0
 2941              		@ link register save eliminated.
1208:Drivers/STM32F4xx_HAL_Driver/Src/stm32f4xx_ll_usb.c **** 
 2942              		.loc 1 1208 3 view .LVU1015
1211:Drivers/STM32F4xx_HAL_Driver/Src/stm32f4xx_ll_usb.c **** 
 2943              		.loc 1 1211 3 view .LVU1016
 2944 0000 D0F8003E 		ldr	r3, [r0, #3584]
1211:Drivers/STM32F4xx_HAL_Driver/Src/stm32f4xx_ll_usb.c **** 
 2945              		.loc 1 1211 16 is_stmt 0 view .LVU1017
 2946 0004 23F00303 		bic	r3, r3, #3
 2947 0008 C0F8003E 		str	r3, [r0, #3584]
1213:Drivers/STM32F4xx_HAL_Driver/Src/stm32f4xx_ll_usb.c **** 
 2948              		.loc 1 1213 3 is_stmt 1 view .LVU1018
1213:Drivers/STM32F4xx_HAL_Driver/Src/stm32f4xx_ll_usb.c **** 
 2949              		.loc 1 1213 14 is_stmt 0 view .LVU1019
 2950 000c D0F80438 		ldr	r3, [r0, #2052]
1213:Drivers/STM32F4xx_HAL_Driver/Src/stm32f4xx_ll_usb.c **** 
 2951              		.loc 1 1213 21 view .LVU1020
 2952 0010 43F00203 		orr	r3, r3, #2
 2953 0014 C0F80438 		str	r3, [r0, #2052]
1215:Drivers/STM32F4xx_HAL_Driver/Src/stm32f4xx_ll_usb.c **** }
 2954              		.loc 1 1215 3 is_stmt 1 view .LVU1021
1216:Drivers/STM32F4xx_HAL_Driver/Src/stm32f4xx_ll_usb.c **** 
 2955              		.loc 1 1216 1 is_stmt 0 view .LVU1022
 2956 0018 0020     		movs	r0, #0
 2957              	.LVL211:
1216:Drivers/STM32F4xx_HAL_Driver/Src/stm32f4xx_ll_usb.c **** 
 2958              		.loc 1 1216 1 view .LVU1023
 2959 001a 7047     		bx	lr
 2960              		.cfi_endproc
 2961              	.LFE157:
 2963              		.section	.text.USB_ReadInterrupts,"ax",%progbits
 2964              		.align	1
 2965              		.global	USB_ReadInterrupts
 2966              		.syntax unified
 2967              		.thumb
 2968              		.thumb_func
 2970              	USB_ReadInterrupts:
 2971              	.LVL212:
 2972              	.LFB158:
1224:Drivers/STM32F4xx_HAL_Driver/Src/stm32f4xx_ll_usb.c ****   uint32_t tmpreg;
 2973              		.loc 1 1224 1 is_stmt 1 view -0
ARM GAS  /tmp/cc0ThgoX.s 			page 95


 2974              		.cfi_startproc
 2975              		@ args = 0, pretend = 0, frame = 0
 2976              		@ frame_needed = 0, uses_anonymous_args = 0
 2977              		@ link register save eliminated.
1225:Drivers/STM32F4xx_HAL_Driver/Src/stm32f4xx_ll_usb.c **** 
 2978              		.loc 1 1225 3 view .LVU1025
1227:Drivers/STM32F4xx_HAL_Driver/Src/stm32f4xx_ll_usb.c ****   tmpreg &= USBx->GINTMSK;
 2979              		.loc 1 1227 3 view .LVU1026
1227:Drivers/STM32F4xx_HAL_Driver/Src/stm32f4xx_ll_usb.c ****   tmpreg &= USBx->GINTMSK;
 2980              		.loc 1 1227 10 is_stmt 0 view .LVU1027
 2981 0000 4269     		ldr	r2, [r0, #20]
 2982              	.LVL213:
1228:Drivers/STM32F4xx_HAL_Driver/Src/stm32f4xx_ll_usb.c **** 
 2983              		.loc 1 1228 3 is_stmt 1 view .LVU1028
1228:Drivers/STM32F4xx_HAL_Driver/Src/stm32f4xx_ll_usb.c **** 
 2984              		.loc 1 1228 17 is_stmt 0 view .LVU1029
 2985 0002 8069     		ldr	r0, [r0, #24]
 2986              	.LVL214:
1230:Drivers/STM32F4xx_HAL_Driver/Src/stm32f4xx_ll_usb.c **** }
 2987              		.loc 1 1230 3 is_stmt 1 view .LVU1030
1231:Drivers/STM32F4xx_HAL_Driver/Src/stm32f4xx_ll_usb.c **** 
 2988              		.loc 1 1231 1 is_stmt 0 view .LVU1031
 2989 0004 1040     		ands	r0, r0, r2
 2990              	.LVL215:
1231:Drivers/STM32F4xx_HAL_Driver/Src/stm32f4xx_ll_usb.c **** 
 2991              		.loc 1 1231 1 view .LVU1032
 2992 0006 7047     		bx	lr
 2993              		.cfi_endproc
 2994              	.LFE158:
 2996              		.section	.text.USB_ReadChInterrupts,"ax",%progbits
 2997              		.align	1
 2998              		.global	USB_ReadChInterrupts
 2999              		.syntax unified
 3000              		.thumb
 3001              		.thumb_func
 3003              	USB_ReadChInterrupts:
 3004              	.LVL216:
 3005              	.LFB159:
1240:Drivers/STM32F4xx_HAL_Driver/Src/stm32f4xx_ll_usb.c ****   uint32_t USBx_BASE = (uint32_t)USBx;
 3006              		.loc 1 1240 1 is_stmt 1 view -0
 3007              		.cfi_startproc
 3008              		@ args = 0, pretend = 0, frame = 0
 3009              		@ frame_needed = 0, uses_anonymous_args = 0
 3010              		@ link register save eliminated.
1241:Drivers/STM32F4xx_HAL_Driver/Src/stm32f4xx_ll_usb.c ****   uint32_t tmpreg;
 3011              		.loc 1 1241 3 view .LVU1034
1242:Drivers/STM32F4xx_HAL_Driver/Src/stm32f4xx_ll_usb.c **** 
 3012              		.loc 1 1242 3 view .LVU1035
1244:Drivers/STM32F4xx_HAL_Driver/Src/stm32f4xx_ll_usb.c ****   tmpreg &= USBx_HC(chnum)->HCINTMSK;
 3013              		.loc 1 1244 3 view .LVU1036
1244:Drivers/STM32F4xx_HAL_Driver/Src/stm32f4xx_ll_usb.c ****   tmpreg &= USBx_HC(chnum)->HCINTMSK;
 3014              		.loc 1 1244 12 is_stmt 0 view .LVU1037
 3015 0000 00EB4110 		add	r0, r0, r1, lsl #5
 3016              	.LVL217:
1244:Drivers/STM32F4xx_HAL_Driver/Src/stm32f4xx_ll_usb.c ****   tmpreg &= USBx_HC(chnum)->HCINTMSK;
 3017              		.loc 1 1244 12 view .LVU1038
 3018 0004 00F5A063 		add	r3, r0, #1280
ARM GAS  /tmp/cc0ThgoX.s 			page 96


1244:Drivers/STM32F4xx_HAL_Driver/Src/stm32f4xx_ll_usb.c ****   tmpreg &= USBx_HC(chnum)->HCINTMSK;
 3019              		.loc 1 1244 10 view .LVU1039
 3020 0008 D0F80805 		ldr	r0, [r0, #1288]
 3021              	.LVL218:
1245:Drivers/STM32F4xx_HAL_Driver/Src/stm32f4xx_ll_usb.c **** 
 3022              		.loc 1 1245 3 is_stmt 1 view .LVU1040
1245:Drivers/STM32F4xx_HAL_Driver/Src/stm32f4xx_ll_usb.c **** 
 3023              		.loc 1 1245 27 is_stmt 0 view .LVU1041
 3024 000c DB68     		ldr	r3, [r3, #12]
 3025              	.LVL219:
1247:Drivers/STM32F4xx_HAL_Driver/Src/stm32f4xx_ll_usb.c **** }
 3026              		.loc 1 1247 3 is_stmt 1 view .LVU1042
1248:Drivers/STM32F4xx_HAL_Driver/Src/stm32f4xx_ll_usb.c **** 
 3027              		.loc 1 1248 1 is_stmt 0 view .LVU1043
 3028 000e 1840     		ands	r0, r0, r3
 3029              	.LVL220:
1248:Drivers/STM32F4xx_HAL_Driver/Src/stm32f4xx_ll_usb.c **** 
 3030              		.loc 1 1248 1 view .LVU1044
 3031 0010 7047     		bx	lr
 3032              		.cfi_endproc
 3033              	.LFE159:
 3035              		.section	.text.USB_ReadDevAllOutEpInterrupt,"ax",%progbits
 3036              		.align	1
 3037              		.global	USB_ReadDevAllOutEpInterrupt
 3038              		.syntax unified
 3039              		.thumb
 3040              		.thumb_func
 3042              	USB_ReadDevAllOutEpInterrupt:
 3043              	.LVL221:
 3044              	.LFB160:
1256:Drivers/STM32F4xx_HAL_Driver/Src/stm32f4xx_ll_usb.c ****   uint32_t USBx_BASE = (uint32_t)USBx;
 3045              		.loc 1 1256 1 is_stmt 1 view -0
 3046              		.cfi_startproc
 3047              		@ args = 0, pretend = 0, frame = 0
 3048              		@ frame_needed = 0, uses_anonymous_args = 0
 3049              		@ link register save eliminated.
1257:Drivers/STM32F4xx_HAL_Driver/Src/stm32f4xx_ll_usb.c ****   uint32_t tmpreg;
 3050              		.loc 1 1257 3 view .LVU1046
1258:Drivers/STM32F4xx_HAL_Driver/Src/stm32f4xx_ll_usb.c **** 
 3051              		.loc 1 1258 3 view .LVU1047
1260:Drivers/STM32F4xx_HAL_Driver/Src/stm32f4xx_ll_usb.c ****   tmpreg &= USBx_DEVICE->DAINTMSK;
 3052              		.loc 1 1260 3 view .LVU1048
1260:Drivers/STM32F4xx_HAL_Driver/Src/stm32f4xx_ll_usb.c ****   tmpreg &= USBx_DEVICE->DAINTMSK;
 3053              		.loc 1 1260 11 is_stmt 0 view .LVU1049
 3054 0000 D0F81838 		ldr	r3, [r0, #2072]
1260:Drivers/STM32F4xx_HAL_Driver/Src/stm32f4xx_ll_usb.c ****   tmpreg &= USBx_DEVICE->DAINTMSK;
 3055              		.loc 1 1260 13 view .LVU1050
 3056 0004 00F50060 		add	r0, r0, #2048
 3057              	.LVL222:
1261:Drivers/STM32F4xx_HAL_Driver/Src/stm32f4xx_ll_usb.c **** 
 3058              		.loc 1 1261 3 is_stmt 1 view .LVU1051
1261:Drivers/STM32F4xx_HAL_Driver/Src/stm32f4xx_ll_usb.c **** 
 3059              		.loc 1 1261 24 is_stmt 0 view .LVU1052
 3060 0008 C069     		ldr	r0, [r0, #28]
 3061              	.LVL223:
1261:Drivers/STM32F4xx_HAL_Driver/Src/stm32f4xx_ll_usb.c **** 
 3062              		.loc 1 1261 10 view .LVU1053
ARM GAS  /tmp/cc0ThgoX.s 			page 97


 3063 000a 1840     		ands	r0, r0, r3
 3064              	.LVL224:
1263:Drivers/STM32F4xx_HAL_Driver/Src/stm32f4xx_ll_usb.c **** }
 3065              		.loc 1 1263 3 is_stmt 1 view .LVU1054
1264:Drivers/STM32F4xx_HAL_Driver/Src/stm32f4xx_ll_usb.c **** 
 3066              		.loc 1 1264 1 is_stmt 0 view .LVU1055
 3067 000c 000C     		lsrs	r0, r0, #16
 3068              	.LVL225:
1264:Drivers/STM32F4xx_HAL_Driver/Src/stm32f4xx_ll_usb.c **** 
 3069              		.loc 1 1264 1 view .LVU1056
 3070 000e 7047     		bx	lr
 3071              		.cfi_endproc
 3072              	.LFE160:
 3074              		.section	.text.USB_ReadDevAllInEpInterrupt,"ax",%progbits
 3075              		.align	1
 3076              		.global	USB_ReadDevAllInEpInterrupt
 3077              		.syntax unified
 3078              		.thumb
 3079              		.thumb_func
 3081              	USB_ReadDevAllInEpInterrupt:
 3082              	.LVL226:
 3083              	.LFB161:
1272:Drivers/STM32F4xx_HAL_Driver/Src/stm32f4xx_ll_usb.c ****   uint32_t USBx_BASE = (uint32_t)USBx;
 3084              		.loc 1 1272 1 is_stmt 1 view -0
 3085              		.cfi_startproc
 3086              		@ args = 0, pretend = 0, frame = 0
 3087              		@ frame_needed = 0, uses_anonymous_args = 0
 3088              		@ link register save eliminated.
1273:Drivers/STM32F4xx_HAL_Driver/Src/stm32f4xx_ll_usb.c ****   uint32_t tmpreg;
 3089              		.loc 1 1273 3 view .LVU1058
1274:Drivers/STM32F4xx_HAL_Driver/Src/stm32f4xx_ll_usb.c **** 
 3090              		.loc 1 1274 3 view .LVU1059
1276:Drivers/STM32F4xx_HAL_Driver/Src/stm32f4xx_ll_usb.c ****   tmpreg &= USBx_DEVICE->DAINTMSK;
 3091              		.loc 1 1276 3 view .LVU1060
1276:Drivers/STM32F4xx_HAL_Driver/Src/stm32f4xx_ll_usb.c ****   tmpreg &= USBx_DEVICE->DAINTMSK;
 3092              		.loc 1 1276 11 is_stmt 0 view .LVU1061
 3093 0000 D0F81838 		ldr	r3, [r0, #2072]
1276:Drivers/STM32F4xx_HAL_Driver/Src/stm32f4xx_ll_usb.c ****   tmpreg &= USBx_DEVICE->DAINTMSK;
 3094              		.loc 1 1276 13 view .LVU1062
 3095 0004 00F50060 		add	r0, r0, #2048
 3096              	.LVL227:
1277:Drivers/STM32F4xx_HAL_Driver/Src/stm32f4xx_ll_usb.c **** 
 3097              		.loc 1 1277 3 is_stmt 1 view .LVU1063
1277:Drivers/STM32F4xx_HAL_Driver/Src/stm32f4xx_ll_usb.c **** 
 3098              		.loc 1 1277 24 is_stmt 0 view .LVU1064
 3099 0008 C069     		ldr	r0, [r0, #28]
 3100              	.LVL228:
1277:Drivers/STM32F4xx_HAL_Driver/Src/stm32f4xx_ll_usb.c **** 
 3101              		.loc 1 1277 10 view .LVU1065
 3102 000a 1840     		ands	r0, r0, r3
 3103              	.LVL229:
1279:Drivers/STM32F4xx_HAL_Driver/Src/stm32f4xx_ll_usb.c **** }
 3104              		.loc 1 1279 3 is_stmt 1 view .LVU1066
1280:Drivers/STM32F4xx_HAL_Driver/Src/stm32f4xx_ll_usb.c **** 
 3105              		.loc 1 1280 1 is_stmt 0 view .LVU1067
 3106 000c 80B2     		uxth	r0, r0
 3107              	.LVL230:
ARM GAS  /tmp/cc0ThgoX.s 			page 98


1280:Drivers/STM32F4xx_HAL_Driver/Src/stm32f4xx_ll_usb.c **** 
 3108              		.loc 1 1280 1 view .LVU1068
 3109 000e 7047     		bx	lr
 3110              		.cfi_endproc
 3111              	.LFE161:
 3113              		.section	.text.USB_ReadDevOutEPInterrupt,"ax",%progbits
 3114              		.align	1
 3115              		.global	USB_ReadDevOutEPInterrupt
 3116              		.syntax unified
 3117              		.thumb
 3118              		.thumb_func
 3120              	USB_ReadDevOutEPInterrupt:
 3121              	.LVL231:
 3122              	.LFB162:
1290:Drivers/STM32F4xx_HAL_Driver/Src/stm32f4xx_ll_usb.c ****   uint32_t USBx_BASE = (uint32_t)USBx;
 3123              		.loc 1 1290 1 is_stmt 1 view -0
 3124              		.cfi_startproc
 3125              		@ args = 0, pretend = 0, frame = 0
 3126              		@ frame_needed = 0, uses_anonymous_args = 0
 3127              		@ link register save eliminated.
1291:Drivers/STM32F4xx_HAL_Driver/Src/stm32f4xx_ll_usb.c ****   uint32_t tmpreg;
 3128              		.loc 1 1291 3 view .LVU1070
1292:Drivers/STM32F4xx_HAL_Driver/Src/stm32f4xx_ll_usb.c **** 
 3129              		.loc 1 1292 3 view .LVU1071
1294:Drivers/STM32F4xx_HAL_Driver/Src/stm32f4xx_ll_usb.c ****   tmpreg &= USBx_DEVICE->DOEPMSK;
 3130              		.loc 1 1294 3 view .LVU1072
1294:Drivers/STM32F4xx_HAL_Driver/Src/stm32f4xx_ll_usb.c ****   tmpreg &= USBx_DEVICE->DOEPMSK;
 3131              		.loc 1 1294 13 is_stmt 0 view .LVU1073
 3132 0000 00EB4111 		add	r1, r0, r1, lsl #5
 3133              	.LVL232:
1294:Drivers/STM32F4xx_HAL_Driver/Src/stm32f4xx_ll_usb.c ****   tmpreg &= USBx_DEVICE->DOEPMSK;
 3134              		.loc 1 1294 11 view .LVU1074
 3135 0004 D1F8082B 		ldr	r2, [r1, #2824]
 3136              	.LVL233:
1295:Drivers/STM32F4xx_HAL_Driver/Src/stm32f4xx_ll_usb.c **** 
 3137              		.loc 1 1295 3 is_stmt 1 view .LVU1075
1295:Drivers/STM32F4xx_HAL_Driver/Src/stm32f4xx_ll_usb.c **** 
 3138              		.loc 1 1295 13 is_stmt 0 view .LVU1076
 3139 0008 00F50060 		add	r0, r0, #2048
 3140              	.LVL234:
1295:Drivers/STM32F4xx_HAL_Driver/Src/stm32f4xx_ll_usb.c **** 
 3141              		.loc 1 1295 24 view .LVU1077
 3142 000c 4069     		ldr	r0, [r0, #20]
 3143              	.LVL235:
1297:Drivers/STM32F4xx_HAL_Driver/Src/stm32f4xx_ll_usb.c **** }
 3144              		.loc 1 1297 3 is_stmt 1 view .LVU1078
1298:Drivers/STM32F4xx_HAL_Driver/Src/stm32f4xx_ll_usb.c **** 
 3145              		.loc 1 1298 1 is_stmt 0 view .LVU1079
 3146 000e 1040     		ands	r0, r0, r2
 3147              	.LVL236:
1298:Drivers/STM32F4xx_HAL_Driver/Src/stm32f4xx_ll_usb.c **** 
 3148              		.loc 1 1298 1 view .LVU1080
 3149 0010 7047     		bx	lr
 3150              		.cfi_endproc
 3151              	.LFE162:
 3153              		.section	.text.USB_ReadDevInEPInterrupt,"ax",%progbits
 3154              		.align	1
ARM GAS  /tmp/cc0ThgoX.s 			page 99


 3155              		.global	USB_ReadDevInEPInterrupt
 3156              		.syntax unified
 3157              		.thumb
 3158              		.thumb_func
 3160              	USB_ReadDevInEPInterrupt:
 3161              	.LVL237:
 3162              	.LFB163:
1308:Drivers/STM32F4xx_HAL_Driver/Src/stm32f4xx_ll_usb.c ****   uint32_t USBx_BASE = (uint32_t)USBx;
 3163              		.loc 1 1308 1 is_stmt 1 view -0
 3164              		.cfi_startproc
 3165              		@ args = 0, pretend = 0, frame = 0
 3166              		@ frame_needed = 0, uses_anonymous_args = 0
 3167              		@ link register save eliminated.
1309:Drivers/STM32F4xx_HAL_Driver/Src/stm32f4xx_ll_usb.c ****   uint32_t tmpreg;
 3168              		.loc 1 1309 3 view .LVU1082
1310:Drivers/STM32F4xx_HAL_Driver/Src/stm32f4xx_ll_usb.c ****   uint32_t msk;
 3169              		.loc 1 1310 3 view .LVU1083
1311:Drivers/STM32F4xx_HAL_Driver/Src/stm32f4xx_ll_usb.c ****   uint32_t emp;
 3170              		.loc 1 1311 3 view .LVU1084
1312:Drivers/STM32F4xx_HAL_Driver/Src/stm32f4xx_ll_usb.c **** 
 3171              		.loc 1 1312 3 view .LVU1085
1314:Drivers/STM32F4xx_HAL_Driver/Src/stm32f4xx_ll_usb.c ****   emp = USBx_DEVICE->DIEPEMPMSK;
 3172              		.loc 1 1314 3 view .LVU1086
1314:Drivers/STM32F4xx_HAL_Driver/Src/stm32f4xx_ll_usb.c ****   emp = USBx_DEVICE->DIEPEMPMSK;
 3173              		.loc 1 1314 7 is_stmt 0 view .LVU1087
 3174 0000 D0F81028 		ldr	r2, [r0, #2064]
 3175              	.LVL238:
1315:Drivers/STM32F4xx_HAL_Driver/Src/stm32f4xx_ll_usb.c ****   msk |= ((emp >> (epnum & EP_ADDR_MSK)) & 0x1U) << 7;
 3176              		.loc 1 1315 3 is_stmt 1 view .LVU1088
1315:Drivers/STM32F4xx_HAL_Driver/Src/stm32f4xx_ll_usb.c ****   msk |= ((emp >> (epnum & EP_ADDR_MSK)) & 0x1U) << 7;
 3177              		.loc 1 1315 7 is_stmt 0 view .LVU1089
 3178 0004 D0F83438 		ldr	r3, [r0, #2100]
 3179              	.LVL239:
1316:Drivers/STM32F4xx_HAL_Driver/Src/stm32f4xx_ll_usb.c ****   tmpreg = USBx_INEP((uint32_t)epnum)->DIEPINT & msk;
 3180              		.loc 1 1316 3 is_stmt 1 view .LVU1090
1316:Drivers/STM32F4xx_HAL_Driver/Src/stm32f4xx_ll_usb.c ****   tmpreg = USBx_INEP((uint32_t)epnum)->DIEPINT & msk;
 3181              		.loc 1 1316 26 is_stmt 0 view .LVU1091
 3182 0008 01F00F0C 		and	ip, r1, #15
1316:Drivers/STM32F4xx_HAL_Driver/Src/stm32f4xx_ll_usb.c ****   tmpreg = USBx_INEP((uint32_t)epnum)->DIEPINT & msk;
 3183              		.loc 1 1316 16 view .LVU1092
 3184 000c 23FA0CF3 		lsr	r3, r3, ip
 3185              	.LVL240:
1316:Drivers/STM32F4xx_HAL_Driver/Src/stm32f4xx_ll_usb.c ****   tmpreg = USBx_INEP((uint32_t)epnum)->DIEPINT & msk;
 3186              		.loc 1 1316 50 view .LVU1093
 3187 0010 DB01     		lsls	r3, r3, #7
 3188 0012 DBB2     		uxtb	r3, r3
1316:Drivers/STM32F4xx_HAL_Driver/Src/stm32f4xx_ll_usb.c ****   tmpreg = USBx_INEP((uint32_t)epnum)->DIEPINT & msk;
 3189              		.loc 1 1316 7 view .LVU1094
 3190 0014 1343     		orrs	r3, r3, r2
 3191              	.LVL241:
1317:Drivers/STM32F4xx_HAL_Driver/Src/stm32f4xx_ll_usb.c **** 
 3192              		.loc 1 1317 3 is_stmt 1 view .LVU1095
1317:Drivers/STM32F4xx_HAL_Driver/Src/stm32f4xx_ll_usb.c **** 
 3193              		.loc 1 1317 12 is_stmt 0 view .LVU1096
 3194 0016 00EB4110 		add	r0, r0, r1, lsl #5
 3195              	.LVL242:
1317:Drivers/STM32F4xx_HAL_Driver/Src/stm32f4xx_ll_usb.c **** 
ARM GAS  /tmp/cc0ThgoX.s 			page 100


 3196              		.loc 1 1317 12 view .LVU1097
 3197 001a 00F51060 		add	r0, r0, #2304
1317:Drivers/STM32F4xx_HAL_Driver/Src/stm32f4xx_ll_usb.c **** 
 3198              		.loc 1 1317 38 view .LVU1098
 3199 001e 8068     		ldr	r0, [r0, #8]
 3200              	.LVL243:
1319:Drivers/STM32F4xx_HAL_Driver/Src/stm32f4xx_ll_usb.c **** }
 3201              		.loc 1 1319 3 is_stmt 1 view .LVU1099
1320:Drivers/STM32F4xx_HAL_Driver/Src/stm32f4xx_ll_usb.c **** 
 3202              		.loc 1 1320 1 is_stmt 0 view .LVU1100
 3203 0020 1840     		ands	r0, r0, r3
 3204              	.LVL244:
1320:Drivers/STM32F4xx_HAL_Driver/Src/stm32f4xx_ll_usb.c **** 
 3205              		.loc 1 1320 1 view .LVU1101
 3206 0022 7047     		bx	lr
 3207              		.cfi_endproc
 3208              	.LFE163:
 3210              		.section	.text.USB_ClearInterrupts,"ax",%progbits
 3211              		.align	1
 3212              		.global	USB_ClearInterrupts
 3213              		.syntax unified
 3214              		.thumb
 3215              		.thumb_func
 3217              	USB_ClearInterrupts:
 3218              	.LVL245:
 3219              	.LFB164:
1329:Drivers/STM32F4xx_HAL_Driver/Src/stm32f4xx_ll_usb.c ****   USBx->GINTSTS &= interrupt;
 3220              		.loc 1 1329 1 is_stmt 1 view -0
 3221              		.cfi_startproc
 3222              		@ args = 0, pretend = 0, frame = 0
 3223              		@ frame_needed = 0, uses_anonymous_args = 0
 3224              		@ link register save eliminated.
1330:Drivers/STM32F4xx_HAL_Driver/Src/stm32f4xx_ll_usb.c **** }
 3225              		.loc 1 1330 3 view .LVU1103
1330:Drivers/STM32F4xx_HAL_Driver/Src/stm32f4xx_ll_usb.c **** }
 3226              		.loc 1 1330 7 is_stmt 0 view .LVU1104
 3227 0000 4369     		ldr	r3, [r0, #20]
1330:Drivers/STM32F4xx_HAL_Driver/Src/stm32f4xx_ll_usb.c **** }
 3228              		.loc 1 1330 17 view .LVU1105
 3229 0002 0B40     		ands	r3, r3, r1
 3230 0004 4361     		str	r3, [r0, #20]
1331:Drivers/STM32F4xx_HAL_Driver/Src/stm32f4xx_ll_usb.c **** 
 3231              		.loc 1 1331 1 view .LVU1106
 3232 0006 7047     		bx	lr
 3233              		.cfi_endproc
 3234              	.LFE164:
 3236              		.section	.text.USB_GetMode,"ax",%progbits
 3237              		.align	1
 3238              		.global	USB_GetMode
 3239              		.syntax unified
 3240              		.thumb
 3241              		.thumb_func
 3243              	USB_GetMode:
 3244              	.LVL246:
 3245              	.LFB165:
1342:Drivers/STM32F4xx_HAL_Driver/Src/stm32f4xx_ll_usb.c ****   return ((USBx->GINTSTS) & 0x1U);
 3246              		.loc 1 1342 1 is_stmt 1 view -0
ARM GAS  /tmp/cc0ThgoX.s 			page 101


 3247              		.cfi_startproc
 3248              		@ args = 0, pretend = 0, frame = 0
 3249              		@ frame_needed = 0, uses_anonymous_args = 0
 3250              		@ link register save eliminated.
1343:Drivers/STM32F4xx_HAL_Driver/Src/stm32f4xx_ll_usb.c **** }
 3251              		.loc 1 1343 3 view .LVU1108
1343:Drivers/STM32F4xx_HAL_Driver/Src/stm32f4xx_ll_usb.c **** }
 3252              		.loc 1 1343 16 is_stmt 0 view .LVU1109
 3253 0000 4069     		ldr	r0, [r0, #20]
 3254              	.LVL247:
1344:Drivers/STM32F4xx_HAL_Driver/Src/stm32f4xx_ll_usb.c **** 
 3255              		.loc 1 1344 1 view .LVU1110
 3256 0002 00F00100 		and	r0, r0, #1
 3257 0006 7047     		bx	lr
 3258              		.cfi_endproc
 3259              	.LFE165:
 3261              		.section	.text.USB_SetCurrentMode,"ax",%progbits
 3262              		.align	1
 3263              		.global	USB_SetCurrentMode
 3264              		.syntax unified
 3265              		.thumb
 3266              		.thumb_func
 3268              	USB_SetCurrentMode:
 3269              	.LVL248:
 3270              	.LFB138:
 250:Drivers/STM32F4xx_HAL_Driver/Src/stm32f4xx_ll_usb.c ****   uint32_t ms = 0U;
 3271              		.loc 1 250 1 is_stmt 1 view -0
 3272              		.cfi_startproc
 3273              		@ args = 0, pretend = 0, frame = 0
 3274              		@ frame_needed = 0, uses_anonymous_args = 0
 250:Drivers/STM32F4xx_HAL_Driver/Src/stm32f4xx_ll_usb.c ****   uint32_t ms = 0U;
 3275              		.loc 1 250 1 is_stmt 0 view .LVU1112
 3276 0000 38B5     		push	{r3, r4, r5, lr}
 3277              	.LCFI36:
 3278              		.cfi_def_cfa_offset 16
 3279              		.cfi_offset 3, -16
 3280              		.cfi_offset 4, -12
 3281              		.cfi_offset 5, -8
 3282              		.cfi_offset 14, -4
 3283 0002 0546     		mov	r5, r0
 251:Drivers/STM32F4xx_HAL_Driver/Src/stm32f4xx_ll_usb.c **** 
 3284              		.loc 1 251 3 is_stmt 1 view .LVU1113
 3285              	.LVL249:
 253:Drivers/STM32F4xx_HAL_Driver/Src/stm32f4xx_ll_usb.c **** 
 3286              		.loc 1 253 3 view .LVU1114
 253:Drivers/STM32F4xx_HAL_Driver/Src/stm32f4xx_ll_usb.c **** 
 3287              		.loc 1 253 7 is_stmt 0 view .LVU1115
 3288 0004 C368     		ldr	r3, [r0, #12]
 253:Drivers/STM32F4xx_HAL_Driver/Src/stm32f4xx_ll_usb.c **** 
 3289              		.loc 1 253 17 view .LVU1116
 3290 0006 23F0C043 		bic	r3, r3, #1610612736
 3291 000a C360     		str	r3, [r0, #12]
 255:Drivers/STM32F4xx_HAL_Driver/Src/stm32f4xx_ll_usb.c ****   {
 3292              		.loc 1 255 3 is_stmt 1 view .LVU1117
 255:Drivers/STM32F4xx_HAL_Driver/Src/stm32f4xx_ll_usb.c ****   {
 3293              		.loc 1 255 6 is_stmt 0 view .LVU1118
 3294 000c 0129     		cmp	r1, #1
ARM GAS  /tmp/cc0ThgoX.s 			page 102


 3295 000e 13D0     		beq	.L211
 265:Drivers/STM32F4xx_HAL_Driver/Src/stm32f4xx_ll_usb.c ****   {
 3296              		.loc 1 265 8 is_stmt 1 view .LVU1119
 265:Drivers/STM32F4xx_HAL_Driver/Src/stm32f4xx_ll_usb.c ****   {
 3297              		.loc 1 265 11 is_stmt 0 view .LVU1120
 3298 0010 19BB     		cbnz	r1, .L208
 267:Drivers/STM32F4xx_HAL_Driver/Src/stm32f4xx_ll_usb.c **** 
 3299              		.loc 1 267 5 is_stmt 1 view .LVU1121
 267:Drivers/STM32F4xx_HAL_Driver/Src/stm32f4xx_ll_usb.c **** 
 3300              		.loc 1 267 9 is_stmt 0 view .LVU1122
 3301 0012 C368     		ldr	r3, [r0, #12]
 267:Drivers/STM32F4xx_HAL_Driver/Src/stm32f4xx_ll_usb.c **** 
 3302              		.loc 1 267 19 view .LVU1123
 3303 0014 43F08043 		orr	r3, r3, #1073741824
 3304 0018 C360     		str	r3, [r0, #12]
 251:Drivers/STM32F4xx_HAL_Driver/Src/stm32f4xx_ll_usb.c **** 
 3305              		.loc 1 251 12 view .LVU1124
 3306 001a 0024     		movs	r4, #0
 3307              	.LVL250:
 3308              	.L207:
 269:Drivers/STM32F4xx_HAL_Driver/Src/stm32f4xx_ll_usb.c ****     {
 3309              		.loc 1 269 5 is_stmt 1 view .LVU1125
 271:Drivers/STM32F4xx_HAL_Driver/Src/stm32f4xx_ll_usb.c ****       ms += 10U;
 3310              		.loc 1 271 7 view .LVU1126
 3311 001c 0A20     		movs	r0, #10
 3312 001e FFF7FEFF 		bl	HAL_Delay
 3313              	.LVL251:
 272:Drivers/STM32F4xx_HAL_Driver/Src/stm32f4xx_ll_usb.c ****     } while ((USB_GetMode(USBx) != (uint32_t)USB_DEVICE_MODE) && (ms < HAL_USB_CURRENT_MODE_MAX_DEL
 3314              		.loc 1 272 7 view .LVU1127
 272:Drivers/STM32F4xx_HAL_Driver/Src/stm32f4xx_ll_usb.c ****     } while ((USB_GetMode(USBx) != (uint32_t)USB_DEVICE_MODE) && (ms < HAL_USB_CURRENT_MODE_MAX_DEL
 3315              		.loc 1 272 10 is_stmt 0 view .LVU1128
 3316 0022 0A34     		adds	r4, r4, #10
 3317              	.LVL252:
 273:Drivers/STM32F4xx_HAL_Driver/Src/stm32f4xx_ll_usb.c ****   }
 3318              		.loc 1 273 63 is_stmt 1 discriminator 2 view .LVU1129
 273:Drivers/STM32F4xx_HAL_Driver/Src/stm32f4xx_ll_usb.c ****   }
 3319              		.loc 1 273 15 is_stmt 0 discriminator 2 view .LVU1130
 3320 0024 2846     		mov	r0, r5
 3321 0026 FFF7FEFF 		bl	USB_GetMode
 3322              	.LVL253:
 273:Drivers/STM32F4xx_HAL_Driver/Src/stm32f4xx_ll_usb.c ****   }
 3323              		.loc 1 273 63 discriminator 2 view .LVU1131
 3324 002a 08B1     		cbz	r0, .L204
 273:Drivers/STM32F4xx_HAL_Driver/Src/stm32f4xx_ll_usb.c ****   }
 3325              		.loc 1 273 63 discriminator 1 view .LVU1132
 3326 002c C72C     		cmp	r4, #199
 3327 002e F5D9     		bls	.L207
 3328              	.L204:
 280:Drivers/STM32F4xx_HAL_Driver/Src/stm32f4xx_ll_usb.c ****   {
 3329              		.loc 1 280 3 is_stmt 1 view .LVU1133
 280:Drivers/STM32F4xx_HAL_Driver/Src/stm32f4xx_ll_usb.c ****   {
 3330              		.loc 1 280 6 is_stmt 0 view .LVU1134
 3331 0030 C82C     		cmp	r4, #200
 3332 0032 14D0     		beq	.L209
 285:Drivers/STM32F4xx_HAL_Driver/Src/stm32f4xx_ll_usb.c **** }
 3333              		.loc 1 285 10 view .LVU1135
 3334 0034 0020     		movs	r0, #0
ARM GAS  /tmp/cc0ThgoX.s 			page 103


 3335              	.LVL254:
 3336              	.L206:
 286:Drivers/STM32F4xx_HAL_Driver/Src/stm32f4xx_ll_usb.c **** 
 3337              		.loc 1 286 1 view .LVU1136
 3338 0036 38BD     		pop	{r3, r4, r5, pc}
 3339              	.LVL255:
 3340              	.L211:
 257:Drivers/STM32F4xx_HAL_Driver/Src/stm32f4xx_ll_usb.c **** 
 3341              		.loc 1 257 5 is_stmt 1 view .LVU1137
 257:Drivers/STM32F4xx_HAL_Driver/Src/stm32f4xx_ll_usb.c **** 
 3342              		.loc 1 257 9 is_stmt 0 view .LVU1138
 3343 0038 C368     		ldr	r3, [r0, #12]
 257:Drivers/STM32F4xx_HAL_Driver/Src/stm32f4xx_ll_usb.c **** 
 3344              		.loc 1 257 19 view .LVU1139
 3345 003a 43F00053 		orr	r3, r3, #536870912
 3346 003e C360     		str	r3, [r0, #12]
 251:Drivers/STM32F4xx_HAL_Driver/Src/stm32f4xx_ll_usb.c **** 
 3347              		.loc 1 251 12 view .LVU1140
 3348 0040 0024     		movs	r4, #0
 3349              	.LVL256:
 3350              	.L205:
 259:Drivers/STM32F4xx_HAL_Driver/Src/stm32f4xx_ll_usb.c ****     {
 3351              		.loc 1 259 5 is_stmt 1 view .LVU1141
 261:Drivers/STM32F4xx_HAL_Driver/Src/stm32f4xx_ll_usb.c ****       ms += 10U;
 3352              		.loc 1 261 7 view .LVU1142
 3353 0042 0A20     		movs	r0, #10
 3354 0044 FFF7FEFF 		bl	HAL_Delay
 3355              	.LVL257:
 262:Drivers/STM32F4xx_HAL_Driver/Src/stm32f4xx_ll_usb.c ****     } while ((USB_GetMode(USBx) != (uint32_t)USB_HOST_MODE) && (ms < HAL_USB_CURRENT_MODE_MAX_DELAY
 3356              		.loc 1 262 7 view .LVU1143
 262:Drivers/STM32F4xx_HAL_Driver/Src/stm32f4xx_ll_usb.c ****     } while ((USB_GetMode(USBx) != (uint32_t)USB_HOST_MODE) && (ms < HAL_USB_CURRENT_MODE_MAX_DELAY
 3357              		.loc 1 262 10 is_stmt 0 view .LVU1144
 3358 0048 0A34     		adds	r4, r4, #10
 3359              	.LVL258:
 263:Drivers/STM32F4xx_HAL_Driver/Src/stm32f4xx_ll_usb.c ****   }
 3360              		.loc 1 263 61 is_stmt 1 discriminator 2 view .LVU1145
 263:Drivers/STM32F4xx_HAL_Driver/Src/stm32f4xx_ll_usb.c ****   }
 3361              		.loc 1 263 15 is_stmt 0 discriminator 2 view .LVU1146
 3362 004a 2846     		mov	r0, r5
 3363 004c FFF7FEFF 		bl	USB_GetMode
 3364              	.LVL259:
 263:Drivers/STM32F4xx_HAL_Driver/Src/stm32f4xx_ll_usb.c ****   }
 3365              		.loc 1 263 61 discriminator 2 view .LVU1147
 3366 0050 0128     		cmp	r0, #1
 3367 0052 EDD0     		beq	.L204
 263:Drivers/STM32F4xx_HAL_Driver/Src/stm32f4xx_ll_usb.c ****   }
 3368              		.loc 1 263 61 discriminator 1 view .LVU1148
 3369 0054 C72C     		cmp	r4, #199
 3370 0056 F4D9     		bls	.L205
 3371 0058 EAE7     		b	.L204
 3372              	.LVL260:
 3373              	.L208:
 277:Drivers/STM32F4xx_HAL_Driver/Src/stm32f4xx_ll_usb.c ****   }
 3374              		.loc 1 277 12 view .LVU1149
 3375 005a 0120     		movs	r0, #1
 3376              	.LVL261:
 277:Drivers/STM32F4xx_HAL_Driver/Src/stm32f4xx_ll_usb.c ****   }
ARM GAS  /tmp/cc0ThgoX.s 			page 104


 3377              		.loc 1 277 12 view .LVU1150
 3378 005c EBE7     		b	.L206
 3379              	.LVL262:
 3380              	.L209:
 282:Drivers/STM32F4xx_HAL_Driver/Src/stm32f4xx_ll_usb.c ****   }
 3381              		.loc 1 282 12 view .LVU1151
 3382 005e 0120     		movs	r0, #1
 3383 0060 E9E7     		b	.L206
 3384              		.cfi_endproc
 3385              	.LFE138:
 3387              		.section	.text.USB_ActivateSetup,"ax",%progbits
 3388              		.align	1
 3389              		.global	USB_ActivateSetup
 3390              		.syntax unified
 3391              		.thumb
 3392              		.thumb_func
 3394              	USB_ActivateSetup:
 3395              	.LVL263:
 3396              	.LFB166:
1352:Drivers/STM32F4xx_HAL_Driver/Src/stm32f4xx_ll_usb.c ****   uint32_t USBx_BASE = (uint32_t)USBx;
 3397              		.loc 1 1352 1 is_stmt 1 view -0
 3398              		.cfi_startproc
 3399              		@ args = 0, pretend = 0, frame = 0
 3400              		@ frame_needed = 0, uses_anonymous_args = 0
 3401              		@ link register save eliminated.
1353:Drivers/STM32F4xx_HAL_Driver/Src/stm32f4xx_ll_usb.c **** 
 3402              		.loc 1 1353 3 view .LVU1153
1356:Drivers/STM32F4xx_HAL_Driver/Src/stm32f4xx_ll_usb.c **** 
 3403              		.loc 1 1356 3 view .LVU1154
1356:Drivers/STM32F4xx_HAL_Driver/Src/stm32f4xx_ll_usb.c **** 
 3404              		.loc 1 1356 16 is_stmt 0 view .LVU1155
 3405 0000 D0F80039 		ldr	r3, [r0, #2304]
1356:Drivers/STM32F4xx_HAL_Driver/Src/stm32f4xx_ll_usb.c **** 
 3406              		.loc 1 1356 26 view .LVU1156
 3407 0004 6FF30A03 		bfc	r3, #0, #11
 3408 0008 C0F80039 		str	r3, [r0, #2304]
1358:Drivers/STM32F4xx_HAL_Driver/Src/stm32f4xx_ll_usb.c **** 
 3409              		.loc 1 1358 3 is_stmt 1 view .LVU1157
1358:Drivers/STM32F4xx_HAL_Driver/Src/stm32f4xx_ll_usb.c **** 
 3410              		.loc 1 1358 14 is_stmt 0 view .LVU1158
 3411 000c D0F80438 		ldr	r3, [r0, #2052]
1358:Drivers/STM32F4xx_HAL_Driver/Src/stm32f4xx_ll_usb.c **** 
 3412              		.loc 1 1358 21 view .LVU1159
 3413 0010 43F48073 		orr	r3, r3, #256
 3414 0014 C0F80438 		str	r3, [r0, #2052]
1360:Drivers/STM32F4xx_HAL_Driver/Src/stm32f4xx_ll_usb.c **** }
 3415              		.loc 1 1360 3 is_stmt 1 view .LVU1160
1361:Drivers/STM32F4xx_HAL_Driver/Src/stm32f4xx_ll_usb.c **** 
 3416              		.loc 1 1361 1 is_stmt 0 view .LVU1161
 3417 0018 0020     		movs	r0, #0
 3418              	.LVL264:
1361:Drivers/STM32F4xx_HAL_Driver/Src/stm32f4xx_ll_usb.c **** 
 3419              		.loc 1 1361 1 view .LVU1162
 3420 001a 7047     		bx	lr
 3421              		.cfi_endproc
 3422              	.LFE166:
 3424              		.section	.text.USB_EP0_OutStart,"ax",%progbits
ARM GAS  /tmp/cc0ThgoX.s 			page 105


 3425              		.align	1
 3426              		.global	USB_EP0_OutStart
 3427              		.syntax unified
 3428              		.thumb
 3429              		.thumb_func
 3431              	USB_EP0_OutStart:
 3432              	.LVL265:
 3433              	.LFB167:
1374:Drivers/STM32F4xx_HAL_Driver/Src/stm32f4xx_ll_usb.c ****   uint32_t USBx_BASE = (uint32_t)USBx;
 3434              		.loc 1 1374 1 is_stmt 1 view -0
 3435              		.cfi_startproc
 3436              		@ args = 0, pretend = 0, frame = 0
 3437              		@ frame_needed = 0, uses_anonymous_args = 0
 3438              		@ link register save eliminated.
1374:Drivers/STM32F4xx_HAL_Driver/Src/stm32f4xx_ll_usb.c ****   uint32_t USBx_BASE = (uint32_t)USBx;
 3439              		.loc 1 1374 1 is_stmt 0 view .LVU1164
 3440 0000 10B4     		push	{r4}
 3441              	.LCFI37:
 3442              		.cfi_def_cfa_offset 4
 3443              		.cfi_offset 4, -4
1375:Drivers/STM32F4xx_HAL_Driver/Src/stm32f4xx_ll_usb.c ****   uint32_t gSNPSiD = *(__IO const uint32_t *)(&USBx->CID + 0x1U);
 3444              		.loc 1 1375 3 is_stmt 1 view .LVU1165
 3445              	.LVL266:
1376:Drivers/STM32F4xx_HAL_Driver/Src/stm32f4xx_ll_usb.c **** 
 3446              		.loc 1 1376 3 view .LVU1166
1376:Drivers/STM32F4xx_HAL_Driver/Src/stm32f4xx_ll_usb.c **** 
 3447              		.loc 1 1376 12 is_stmt 0 view .LVU1167
 3448 0002 046C     		ldr	r4, [r0, #64]
 3449              	.LVL267:
1378:Drivers/STM32F4xx_HAL_Driver/Src/stm32f4xx_ll_usb.c ****   {
 3450              		.loc 1 1378 3 is_stmt 1 view .LVU1168
1378:Drivers/STM32F4xx_HAL_Driver/Src/stm32f4xx_ll_usb.c ****   {
 3451              		.loc 1 1378 6 is_stmt 0 view .LVU1169
 3452 0004 154B     		ldr	r3, .L218
 3453 0006 9C42     		cmp	r4, r3
 3454 0008 03D9     		bls	.L214
1380:Drivers/STM32F4xx_HAL_Driver/Src/stm32f4xx_ll_usb.c ****     {
 3455              		.loc 1 1380 5 is_stmt 1 view .LVU1170
1380:Drivers/STM32F4xx_HAL_Driver/Src/stm32f4xx_ll_usb.c ****     {
 3456              		.loc 1 1380 24 is_stmt 0 view .LVU1171
 3457 000a D0F8003B 		ldr	r3, [r0, #2816]
1380:Drivers/STM32F4xx_HAL_Driver/Src/stm32f4xx_ll_usb.c ****     {
 3458              		.loc 1 1380 8 view .LVU1172
 3459 000e 002B     		cmp	r3, #0
 3460 0010 16DB     		blt	.L215
 3461              	.L214:
1386:Drivers/STM32F4xx_HAL_Driver/Src/stm32f4xx_ll_usb.c ****   USBx_OUTEP(0U)->DOEPTSIZ |= (USB_OTG_DOEPTSIZ_PKTCNT & (1U << 19));
 3462              		.loc 1 1386 3 is_stmt 1 view .LVU1173
1386:Drivers/STM32F4xx_HAL_Driver/Src/stm32f4xx_ll_usb.c ****   USBx_OUTEP(0U)->DOEPTSIZ |= (USB_OTG_DOEPTSIZ_PKTCNT & (1U << 19));
 3463              		.loc 1 1386 28 is_stmt 0 view .LVU1174
 3464 0012 0024     		movs	r4, #0
 3465              	.LVL268:
1386:Drivers/STM32F4xx_HAL_Driver/Src/stm32f4xx_ll_usb.c ****   USBx_OUTEP(0U)->DOEPTSIZ |= (USB_OTG_DOEPTSIZ_PKTCNT & (1U << 19));
 3466              		.loc 1 1386 28 view .LVU1175
 3467 0014 C0F8104B 		str	r4, [r0, #2832]
1387:Drivers/STM32F4xx_HAL_Driver/Src/stm32f4xx_ll_usb.c ****   USBx_OUTEP(0U)->DOEPTSIZ |= (3U * 8U);
 3468              		.loc 1 1387 3 is_stmt 1 view .LVU1176
ARM GAS  /tmp/cc0ThgoX.s 			page 106


1387:Drivers/STM32F4xx_HAL_Driver/Src/stm32f4xx_ll_usb.c ****   USBx_OUTEP(0U)->DOEPTSIZ |= (3U * 8U);
 3469              		.loc 1 1387 17 is_stmt 0 view .LVU1177
 3470 0018 D0F8104B 		ldr	r4, [r0, #2832]
1387:Drivers/STM32F4xx_HAL_Driver/Src/stm32f4xx_ll_usb.c ****   USBx_OUTEP(0U)->DOEPTSIZ |= (3U * 8U);
 3471              		.loc 1 1387 28 view .LVU1178
 3472 001c 44F40024 		orr	r4, r4, #524288
 3473 0020 C0F8104B 		str	r4, [r0, #2832]
1388:Drivers/STM32F4xx_HAL_Driver/Src/stm32f4xx_ll_usb.c ****   USBx_OUTEP(0U)->DOEPTSIZ |=  USB_OTG_DOEPTSIZ_STUPCNT;
 3474              		.loc 1 1388 3 is_stmt 1 view .LVU1179
1388:Drivers/STM32F4xx_HAL_Driver/Src/stm32f4xx_ll_usb.c ****   USBx_OUTEP(0U)->DOEPTSIZ |=  USB_OTG_DOEPTSIZ_STUPCNT;
 3475              		.loc 1 1388 17 is_stmt 0 view .LVU1180
 3476 0024 D0F8104B 		ldr	r4, [r0, #2832]
1388:Drivers/STM32F4xx_HAL_Driver/Src/stm32f4xx_ll_usb.c ****   USBx_OUTEP(0U)->DOEPTSIZ |=  USB_OTG_DOEPTSIZ_STUPCNT;
 3477              		.loc 1 1388 28 view .LVU1181
 3478 0028 44F01804 		orr	r4, r4, #24
 3479 002c C0F8104B 		str	r4, [r0, #2832]
1389:Drivers/STM32F4xx_HAL_Driver/Src/stm32f4xx_ll_usb.c **** 
 3480              		.loc 1 1389 3 is_stmt 1 view .LVU1182
1389:Drivers/STM32F4xx_HAL_Driver/Src/stm32f4xx_ll_usb.c **** 
 3481              		.loc 1 1389 17 is_stmt 0 view .LVU1183
 3482 0030 D0F8104B 		ldr	r4, [r0, #2832]
1389:Drivers/STM32F4xx_HAL_Driver/Src/stm32f4xx_ll_usb.c **** 
 3483              		.loc 1 1389 28 view .LVU1184
 3484 0034 44F0C044 		orr	r4, r4, #1610612736
 3485 0038 C0F8104B 		str	r4, [r0, #2832]
1391:Drivers/STM32F4xx_HAL_Driver/Src/stm32f4xx_ll_usb.c ****   {
 3486              		.loc 1 1391 3 is_stmt 1 view .LVU1185
1391:Drivers/STM32F4xx_HAL_Driver/Src/stm32f4xx_ll_usb.c ****   {
 3487              		.loc 1 1391 6 is_stmt 0 view .LVU1186
 3488 003c 0129     		cmp	r1, #1
 3489 003e 03D0     		beq	.L217
 3490              	.L215:
1399:Drivers/STM32F4xx_HAL_Driver/Src/stm32f4xx_ll_usb.c **** 
 3491              		.loc 1 1399 1 view .LVU1187
 3492 0040 0020     		movs	r0, #0
 3493              	.LVL269:
1399:Drivers/STM32F4xx_HAL_Driver/Src/stm32f4xx_ll_usb.c **** 
 3494              		.loc 1 1399 1 view .LVU1188
 3495 0042 5DF8044B 		ldr	r4, [sp], #4
 3496              	.LCFI38:
 3497              		.cfi_remember_state
 3498              		.cfi_restore 4
 3499              		.cfi_def_cfa_offset 0
 3500 0046 7047     		bx	lr
 3501              	.LVL270:
 3502              	.L217:
 3503              	.LCFI39:
 3504              		.cfi_restore_state
1393:Drivers/STM32F4xx_HAL_Driver/Src/stm32f4xx_ll_usb.c ****     /* EP enable */
 3505              		.loc 1 1393 5 is_stmt 1 view .LVU1189
1393:Drivers/STM32F4xx_HAL_Driver/Src/stm32f4xx_ll_usb.c ****     /* EP enable */
 3506              		.loc 1 1393 29 is_stmt 0 view .LVU1190
 3507 0048 C0F8142B 		str	r2, [r0, #2836]
1395:Drivers/STM32F4xx_HAL_Driver/Src/stm32f4xx_ll_usb.c ****   }
 3508              		.loc 1 1395 5 is_stmt 1 view .LVU1191
1395:Drivers/STM32F4xx_HAL_Driver/Src/stm32f4xx_ll_usb.c ****   }
 3509              		.loc 1 1395 19 is_stmt 0 view .LVU1192
ARM GAS  /tmp/cc0ThgoX.s 			page 107


 3510 004c D0F8003B 		ldr	r3, [r0, #2816]
1395:Drivers/STM32F4xx_HAL_Driver/Src/stm32f4xx_ll_usb.c ****   }
 3511              		.loc 1 1395 29 view .LVU1193
 3512 0050 43F08023 		orr	r3, r3, #-2147450880
 3513 0054 C0F8003B 		str	r3, [r0, #2816]
 3514 0058 F2E7     		b	.L215
 3515              	.L219:
 3516 005a 00BF     		.align	2
 3517              	.L218:
 3518 005c 0A30544F 		.word	1330917386
 3519              		.cfi_endproc
 3520              	.LFE167:
 3522              		.section	.text.USB_HostInit,"ax",%progbits
 3523              		.align	1
 3524              		.global	USB_HostInit
 3525              		.syntax unified
 3526              		.thumb
 3527              		.thumb_func
 3529              	USB_HostInit:
 3530              	.LVL271:
 3531              	.LFB169:
1444:Drivers/STM32F4xx_HAL_Driver/Src/stm32f4xx_ll_usb.c **** 
1445:Drivers/STM32F4xx_HAL_Driver/Src/stm32f4xx_ll_usb.c **** /**
1446:Drivers/STM32F4xx_HAL_Driver/Src/stm32f4xx_ll_usb.c ****   * @brief  USB_HostInit : Initializes the USB OTG controller registers
1447:Drivers/STM32F4xx_HAL_Driver/Src/stm32f4xx_ll_usb.c ****   *         for Host mode
1448:Drivers/STM32F4xx_HAL_Driver/Src/stm32f4xx_ll_usb.c ****   * @param  USBx  Selected device
1449:Drivers/STM32F4xx_HAL_Driver/Src/stm32f4xx_ll_usb.c ****   * @param  cfg   pointer to a USB_OTG_CfgTypeDef structure that contains
1450:Drivers/STM32F4xx_HAL_Driver/Src/stm32f4xx_ll_usb.c ****   *         the configuration information for the specified USBx peripheral.
1451:Drivers/STM32F4xx_HAL_Driver/Src/stm32f4xx_ll_usb.c ****   * @retval HAL status
1452:Drivers/STM32F4xx_HAL_Driver/Src/stm32f4xx_ll_usb.c ****   */
1453:Drivers/STM32F4xx_HAL_Driver/Src/stm32f4xx_ll_usb.c **** HAL_StatusTypeDef USB_HostInit(USB_OTG_GlobalTypeDef *USBx, USB_OTG_CfgTypeDef cfg)
1454:Drivers/STM32F4xx_HAL_Driver/Src/stm32f4xx_ll_usb.c **** {
 3532              		.loc 1 1454 1 is_stmt 1 view -0
 3533              		.cfi_startproc
 3534              		@ args = 20, pretend = 16, frame = 0
 3535              		@ frame_needed = 0, uses_anonymous_args = 0
 3536              		.loc 1 1454 1 is_stmt 0 view .LVU1195
 3537 0000 84B0     		sub	sp, sp, #16
 3538              	.LCFI40:
 3539              		.cfi_def_cfa_offset 16
 3540 0002 38B5     		push	{r3, r4, r5, lr}
 3541              	.LCFI41:
 3542              		.cfi_def_cfa_offset 32
 3543              		.cfi_offset 3, -32
 3544              		.cfi_offset 4, -28
 3545              		.cfi_offset 5, -24
 3546              		.cfi_offset 14, -20
 3547 0004 0446     		mov	r4, r0
 3548 0006 05A8     		add	r0, sp, #20
 3549              	.LVL272:
 3550              		.loc 1 1454 1 view .LVU1196
 3551 0008 80E80E00 		stm	r0, {r1, r2, r3}
1455:Drivers/STM32F4xx_HAL_Driver/Src/stm32f4xx_ll_usb.c ****   HAL_StatusTypeDef ret = HAL_OK;
 3552              		.loc 1 1455 3 is_stmt 1 view .LVU1197
 3553              	.LVL273:
1456:Drivers/STM32F4xx_HAL_Driver/Src/stm32f4xx_ll_usb.c ****   uint32_t USBx_BASE = (uint32_t)USBx;
 3554              		.loc 1 1456 3 view .LVU1198
ARM GAS  /tmp/cc0ThgoX.s 			page 108


1457:Drivers/STM32F4xx_HAL_Driver/Src/stm32f4xx_ll_usb.c ****   uint32_t i;
 3555              		.loc 1 1457 3 view .LVU1199
1458:Drivers/STM32F4xx_HAL_Driver/Src/stm32f4xx_ll_usb.c **** 
1459:Drivers/STM32F4xx_HAL_Driver/Src/stm32f4xx_ll_usb.c ****   /* Restart the Phy Clock */
1460:Drivers/STM32F4xx_HAL_Driver/Src/stm32f4xx_ll_usb.c ****   USBx_PCGCCTL = 0U;
 3556              		.loc 1 1460 3 view .LVU1200
 3557              		.loc 1 1460 16 is_stmt 0 view .LVU1201
 3558 000c 0023     		movs	r3, #0
 3559 000e C4F8003E 		str	r3, [r4, #3584]
1461:Drivers/STM32F4xx_HAL_Driver/Src/stm32f4xx_ll_usb.c **** 
1462:Drivers/STM32F4xx_HAL_Driver/Src/stm32f4xx_ll_usb.c **** #if defined(STM32F446xx) || defined(STM32F469xx) || defined(STM32F479xx) || defined(STM32F412Zx) \
1463:Drivers/STM32F4xx_HAL_Driver/Src/stm32f4xx_ll_usb.c ****  || defined(STM32F412Vx) || defined(STM32F412Rx) || defined(STM32F412Cx) || defined(STM32F413xx) \
1464:Drivers/STM32F4xx_HAL_Driver/Src/stm32f4xx_ll_usb.c ****  || defined(STM32F423xx)
1465:Drivers/STM32F4xx_HAL_Driver/Src/stm32f4xx_ll_usb.c ****   /* Disable HW VBUS sensing */
1466:Drivers/STM32F4xx_HAL_Driver/Src/stm32f4xx_ll_usb.c ****   USBx->GCCFG &= ~(USB_OTG_GCCFG_VBDEN);
 3560              		.loc 1 1466 3 is_stmt 1 view .LVU1202
 3561              		.loc 1 1466 7 is_stmt 0 view .LVU1203
 3562 0012 A36B     		ldr	r3, [r4, #56]
 3563              		.loc 1 1466 15 view .LVU1204
 3564 0014 23F40013 		bic	r3, r3, #2097152
 3565 0018 A363     		str	r3, [r4, #56]
1467:Drivers/STM32F4xx_HAL_Driver/Src/stm32f4xx_ll_usb.c **** #else
1468:Drivers/STM32F4xx_HAL_Driver/Src/stm32f4xx_ll_usb.c ****   /*
1469:Drivers/STM32F4xx_HAL_Driver/Src/stm32f4xx_ll_usb.c ****   * Disable HW VBUS sensing. VBUS is internally considered to be always
1470:Drivers/STM32F4xx_HAL_Driver/Src/stm32f4xx_ll_usb.c ****   * at VBUS-Valid level (5V).
1471:Drivers/STM32F4xx_HAL_Driver/Src/stm32f4xx_ll_usb.c ****   */
1472:Drivers/STM32F4xx_HAL_Driver/Src/stm32f4xx_ll_usb.c ****   USBx->GCCFG |= USB_OTG_GCCFG_NOVBUSSENS;
1473:Drivers/STM32F4xx_HAL_Driver/Src/stm32f4xx_ll_usb.c ****   USBx->GCCFG &= ~USB_OTG_GCCFG_VBUSBSEN;
1474:Drivers/STM32F4xx_HAL_Driver/Src/stm32f4xx_ll_usb.c ****   USBx->GCCFG &= ~USB_OTG_GCCFG_VBUSASEN;
1475:Drivers/STM32F4xx_HAL_Driver/Src/stm32f4xx_ll_usb.c **** #endif /* defined(STM32F446xx) || defined(STM32F469xx) || defined(STM32F479xx) || defined(STM32F412
1476:Drivers/STM32F4xx_HAL_Driver/Src/stm32f4xx_ll_usb.c ****           defined(STM32F412Vx) || defined(STM32F412Rx) || defined(STM32F412Cx) || defined(STM32F413
1477:Drivers/STM32F4xx_HAL_Driver/Src/stm32f4xx_ll_usb.c ****           defined(STM32F423xx) */
1478:Drivers/STM32F4xx_HAL_Driver/Src/stm32f4xx_ll_usb.c **** #if defined(STM32F412Zx) || defined(STM32F412Vx) || defined(STM32F412Rx) \
1479:Drivers/STM32F4xx_HAL_Driver/Src/stm32f4xx_ll_usb.c ****  || defined(STM32F412Cx) || defined(STM32F413xx) || defined(STM32F423xx)
1480:Drivers/STM32F4xx_HAL_Driver/Src/stm32f4xx_ll_usb.c ****   /* Disable Battery chargin detector */
1481:Drivers/STM32F4xx_HAL_Driver/Src/stm32f4xx_ll_usb.c ****   USBx->GCCFG &= ~(USB_OTG_GCCFG_BCDEN);
 3566              		.loc 1 1481 3 is_stmt 1 view .LVU1205
 3567              		.loc 1 1481 7 is_stmt 0 view .LVU1206
 3568 001a A36B     		ldr	r3, [r4, #56]
 3569              		.loc 1 1481 15 view .LVU1207
 3570 001c 23F40033 		bic	r3, r3, #131072
 3571 0020 A363     		str	r3, [r4, #56]
1482:Drivers/STM32F4xx_HAL_Driver/Src/stm32f4xx_ll_usb.c **** #endif /* defined(STM32F412Zx) || defined(STM32F412Vx) || defined(STM32F412Rx) ||
1483:Drivers/STM32F4xx_HAL_Driver/Src/stm32f4xx_ll_usb.c ****           defined(STM32F412Cx) || defined(STM32F413xx) || defined(STM32F423xx) */
1484:Drivers/STM32F4xx_HAL_Driver/Src/stm32f4xx_ll_usb.c **** 
1485:Drivers/STM32F4xx_HAL_Driver/Src/stm32f4xx_ll_usb.c ****   if ((USBx->GUSBCFG & USB_OTG_GUSBCFG_PHYSEL) == 0U)
 3572              		.loc 1 1485 3 is_stmt 1 view .LVU1208
 3573              		.loc 1 1485 12 is_stmt 0 view .LVU1209
 3574 0022 E368     		ldr	r3, [r4, #12]
 3575              		.loc 1 1485 6 view .LVU1210
 3576 0024 13F0400F 		tst	r3, #64
 3577 0028 11D1     		bne	.L221
1486:Drivers/STM32F4xx_HAL_Driver/Src/stm32f4xx_ll_usb.c ****   {
1487:Drivers/STM32F4xx_HAL_Driver/Src/stm32f4xx_ll_usb.c ****     if (cfg.speed == USBH_FSLS_SPEED)
 3578              		.loc 1 1487 5 is_stmt 1 view .LVU1211
 3579              		.loc 1 1487 12 is_stmt 0 view .LVU1212
 3580 002a 9DF81730 		ldrb	r3, [sp, #23]	@ zero_extendqisi2
ARM GAS  /tmp/cc0ThgoX.s 			page 109


 3581              		.loc 1 1487 8 view .LVU1213
 3582 002e 012B     		cmp	r3, #1
 3583 0030 06D0     		beq	.L232
1488:Drivers/STM32F4xx_HAL_Driver/Src/stm32f4xx_ll_usb.c ****     {
1489:Drivers/STM32F4xx_HAL_Driver/Src/stm32f4xx_ll_usb.c ****       /* Force Device Enumeration to FS/LS mode only */
1490:Drivers/STM32F4xx_HAL_Driver/Src/stm32f4xx_ll_usb.c ****       USBx_HOST->HCFG |= USB_OTG_HCFG_FSLSS;
1491:Drivers/STM32F4xx_HAL_Driver/Src/stm32f4xx_ll_usb.c ****     }
1492:Drivers/STM32F4xx_HAL_Driver/Src/stm32f4xx_ll_usb.c ****     else
1493:Drivers/STM32F4xx_HAL_Driver/Src/stm32f4xx_ll_usb.c ****     {
1494:Drivers/STM32F4xx_HAL_Driver/Src/stm32f4xx_ll_usb.c ****       /* Set default Max speed support */
1495:Drivers/STM32F4xx_HAL_Driver/Src/stm32f4xx_ll_usb.c ****       USBx_HOST->HCFG &= ~(USB_OTG_HCFG_FSLSS);
 3584              		.loc 1 1495 7 is_stmt 1 view .LVU1214
 3585              		.loc 1 1495 16 is_stmt 0 view .LVU1215
 3586 0032 D4F80034 		ldr	r3, [r4, #1024]
 3587              		.loc 1 1495 23 view .LVU1216
 3588 0036 23F00403 		bic	r3, r3, #4
 3589 003a C4F80034 		str	r3, [r4, #1024]
 3590 003e 0CE0     		b	.L223
 3591              	.L232:
1490:Drivers/STM32F4xx_HAL_Driver/Src/stm32f4xx_ll_usb.c ****     }
 3592              		.loc 1 1490 7 is_stmt 1 view .LVU1217
1490:Drivers/STM32F4xx_HAL_Driver/Src/stm32f4xx_ll_usb.c ****     }
 3593              		.loc 1 1490 16 is_stmt 0 view .LVU1218
 3594 0040 D4F80034 		ldr	r3, [r4, #1024]
1490:Drivers/STM32F4xx_HAL_Driver/Src/stm32f4xx_ll_usb.c ****     }
 3595              		.loc 1 1490 23 view .LVU1219
 3596 0044 43F00403 		orr	r3, r3, #4
 3597 0048 C4F80034 		str	r3, [r4, #1024]
 3598 004c 05E0     		b	.L223
 3599              	.L221:
1496:Drivers/STM32F4xx_HAL_Driver/Src/stm32f4xx_ll_usb.c ****     }
1497:Drivers/STM32F4xx_HAL_Driver/Src/stm32f4xx_ll_usb.c ****   }
1498:Drivers/STM32F4xx_HAL_Driver/Src/stm32f4xx_ll_usb.c ****   else
1499:Drivers/STM32F4xx_HAL_Driver/Src/stm32f4xx_ll_usb.c ****   {
1500:Drivers/STM32F4xx_HAL_Driver/Src/stm32f4xx_ll_usb.c ****     /* Set default Max speed support */
1501:Drivers/STM32F4xx_HAL_Driver/Src/stm32f4xx_ll_usb.c ****     USBx_HOST->HCFG &= ~(USB_OTG_HCFG_FSLSS);
 3600              		.loc 1 1501 5 is_stmt 1 view .LVU1220
 3601              		.loc 1 1501 14 is_stmt 0 view .LVU1221
 3602 004e D4F80034 		ldr	r3, [r4, #1024]
 3603              		.loc 1 1501 21 view .LVU1222
 3604 0052 23F00403 		bic	r3, r3, #4
 3605 0056 C4F80034 		str	r3, [r4, #1024]
 3606              	.L223:
1502:Drivers/STM32F4xx_HAL_Driver/Src/stm32f4xx_ll_usb.c ****   }
1503:Drivers/STM32F4xx_HAL_Driver/Src/stm32f4xx_ll_usb.c **** 
1504:Drivers/STM32F4xx_HAL_Driver/Src/stm32f4xx_ll_usb.c ****   /* Make sure the FIFOs are flushed. */
1505:Drivers/STM32F4xx_HAL_Driver/Src/stm32f4xx_ll_usb.c ****   if (USB_FlushTxFifo(USBx, 0x10U) != HAL_OK) /* all Tx FIFOs */
 3607              		.loc 1 1505 3 is_stmt 1 view .LVU1223
 3608              		.loc 1 1505 7 is_stmt 0 view .LVU1224
 3609 005a 1021     		movs	r1, #16
 3610 005c 2046     		mov	r0, r4
 3611 005e FFF7FEFF 		bl	USB_FlushTxFifo
 3612              	.LVL274:
 3613              		.loc 1 1505 6 discriminator 1 view .LVU1225
 3614 0062 0546     		mov	r5, r0
 3615 0064 00B1     		cbz	r0, .L224
1506:Drivers/STM32F4xx_HAL_Driver/Src/stm32f4xx_ll_usb.c ****   {
ARM GAS  /tmp/cc0ThgoX.s 			page 110


1507:Drivers/STM32F4xx_HAL_Driver/Src/stm32f4xx_ll_usb.c ****     ret = HAL_ERROR;
 3616              		.loc 1 1507 9 view .LVU1226
 3617 0066 0125     		movs	r5, #1
 3618              	.L224:
 3619              	.LVL275:
1508:Drivers/STM32F4xx_HAL_Driver/Src/stm32f4xx_ll_usb.c ****   }
1509:Drivers/STM32F4xx_HAL_Driver/Src/stm32f4xx_ll_usb.c **** 
1510:Drivers/STM32F4xx_HAL_Driver/Src/stm32f4xx_ll_usb.c ****   if (USB_FlushRxFifo(USBx) != HAL_OK)
 3620              		.loc 1 1510 3 is_stmt 1 view .LVU1227
 3621              		.loc 1 1510 7 is_stmt 0 view .LVU1228
 3622 0068 2046     		mov	r0, r4
 3623 006a FFF7FEFF 		bl	USB_FlushRxFifo
 3624              	.LVL276:
 3625              		.loc 1 1510 6 discriminator 1 view .LVU1229
 3626 006e 00B1     		cbz	r0, .L225
1511:Drivers/STM32F4xx_HAL_Driver/Src/stm32f4xx_ll_usb.c ****   {
1512:Drivers/STM32F4xx_HAL_Driver/Src/stm32f4xx_ll_usb.c ****     ret = HAL_ERROR;
 3627              		.loc 1 1512 9 view .LVU1230
 3628 0070 0125     		movs	r5, #1
 3629              	.LVL277:
 3630              	.L225:
1513:Drivers/STM32F4xx_HAL_Driver/Src/stm32f4xx_ll_usb.c ****   }
1514:Drivers/STM32F4xx_HAL_Driver/Src/stm32f4xx_ll_usb.c **** 
1515:Drivers/STM32F4xx_HAL_Driver/Src/stm32f4xx_ll_usb.c ****   /* Clear all pending HC Interrupts */
1516:Drivers/STM32F4xx_HAL_Driver/Src/stm32f4xx_ll_usb.c ****   for (i = 0U; i < cfg.Host_channels; i++)
 3631              		.loc 1 1516 3 is_stmt 1 view .LVU1231
 3632              		.loc 1 1516 10 is_stmt 0 view .LVU1232
 3633 0072 0022     		movs	r2, #0
 3634              		.loc 1 1516 3 view .LVU1233
 3635 0074 09E0     		b	.L226
 3636              	.LVL278:
 3637              	.L227:
1517:Drivers/STM32F4xx_HAL_Driver/Src/stm32f4xx_ll_usb.c ****   {
1518:Drivers/STM32F4xx_HAL_Driver/Src/stm32f4xx_ll_usb.c ****     USBx_HC(i)->HCINT = CLEAR_INTERRUPT_MASK;
 3638              		.loc 1 1518 5 is_stmt 1 view .LVU1234
 3639 0076 04EB4213 		add	r3, r4, r2, lsl #5
 3640              		.loc 1 1518 23 is_stmt 0 view .LVU1235
 3641 007a 4FF0FF31 		mov	r1, #-1
 3642 007e C3F80815 		str	r1, [r3, #1288]
1519:Drivers/STM32F4xx_HAL_Driver/Src/stm32f4xx_ll_usb.c ****     USBx_HC(i)->HCINTMSK = 0U;
 3643              		.loc 1 1519 5 is_stmt 1 view .LVU1236
 3644              		.loc 1 1519 26 is_stmt 0 view .LVU1237
 3645 0082 0021     		movs	r1, #0
 3646 0084 C3F80C15 		str	r1, [r3, #1292]
1516:Drivers/STM32F4xx_HAL_Driver/Src/stm32f4xx_ll_usb.c ****   {
 3647              		.loc 1 1516 40 is_stmt 1 discriminator 3 view .LVU1238
 3648 0088 0132     		adds	r2, r2, #1
 3649              	.LVL279:
 3650              	.L226:
1516:Drivers/STM32F4xx_HAL_Driver/Src/stm32f4xx_ll_usb.c ****   {
 3651              		.loc 1 1516 18 discriminator 1 view .LVU1239
1516:Drivers/STM32F4xx_HAL_Driver/Src/stm32f4xx_ll_usb.c ****   {
 3652              		.loc 1 1516 23 is_stmt 0 discriminator 1 view .LVU1240
 3653 008a 9DF81530 		ldrb	r3, [sp, #21]	@ zero_extendqisi2
1516:Drivers/STM32F4xx_HAL_Driver/Src/stm32f4xx_ll_usb.c ****   {
 3654              		.loc 1 1516 18 discriminator 1 view .LVU1241
 3655 008e 9342     		cmp	r3, r2
ARM GAS  /tmp/cc0ThgoX.s 			page 111


 3656 0090 F1D8     		bhi	.L227
1520:Drivers/STM32F4xx_HAL_Driver/Src/stm32f4xx_ll_usb.c ****   }
1521:Drivers/STM32F4xx_HAL_Driver/Src/stm32f4xx_ll_usb.c **** 
1522:Drivers/STM32F4xx_HAL_Driver/Src/stm32f4xx_ll_usb.c ****   /* Disable all interrupts. */
1523:Drivers/STM32F4xx_HAL_Driver/Src/stm32f4xx_ll_usb.c ****   USBx->GINTMSK = 0U;
 3657              		.loc 1 1523 3 is_stmt 1 view .LVU1242
 3658              		.loc 1 1523 17 is_stmt 0 view .LVU1243
 3659 0092 0023     		movs	r3, #0
 3660 0094 A361     		str	r3, [r4, #24]
1524:Drivers/STM32F4xx_HAL_Driver/Src/stm32f4xx_ll_usb.c **** 
1525:Drivers/STM32F4xx_HAL_Driver/Src/stm32f4xx_ll_usb.c ****   /* Clear any pending interrupts */
1526:Drivers/STM32F4xx_HAL_Driver/Src/stm32f4xx_ll_usb.c ****   USBx->GINTSTS = CLEAR_INTERRUPT_MASK;
 3661              		.loc 1 1526 3 is_stmt 1 view .LVU1244
 3662              		.loc 1 1526 17 is_stmt 0 view .LVU1245
 3663 0096 4FF0FF33 		mov	r3, #-1
 3664 009a 6361     		str	r3, [r4, #20]
1527:Drivers/STM32F4xx_HAL_Driver/Src/stm32f4xx_ll_usb.c **** #if defined (USB_OTG_HS)
1528:Drivers/STM32F4xx_HAL_Driver/Src/stm32f4xx_ll_usb.c ****   if (USBx == USB_OTG_HS)
1529:Drivers/STM32F4xx_HAL_Driver/Src/stm32f4xx_ll_usb.c ****   {
1530:Drivers/STM32F4xx_HAL_Driver/Src/stm32f4xx_ll_usb.c ****     /* set Rx FIFO size */
1531:Drivers/STM32F4xx_HAL_Driver/Src/stm32f4xx_ll_usb.c ****     USBx->GRXFSIZ  = 0x200U;
1532:Drivers/STM32F4xx_HAL_Driver/Src/stm32f4xx_ll_usb.c ****     USBx->DIEPTXF0_HNPTXFSIZ = (uint32_t)(((0x100U << 16) & USB_OTG_NPTXFD) | 0x200U);
1533:Drivers/STM32F4xx_HAL_Driver/Src/stm32f4xx_ll_usb.c ****     USBx->HPTXFSIZ = (uint32_t)(((0xE0U << 16) & USB_OTG_HPTXFSIZ_PTXFD) | 0x300U);
1534:Drivers/STM32F4xx_HAL_Driver/Src/stm32f4xx_ll_usb.c ****   }
1535:Drivers/STM32F4xx_HAL_Driver/Src/stm32f4xx_ll_usb.c ****   else
1536:Drivers/STM32F4xx_HAL_Driver/Src/stm32f4xx_ll_usb.c **** #endif /* defined (USB_OTG_HS) */
1537:Drivers/STM32F4xx_HAL_Driver/Src/stm32f4xx_ll_usb.c ****   {
1538:Drivers/STM32F4xx_HAL_Driver/Src/stm32f4xx_ll_usb.c ****     /* set Rx FIFO size */
1539:Drivers/STM32F4xx_HAL_Driver/Src/stm32f4xx_ll_usb.c ****     USBx->GRXFSIZ  = 0x80U;
 3665              		.loc 1 1539 5 is_stmt 1 view .LVU1246
 3666              		.loc 1 1539 20 is_stmt 0 view .LVU1247
 3667 009c 8023     		movs	r3, #128
 3668 009e 6362     		str	r3, [r4, #36]
1540:Drivers/STM32F4xx_HAL_Driver/Src/stm32f4xx_ll_usb.c ****     USBx->DIEPTXF0_HNPTXFSIZ = (uint32_t)(((0x60U << 16) & USB_OTG_NPTXFD) | 0x80U);
 3669              		.loc 1 1540 5 is_stmt 1 view .LVU1248
 3670              		.loc 1 1540 30 is_stmt 0 view .LVU1249
 3671 00a0 03F5C003 		add	r3, r3, #6291456
 3672 00a4 A362     		str	r3, [r4, #40]
1541:Drivers/STM32F4xx_HAL_Driver/Src/stm32f4xx_ll_usb.c ****     USBx->HPTXFSIZ = (uint32_t)(((0x40U << 16)& USB_OTG_HPTXFSIZ_PTXFD) | 0xE0U);
 3673              		.loc 1 1541 5 is_stmt 1 view .LVU1250
 3674              		.loc 1 1541 20 is_stmt 0 view .LVU1251
 3675 00a6 094B     		ldr	r3, .L233
 3676 00a8 C4F80031 		str	r3, [r4, #256]
1542:Drivers/STM32F4xx_HAL_Driver/Src/stm32f4xx_ll_usb.c ****   }
1543:Drivers/STM32F4xx_HAL_Driver/Src/stm32f4xx_ll_usb.c **** 
1544:Drivers/STM32F4xx_HAL_Driver/Src/stm32f4xx_ll_usb.c ****   /* Enable the common interrupts */
1545:Drivers/STM32F4xx_HAL_Driver/Src/stm32f4xx_ll_usb.c ****   if (cfg.dma_enable == 0U)
 3677              		.loc 1 1545 3 is_stmt 1 view .LVU1252
 3678              		.loc 1 1545 10 is_stmt 0 view .LVU1253
 3679 00ac 9DF81630 		ldrb	r3, [sp, #22]	@ zero_extendqisi2
 3680              		.loc 1 1545 6 view .LVU1254
 3681 00b0 1BB9     		cbnz	r3, .L228
1546:Drivers/STM32F4xx_HAL_Driver/Src/stm32f4xx_ll_usb.c ****   {
1547:Drivers/STM32F4xx_HAL_Driver/Src/stm32f4xx_ll_usb.c ****     USBx->GINTMSK |= USB_OTG_GINTMSK_RXFLVLM;
 3682              		.loc 1 1547 5 is_stmt 1 view .LVU1255
 3683              		.loc 1 1547 9 is_stmt 0 view .LVU1256
 3684 00b2 A369     		ldr	r3, [r4, #24]
ARM GAS  /tmp/cc0ThgoX.s 			page 112


 3685              		.loc 1 1547 19 view .LVU1257
 3686 00b4 43F01003 		orr	r3, r3, #16
 3687 00b8 A361     		str	r3, [r4, #24]
 3688              	.L228:
1548:Drivers/STM32F4xx_HAL_Driver/Src/stm32f4xx_ll_usb.c ****   }
1549:Drivers/STM32F4xx_HAL_Driver/Src/stm32f4xx_ll_usb.c **** 
1550:Drivers/STM32F4xx_HAL_Driver/Src/stm32f4xx_ll_usb.c ****   /* Enable interrupts matching to the Host mode ONLY */
1551:Drivers/STM32F4xx_HAL_Driver/Src/stm32f4xx_ll_usb.c ****   USBx->GINTMSK |= (USB_OTG_GINTMSK_PRTIM            | USB_OTG_GINTMSK_HCIM | \
 3689              		.loc 1 1551 3 is_stmt 1 view .LVU1258
 3690              		.loc 1 1551 7 is_stmt 0 view .LVU1259
 3691 00ba A269     		ldr	r2, [r4, #24]
 3692              	.LVL280:
 3693              		.loc 1 1551 17 view .LVU1260
 3694 00bc 044B     		ldr	r3, .L233+4
 3695 00be 1343     		orrs	r3, r3, r2
 3696 00c0 A361     		str	r3, [r4, #24]
1552:Drivers/STM32F4xx_HAL_Driver/Src/stm32f4xx_ll_usb.c ****                     USB_OTG_GINTMSK_SOFM             | USB_OTG_GINTSTS_DISCINT | \
1553:Drivers/STM32F4xx_HAL_Driver/Src/stm32f4xx_ll_usb.c ****                     USB_OTG_GINTMSK_PXFRM_IISOOXFRM  | USB_OTG_GINTMSK_WUIM);
1554:Drivers/STM32F4xx_HAL_Driver/Src/stm32f4xx_ll_usb.c **** 
1555:Drivers/STM32F4xx_HAL_Driver/Src/stm32f4xx_ll_usb.c ****   return ret;
 3697              		.loc 1 1555 3 is_stmt 1 view .LVU1261
1556:Drivers/STM32F4xx_HAL_Driver/Src/stm32f4xx_ll_usb.c **** }
 3698              		.loc 1 1556 1 is_stmt 0 view .LVU1262
 3699 00c2 2846     		mov	r0, r5
 3700 00c4 BDE83840 		pop	{r3, r4, r5, lr}
 3701              	.LCFI42:
 3702              		.cfi_restore 14
 3703              		.cfi_restore 5
 3704              		.cfi_restore 4
 3705              		.cfi_restore 3
 3706              		.cfi_def_cfa_offset 16
 3707              	.LVL281:
 3708              		.loc 1 1556 1 view .LVU1263
 3709 00c8 04B0     		add	sp, sp, #16
 3710              	.LCFI43:
 3711              		.cfi_def_cfa_offset 0
 3712 00ca 7047     		bx	lr
 3713              	.L234:
 3714              		.align	2
 3715              	.L233:
 3716 00cc E0004000 		.word	4194528
 3717 00d0 080020A3 		.word	-1558183928
 3718              		.cfi_endproc
 3719              	.LFE169:
 3721              		.section	.text.USB_InitFSLSPClkSel,"ax",%progbits
 3722              		.align	1
 3723              		.global	USB_InitFSLSPClkSel
 3724              		.syntax unified
 3725              		.thumb
 3726              		.thumb_func
 3728              	USB_InitFSLSPClkSel:
 3729              	.LVL282:
 3730              	.LFB170:
1557:Drivers/STM32F4xx_HAL_Driver/Src/stm32f4xx_ll_usb.c **** 
1558:Drivers/STM32F4xx_HAL_Driver/Src/stm32f4xx_ll_usb.c **** /**
1559:Drivers/STM32F4xx_HAL_Driver/Src/stm32f4xx_ll_usb.c ****   * @brief  USB_InitFSLSPClkSel : Initializes the FSLSPClkSel field of the
1560:Drivers/STM32F4xx_HAL_Driver/Src/stm32f4xx_ll_usb.c ****   *         HCFG register on the PHY type and set the right frame interval
ARM GAS  /tmp/cc0ThgoX.s 			page 113


1561:Drivers/STM32F4xx_HAL_Driver/Src/stm32f4xx_ll_usb.c ****   * @param  USBx  Selected device
1562:Drivers/STM32F4xx_HAL_Driver/Src/stm32f4xx_ll_usb.c ****   * @param  freq  clock frequency
1563:Drivers/STM32F4xx_HAL_Driver/Src/stm32f4xx_ll_usb.c ****   *          This parameter can be one of these values:
1564:Drivers/STM32F4xx_HAL_Driver/Src/stm32f4xx_ll_usb.c ****   *           HCFG_48_MHZ : Full Speed 48 MHz Clock
1565:Drivers/STM32F4xx_HAL_Driver/Src/stm32f4xx_ll_usb.c ****   *           HCFG_6_MHZ : Low Speed 6 MHz Clock
1566:Drivers/STM32F4xx_HAL_Driver/Src/stm32f4xx_ll_usb.c ****   * @retval HAL status
1567:Drivers/STM32F4xx_HAL_Driver/Src/stm32f4xx_ll_usb.c ****   */
1568:Drivers/STM32F4xx_HAL_Driver/Src/stm32f4xx_ll_usb.c **** HAL_StatusTypeDef USB_InitFSLSPClkSel(const USB_OTG_GlobalTypeDef *USBx, uint8_t freq)
1569:Drivers/STM32F4xx_HAL_Driver/Src/stm32f4xx_ll_usb.c **** {
 3731              		.loc 1 1569 1 is_stmt 1 view -0
 3732              		.cfi_startproc
 3733              		@ args = 0, pretend = 0, frame = 0
 3734              		@ frame_needed = 0, uses_anonymous_args = 0
 3735              		@ link register save eliminated.
1570:Drivers/STM32F4xx_HAL_Driver/Src/stm32f4xx_ll_usb.c ****   uint32_t USBx_BASE = (uint32_t)USBx;
 3736              		.loc 1 1570 3 view .LVU1265
1571:Drivers/STM32F4xx_HAL_Driver/Src/stm32f4xx_ll_usb.c **** 
1572:Drivers/STM32F4xx_HAL_Driver/Src/stm32f4xx_ll_usb.c ****   USBx_HOST->HCFG &= ~(USB_OTG_HCFG_FSLSPCS);
 3737              		.loc 1 1572 3 view .LVU1266
 3738              		.loc 1 1572 12 is_stmt 0 view .LVU1267
 3739 0000 00F5806C 		add	ip, r0, #1024
 3740 0004 D0F80034 		ldr	r3, [r0, #1024]
 3741              		.loc 1 1572 19 view .LVU1268
 3742 0008 23F00303 		bic	r3, r3, #3
 3743 000c C0F80034 		str	r3, [r0, #1024]
1573:Drivers/STM32F4xx_HAL_Driver/Src/stm32f4xx_ll_usb.c ****   USBx_HOST->HCFG |= (uint32_t)freq & USB_OTG_HCFG_FSLSPCS;
 3744              		.loc 1 1573 3 is_stmt 1 view .LVU1269
 3745              		.loc 1 1573 12 is_stmt 0 view .LVU1270
 3746 0010 D0F80034 		ldr	r3, [r0, #1024]
 3747              		.loc 1 1573 37 view .LVU1271
 3748 0014 01F00302 		and	r2, r1, #3
 3749              		.loc 1 1573 19 view .LVU1272
 3750 0018 1343     		orrs	r3, r3, r2
 3751 001a C0F80034 		str	r3, [r0, #1024]
1574:Drivers/STM32F4xx_HAL_Driver/Src/stm32f4xx_ll_usb.c **** 
1575:Drivers/STM32F4xx_HAL_Driver/Src/stm32f4xx_ll_usb.c ****   if (freq == HCFG_48_MHZ)
 3752              		.loc 1 1575 3 is_stmt 1 view .LVU1273
 3753              		.loc 1 1575 6 is_stmt 0 view .LVU1274
 3754 001e 0129     		cmp	r1, #1
 3755 0020 07D0     		beq	.L239
1576:Drivers/STM32F4xx_HAL_Driver/Src/stm32f4xx_ll_usb.c ****   {
1577:Drivers/STM32F4xx_HAL_Driver/Src/stm32f4xx_ll_usb.c ****     USBx_HOST->HFIR = HFIR_48_MHZ;
1578:Drivers/STM32F4xx_HAL_Driver/Src/stm32f4xx_ll_usb.c ****   }
1579:Drivers/STM32F4xx_HAL_Driver/Src/stm32f4xx_ll_usb.c ****   else if (freq == HCFG_6_MHZ)
 3756              		.loc 1 1579 8 is_stmt 1 view .LVU1275
 3757              		.loc 1 1579 11 is_stmt 0 view .LVU1276
 3758 0022 0229     		cmp	r1, #2
 3759 0024 0BD1     		bne	.L238
1580:Drivers/STM32F4xx_HAL_Driver/Src/stm32f4xx_ll_usb.c ****   {
1581:Drivers/STM32F4xx_HAL_Driver/Src/stm32f4xx_ll_usb.c ****     USBx_HOST->HFIR = HFIR_6_MHZ;
 3760              		.loc 1 1581 5 is_stmt 1 view .LVU1277
 3761              		.loc 1 1581 21 is_stmt 0 view .LVU1278
 3762 0026 41F27073 		movw	r3, #6000
 3763 002a CCF80430 		str	r3, [ip, #4]
1582:Drivers/STM32F4xx_HAL_Driver/Src/stm32f4xx_ll_usb.c ****   }
1583:Drivers/STM32F4xx_HAL_Driver/Src/stm32f4xx_ll_usb.c ****   else
1584:Drivers/STM32F4xx_HAL_Driver/Src/stm32f4xx_ll_usb.c ****   {
ARM GAS  /tmp/cc0ThgoX.s 			page 114


1585:Drivers/STM32F4xx_HAL_Driver/Src/stm32f4xx_ll_usb.c ****     return HAL_ERROR;
1586:Drivers/STM32F4xx_HAL_Driver/Src/stm32f4xx_ll_usb.c ****   }
1587:Drivers/STM32F4xx_HAL_Driver/Src/stm32f4xx_ll_usb.c **** 
1588:Drivers/STM32F4xx_HAL_Driver/Src/stm32f4xx_ll_usb.c ****   return HAL_OK;
 3764              		.loc 1 1588 10 view .LVU1279
 3765 002e 0020     		movs	r0, #0
 3766              	.LVL283:
 3767              		.loc 1 1588 10 view .LVU1280
 3768 0030 7047     		bx	lr
 3769              	.LVL284:
 3770              	.L239:
1577:Drivers/STM32F4xx_HAL_Driver/Src/stm32f4xx_ll_usb.c ****   }
 3771              		.loc 1 1577 5 is_stmt 1 view .LVU1281
1577:Drivers/STM32F4xx_HAL_Driver/Src/stm32f4xx_ll_usb.c ****   }
 3772              		.loc 1 1577 21 is_stmt 0 view .LVU1282
 3773 0032 4BF68033 		movw	r3, #48000
 3774 0036 CCF80430 		str	r3, [ip, #4]
 3775              		.loc 1 1588 10 view .LVU1283
 3776 003a 0020     		movs	r0, #0
 3777              	.LVL285:
 3778              		.loc 1 1588 10 view .LVU1284
 3779 003c 7047     		bx	lr
 3780              	.LVL286:
 3781              	.L238:
1585:Drivers/STM32F4xx_HAL_Driver/Src/stm32f4xx_ll_usb.c ****   }
 3782              		.loc 1 1585 12 view .LVU1285
 3783 003e 0120     		movs	r0, #1
 3784              	.LVL287:
1589:Drivers/STM32F4xx_HAL_Driver/Src/stm32f4xx_ll_usb.c **** }
 3785              		.loc 1 1589 1 view .LVU1286
 3786 0040 7047     		bx	lr
 3787              		.cfi_endproc
 3788              	.LFE170:
 3790              		.section	.text.USB_ResetPort,"ax",%progbits
 3791              		.align	1
 3792              		.global	USB_ResetPort
 3793              		.syntax unified
 3794              		.thumb
 3795              		.thumb_func
 3797              	USB_ResetPort:
 3798              	.LVL288:
 3799              	.LFB171:
1590:Drivers/STM32F4xx_HAL_Driver/Src/stm32f4xx_ll_usb.c **** 
1591:Drivers/STM32F4xx_HAL_Driver/Src/stm32f4xx_ll_usb.c **** /**
1592:Drivers/STM32F4xx_HAL_Driver/Src/stm32f4xx_ll_usb.c ****   * @brief  USB_OTG_ResetPort : Reset Host Port
1593:Drivers/STM32F4xx_HAL_Driver/Src/stm32f4xx_ll_usb.c ****   * @param  USBx  Selected device
1594:Drivers/STM32F4xx_HAL_Driver/Src/stm32f4xx_ll_usb.c ****   * @retval HAL status
1595:Drivers/STM32F4xx_HAL_Driver/Src/stm32f4xx_ll_usb.c ****   * @note (1)The application must wait at least 10 ms
1596:Drivers/STM32F4xx_HAL_Driver/Src/stm32f4xx_ll_usb.c ****   *   before clearing the reset bit.
1597:Drivers/STM32F4xx_HAL_Driver/Src/stm32f4xx_ll_usb.c ****   */
1598:Drivers/STM32F4xx_HAL_Driver/Src/stm32f4xx_ll_usb.c **** HAL_StatusTypeDef USB_ResetPort(const USB_OTG_GlobalTypeDef *USBx)
1599:Drivers/STM32F4xx_HAL_Driver/Src/stm32f4xx_ll_usb.c **** {
 3800              		.loc 1 1599 1 is_stmt 1 view -0
 3801              		.cfi_startproc
 3802              		@ args = 0, pretend = 0, frame = 8
 3803              		@ frame_needed = 0, uses_anonymous_args = 0
 3804              		.loc 1 1599 1 is_stmt 0 view .LVU1288
ARM GAS  /tmp/cc0ThgoX.s 			page 115


 3805 0000 30B5     		push	{r4, r5, lr}
 3806              	.LCFI44:
 3807              		.cfi_def_cfa_offset 12
 3808              		.cfi_offset 4, -12
 3809              		.cfi_offset 5, -8
 3810              		.cfi_offset 14, -4
 3811 0002 83B0     		sub	sp, sp, #12
 3812              	.LCFI45:
 3813              		.cfi_def_cfa_offset 24
 3814 0004 0446     		mov	r4, r0
1600:Drivers/STM32F4xx_HAL_Driver/Src/stm32f4xx_ll_usb.c ****   uint32_t USBx_BASE = (uint32_t)USBx;
 3815              		.loc 1 1600 3 is_stmt 1 view .LVU1289
 3816              	.LVL289:
1601:Drivers/STM32F4xx_HAL_Driver/Src/stm32f4xx_ll_usb.c **** 
1602:Drivers/STM32F4xx_HAL_Driver/Src/stm32f4xx_ll_usb.c ****   __IO uint32_t hprt0 = 0U;
 3817              		.loc 1 1602 3 view .LVU1290
 3818              		.loc 1 1602 17 is_stmt 0 view .LVU1291
 3819 0006 0025     		movs	r5, #0
 3820 0008 0195     		str	r5, [sp, #4]
1603:Drivers/STM32F4xx_HAL_Driver/Src/stm32f4xx_ll_usb.c **** 
1604:Drivers/STM32F4xx_HAL_Driver/Src/stm32f4xx_ll_usb.c ****   hprt0 = USBx_HPRT0;
 3821              		.loc 1 1604 3 is_stmt 1 view .LVU1292
 3822              		.loc 1 1604 11 is_stmt 0 view .LVU1293
 3823 000a D0F84034 		ldr	r3, [r0, #1088]
 3824              		.loc 1 1604 9 view .LVU1294
 3825 000e 0193     		str	r3, [sp, #4]
1605:Drivers/STM32F4xx_HAL_Driver/Src/stm32f4xx_ll_usb.c **** 
1606:Drivers/STM32F4xx_HAL_Driver/Src/stm32f4xx_ll_usb.c ****   hprt0 &= ~(USB_OTG_HPRT_PENA | USB_OTG_HPRT_PCDET |
 3826              		.loc 1 1606 3 is_stmt 1 view .LVU1295
 3827              		.loc 1 1606 9 is_stmt 0 view .LVU1296
 3828 0010 019B     		ldr	r3, [sp, #4]
 3829 0012 23F02E03 		bic	r3, r3, #46
 3830 0016 0193     		str	r3, [sp, #4]
1607:Drivers/STM32F4xx_HAL_Driver/Src/stm32f4xx_ll_usb.c ****              USB_OTG_HPRT_PENCHNG | USB_OTG_HPRT_POCCHNG);
1608:Drivers/STM32F4xx_HAL_Driver/Src/stm32f4xx_ll_usb.c **** 
1609:Drivers/STM32F4xx_HAL_Driver/Src/stm32f4xx_ll_usb.c ****   USBx_HPRT0 = (USB_OTG_HPRT_PRST | hprt0);
 3831              		.loc 1 1609 3 is_stmt 1 view .LVU1297
 3832              		.loc 1 1609 35 is_stmt 0 view .LVU1298
 3833 0018 019B     		ldr	r3, [sp, #4]
 3834 001a 43F48073 		orr	r3, r3, #256
 3835              		.loc 1 1609 14 view .LVU1299
 3836 001e C0F84034 		str	r3, [r0, #1088]
1610:Drivers/STM32F4xx_HAL_Driver/Src/stm32f4xx_ll_usb.c ****   HAL_Delay(100U);                                 /* See Note #1 */
 3837              		.loc 1 1610 3 is_stmt 1 view .LVU1300
 3838 0022 6420     		movs	r0, #100
 3839              	.LVL290:
 3840              		.loc 1 1610 3 is_stmt 0 view .LVU1301
 3841 0024 FFF7FEFF 		bl	HAL_Delay
 3842              	.LVL291:
1611:Drivers/STM32F4xx_HAL_Driver/Src/stm32f4xx_ll_usb.c ****   USBx_HPRT0 = ((~USB_OTG_HPRT_PRST) & hprt0);
 3843              		.loc 1 1611 3 is_stmt 1 view .LVU1302
 3844              		.loc 1 1611 38 is_stmt 0 view .LVU1303
 3845 0028 019B     		ldr	r3, [sp, #4]
 3846 002a 23F48073 		bic	r3, r3, #256
 3847              		.loc 1 1611 14 view .LVU1304
 3848 002e C4F84034 		str	r3, [r4, #1088]
1612:Drivers/STM32F4xx_HAL_Driver/Src/stm32f4xx_ll_usb.c ****   HAL_Delay(10U);
ARM GAS  /tmp/cc0ThgoX.s 			page 116


 3849              		.loc 1 1612 3 is_stmt 1 view .LVU1305
 3850 0032 0A20     		movs	r0, #10
 3851 0034 FFF7FEFF 		bl	HAL_Delay
 3852              	.LVL292:
1613:Drivers/STM32F4xx_HAL_Driver/Src/stm32f4xx_ll_usb.c **** 
1614:Drivers/STM32F4xx_HAL_Driver/Src/stm32f4xx_ll_usb.c ****   return HAL_OK;
 3853              		.loc 1 1614 3 view .LVU1306
1615:Drivers/STM32F4xx_HAL_Driver/Src/stm32f4xx_ll_usb.c **** }
 3854              		.loc 1 1615 1 is_stmt 0 view .LVU1307
 3855 0038 2846     		mov	r0, r5
 3856 003a 03B0     		add	sp, sp, #12
 3857              	.LCFI46:
 3858              		.cfi_def_cfa_offset 12
 3859              		@ sp needed
 3860 003c 30BD     		pop	{r4, r5, pc}
 3861              		.loc 1 1615 1 view .LVU1308
 3862              		.cfi_endproc
 3863              	.LFE171:
 3865              		.section	.text.USB_DriveVbus,"ax",%progbits
 3866              		.align	1
 3867              		.global	USB_DriveVbus
 3868              		.syntax unified
 3869              		.thumb
 3870              		.thumb_func
 3872              	USB_DriveVbus:
 3873              	.LVL293:
 3874              	.LFB172:
1616:Drivers/STM32F4xx_HAL_Driver/Src/stm32f4xx_ll_usb.c **** 
1617:Drivers/STM32F4xx_HAL_Driver/Src/stm32f4xx_ll_usb.c **** /**
1618:Drivers/STM32F4xx_HAL_Driver/Src/stm32f4xx_ll_usb.c ****   * @brief  USB_DriveVbus : activate or de-activate vbus
1619:Drivers/STM32F4xx_HAL_Driver/Src/stm32f4xx_ll_usb.c ****   * @param  state  VBUS state
1620:Drivers/STM32F4xx_HAL_Driver/Src/stm32f4xx_ll_usb.c ****   *          This parameter can be one of these values:
1621:Drivers/STM32F4xx_HAL_Driver/Src/stm32f4xx_ll_usb.c ****   *           0 : Deactivate VBUS
1622:Drivers/STM32F4xx_HAL_Driver/Src/stm32f4xx_ll_usb.c ****   *           1 : Activate VBUS
1623:Drivers/STM32F4xx_HAL_Driver/Src/stm32f4xx_ll_usb.c ****   * @retval HAL status
1624:Drivers/STM32F4xx_HAL_Driver/Src/stm32f4xx_ll_usb.c ****   */
1625:Drivers/STM32F4xx_HAL_Driver/Src/stm32f4xx_ll_usb.c **** HAL_StatusTypeDef USB_DriveVbus(const USB_OTG_GlobalTypeDef *USBx, uint8_t state)
1626:Drivers/STM32F4xx_HAL_Driver/Src/stm32f4xx_ll_usb.c **** {
 3875              		.loc 1 1626 1 is_stmt 1 view -0
 3876              		.cfi_startproc
 3877              		@ args = 0, pretend = 0, frame = 8
 3878              		@ frame_needed = 0, uses_anonymous_args = 0
 3879              		@ link register save eliminated.
 3880              		.loc 1 1626 1 is_stmt 0 view .LVU1310
 3881 0000 82B0     		sub	sp, sp, #8
 3882              	.LCFI47:
 3883              		.cfi_def_cfa_offset 8
1627:Drivers/STM32F4xx_HAL_Driver/Src/stm32f4xx_ll_usb.c ****   uint32_t USBx_BASE = (uint32_t)USBx;
 3884              		.loc 1 1627 3 is_stmt 1 view .LVU1311
 3885              	.LVL294:
1628:Drivers/STM32F4xx_HAL_Driver/Src/stm32f4xx_ll_usb.c ****   __IO uint32_t hprt0 = 0U;
 3886              		.loc 1 1628 3 view .LVU1312
 3887              		.loc 1 1628 17 is_stmt 0 view .LVU1313
 3888 0002 0023     		movs	r3, #0
 3889 0004 0193     		str	r3, [sp, #4]
1629:Drivers/STM32F4xx_HAL_Driver/Src/stm32f4xx_ll_usb.c **** 
1630:Drivers/STM32F4xx_HAL_Driver/Src/stm32f4xx_ll_usb.c ****   hprt0 = USBx_HPRT0;
ARM GAS  /tmp/cc0ThgoX.s 			page 117


 3890              		.loc 1 1630 3 is_stmt 1 view .LVU1314
 3891              		.loc 1 1630 11 is_stmt 0 view .LVU1315
 3892 0006 D0F84034 		ldr	r3, [r0, #1088]
 3893              		.loc 1 1630 9 view .LVU1316
 3894 000a 0193     		str	r3, [sp, #4]
1631:Drivers/STM32F4xx_HAL_Driver/Src/stm32f4xx_ll_usb.c **** 
1632:Drivers/STM32F4xx_HAL_Driver/Src/stm32f4xx_ll_usb.c ****   hprt0 &= ~(USB_OTG_HPRT_PENA | USB_OTG_HPRT_PCDET |
 3895              		.loc 1 1632 3 is_stmt 1 view .LVU1317
 3896              		.loc 1 1632 9 is_stmt 0 view .LVU1318
 3897 000c 019B     		ldr	r3, [sp, #4]
 3898 000e 23F02E03 		bic	r3, r3, #46
 3899 0012 0193     		str	r3, [sp, #4]
1633:Drivers/STM32F4xx_HAL_Driver/Src/stm32f4xx_ll_usb.c ****              USB_OTG_HPRT_PENCHNG | USB_OTG_HPRT_POCCHNG);
1634:Drivers/STM32F4xx_HAL_Driver/Src/stm32f4xx_ll_usb.c **** 
1635:Drivers/STM32F4xx_HAL_Driver/Src/stm32f4xx_ll_usb.c ****   if (((hprt0 & USB_OTG_HPRT_PPWR) == 0U) && (state == 1U))
 3900              		.loc 1 1635 3 is_stmt 1 view .LVU1319
 3901              		.loc 1 1635 15 is_stmt 0 view .LVU1320
 3902 0014 019B     		ldr	r3, [sp, #4]
 3903              		.loc 1 1635 6 view .LVU1321
 3904 0016 13F4805F 		tst	r3, #4096
 3905 001a 01D1     		bne	.L243
 3906              		.loc 1 1635 43 discriminator 1 view .LVU1322
 3907 001c 0129     		cmp	r1, #1
 3908 001e 0CD0     		beq	.L246
 3909              	.L243:
1636:Drivers/STM32F4xx_HAL_Driver/Src/stm32f4xx_ll_usb.c ****   {
1637:Drivers/STM32F4xx_HAL_Driver/Src/stm32f4xx_ll_usb.c ****     USBx_HPRT0 = (USB_OTG_HPRT_PPWR | hprt0);
1638:Drivers/STM32F4xx_HAL_Driver/Src/stm32f4xx_ll_usb.c ****   }
1639:Drivers/STM32F4xx_HAL_Driver/Src/stm32f4xx_ll_usb.c ****   if (((hprt0 & USB_OTG_HPRT_PPWR) == USB_OTG_HPRT_PPWR) && (state == 0U))
 3910              		.loc 1 1639 3 is_stmt 1 view .LVU1323
 3911              		.loc 1 1639 15 is_stmt 0 view .LVU1324
 3912 0020 019B     		ldr	r3, [sp, #4]
 3913              		.loc 1 1639 6 view .LVU1325
 3914 0022 13F4805F 		tst	r3, #4096
 3915 0026 05D0     		beq	.L244
 3916              		.loc 1 1639 58 discriminator 1 view .LVU1326
 3917 0028 21B9     		cbnz	r1, .L244
1640:Drivers/STM32F4xx_HAL_Driver/Src/stm32f4xx_ll_usb.c ****   {
1641:Drivers/STM32F4xx_HAL_Driver/Src/stm32f4xx_ll_usb.c ****     USBx_HPRT0 = ((~USB_OTG_HPRT_PPWR) & hprt0);
 3918              		.loc 1 1641 5 is_stmt 1 view .LVU1327
 3919              		.loc 1 1641 40 is_stmt 0 view .LVU1328
 3920 002a 019B     		ldr	r3, [sp, #4]
 3921 002c 23F48053 		bic	r3, r3, #4096
 3922              		.loc 1 1641 16 view .LVU1329
 3923 0030 C0F84034 		str	r3, [r0, #1088]
 3924              	.L244:
1642:Drivers/STM32F4xx_HAL_Driver/Src/stm32f4xx_ll_usb.c ****   }
1643:Drivers/STM32F4xx_HAL_Driver/Src/stm32f4xx_ll_usb.c ****   return HAL_OK;
 3925              		.loc 1 1643 3 is_stmt 1 view .LVU1330
1644:Drivers/STM32F4xx_HAL_Driver/Src/stm32f4xx_ll_usb.c **** }
 3926              		.loc 1 1644 1 is_stmt 0 view .LVU1331
 3927 0034 0020     		movs	r0, #0
 3928              	.LVL295:
 3929              		.loc 1 1644 1 view .LVU1332
 3930 0036 02B0     		add	sp, sp, #8
 3931              	.LCFI48:
 3932              		.cfi_remember_state
ARM GAS  /tmp/cc0ThgoX.s 			page 118


 3933              		.cfi_def_cfa_offset 0
 3934              		@ sp needed
 3935 0038 7047     		bx	lr
 3936              	.LVL296:
 3937              	.L246:
 3938              	.LCFI49:
 3939              		.cfi_restore_state
1637:Drivers/STM32F4xx_HAL_Driver/Src/stm32f4xx_ll_usb.c ****   }
 3940              		.loc 1 1637 5 is_stmt 1 view .LVU1333
1637:Drivers/STM32F4xx_HAL_Driver/Src/stm32f4xx_ll_usb.c ****   }
 3941              		.loc 1 1637 37 is_stmt 0 view .LVU1334
 3942 003a 019B     		ldr	r3, [sp, #4]
 3943 003c 43F48053 		orr	r3, r3, #4096
1637:Drivers/STM32F4xx_HAL_Driver/Src/stm32f4xx_ll_usb.c ****   }
 3944              		.loc 1 1637 16 view .LVU1335
 3945 0040 C0F84034 		str	r3, [r0, #1088]
 3946 0044 ECE7     		b	.L243
 3947              		.cfi_endproc
 3948              	.LFE172:
 3950              		.section	.text.USB_GetHostSpeed,"ax",%progbits
 3951              		.align	1
 3952              		.global	USB_GetHostSpeed
 3953              		.syntax unified
 3954              		.thumb
 3955              		.thumb_func
 3957              	USB_GetHostSpeed:
 3958              	.LVL297:
 3959              	.LFB173:
1645:Drivers/STM32F4xx_HAL_Driver/Src/stm32f4xx_ll_usb.c **** 
1646:Drivers/STM32F4xx_HAL_Driver/Src/stm32f4xx_ll_usb.c **** /**
1647:Drivers/STM32F4xx_HAL_Driver/Src/stm32f4xx_ll_usb.c ****   * @brief  Return Host Port speed
1648:Drivers/STM32F4xx_HAL_Driver/Src/stm32f4xx_ll_usb.c ****   * @param  USBx  Selected device
1649:Drivers/STM32F4xx_HAL_Driver/Src/stm32f4xx_ll_usb.c ****   * @retval speed : Host port device speed
1650:Drivers/STM32F4xx_HAL_Driver/Src/stm32f4xx_ll_usb.c ****   *          This parameter can be one of these values:
1651:Drivers/STM32F4xx_HAL_Driver/Src/stm32f4xx_ll_usb.c ****   *            @arg HCD_DEVICE_SPEED_HIGH: High speed mode
1652:Drivers/STM32F4xx_HAL_Driver/Src/stm32f4xx_ll_usb.c ****   *            @arg HCD_DEVICE_SPEED_FULL: Full speed mode
1653:Drivers/STM32F4xx_HAL_Driver/Src/stm32f4xx_ll_usb.c ****   *            @arg HCD_DEVICE_SPEED_LOW: Low speed mode
1654:Drivers/STM32F4xx_HAL_Driver/Src/stm32f4xx_ll_usb.c ****   */
1655:Drivers/STM32F4xx_HAL_Driver/Src/stm32f4xx_ll_usb.c **** uint32_t USB_GetHostSpeed(USB_OTG_GlobalTypeDef const *USBx)
1656:Drivers/STM32F4xx_HAL_Driver/Src/stm32f4xx_ll_usb.c **** {
 3960              		.loc 1 1656 1 is_stmt 1 view -0
 3961              		.cfi_startproc
 3962              		@ args = 0, pretend = 0, frame = 8
 3963              		@ frame_needed = 0, uses_anonymous_args = 0
 3964              		@ link register save eliminated.
 3965              		.loc 1 1656 1 is_stmt 0 view .LVU1337
 3966 0000 82B0     		sub	sp, sp, #8
 3967              	.LCFI50:
 3968              		.cfi_def_cfa_offset 8
1657:Drivers/STM32F4xx_HAL_Driver/Src/stm32f4xx_ll_usb.c ****   uint32_t USBx_BASE = (uint32_t)USBx;
 3969              		.loc 1 1657 3 is_stmt 1 view .LVU1338
 3970              	.LVL298:
1658:Drivers/STM32F4xx_HAL_Driver/Src/stm32f4xx_ll_usb.c ****   __IO uint32_t hprt0 = 0U;
 3971              		.loc 1 1658 3 view .LVU1339
 3972              		.loc 1 1658 17 is_stmt 0 view .LVU1340
 3973 0002 0023     		movs	r3, #0
 3974 0004 0193     		str	r3, [sp, #4]
ARM GAS  /tmp/cc0ThgoX.s 			page 119


1659:Drivers/STM32F4xx_HAL_Driver/Src/stm32f4xx_ll_usb.c **** 
1660:Drivers/STM32F4xx_HAL_Driver/Src/stm32f4xx_ll_usb.c ****   hprt0 = USBx_HPRT0;
 3975              		.loc 1 1660 3 is_stmt 1 view .LVU1341
 3976              		.loc 1 1660 11 is_stmt 0 view .LVU1342
 3977 0006 D0F84034 		ldr	r3, [r0, #1088]
 3978              		.loc 1 1660 9 view .LVU1343
 3979 000a 0193     		str	r3, [sp, #4]
1661:Drivers/STM32F4xx_HAL_Driver/Src/stm32f4xx_ll_usb.c ****   return ((hprt0 & USB_OTG_HPRT_PSPD) >> 17);
 3980              		.loc 1 1661 3 is_stmt 1 view .LVU1344
 3981              		.loc 1 1661 39 is_stmt 0 view .LVU1345
 3982 000c 0198     		ldr	r0, [sp, #4]
 3983              	.LVL299:
1662:Drivers/STM32F4xx_HAL_Driver/Src/stm32f4xx_ll_usb.c **** }
 3984              		.loc 1 1662 1 view .LVU1346
 3985 000e C0F34140 		ubfx	r0, r0, #17, #2
 3986 0012 02B0     		add	sp, sp, #8
 3987              	.LCFI51:
 3988              		.cfi_def_cfa_offset 0
 3989              		@ sp needed
 3990 0014 7047     		bx	lr
 3991              		.cfi_endproc
 3992              	.LFE173:
 3994              		.section	.text.USB_GetCurrentFrame,"ax",%progbits
 3995              		.align	1
 3996              		.global	USB_GetCurrentFrame
 3997              		.syntax unified
 3998              		.thumb
 3999              		.thumb_func
 4001              	USB_GetCurrentFrame:
 4002              	.LVL300:
 4003              	.LFB174:
1663:Drivers/STM32F4xx_HAL_Driver/Src/stm32f4xx_ll_usb.c **** 
1664:Drivers/STM32F4xx_HAL_Driver/Src/stm32f4xx_ll_usb.c **** /**
1665:Drivers/STM32F4xx_HAL_Driver/Src/stm32f4xx_ll_usb.c ****   * @brief  Return Host Current Frame number
1666:Drivers/STM32F4xx_HAL_Driver/Src/stm32f4xx_ll_usb.c ****   * @param  USBx  Selected device
1667:Drivers/STM32F4xx_HAL_Driver/Src/stm32f4xx_ll_usb.c ****   * @retval current frame number
1668:Drivers/STM32F4xx_HAL_Driver/Src/stm32f4xx_ll_usb.c ****   */
1669:Drivers/STM32F4xx_HAL_Driver/Src/stm32f4xx_ll_usb.c **** uint32_t USB_GetCurrentFrame(USB_OTG_GlobalTypeDef const *USBx)
1670:Drivers/STM32F4xx_HAL_Driver/Src/stm32f4xx_ll_usb.c **** {
 4004              		.loc 1 1670 1 is_stmt 1 view -0
 4005              		.cfi_startproc
 4006              		@ args = 0, pretend = 0, frame = 0
 4007              		@ frame_needed = 0, uses_anonymous_args = 0
 4008              		@ link register save eliminated.
1671:Drivers/STM32F4xx_HAL_Driver/Src/stm32f4xx_ll_usb.c ****   uint32_t USBx_BASE = (uint32_t)USBx;
 4009              		.loc 1 1671 3 view .LVU1348
1672:Drivers/STM32F4xx_HAL_Driver/Src/stm32f4xx_ll_usb.c **** 
1673:Drivers/STM32F4xx_HAL_Driver/Src/stm32f4xx_ll_usb.c ****   return (USBx_HOST->HFNUM & USB_OTG_HFNUM_FRNUM);
 4010              		.loc 1 1673 3 view .LVU1349
 4011              		.loc 1 1673 11 is_stmt 0 view .LVU1350
 4012 0000 00F58060 		add	r0, r0, #1024
 4013              	.LVL301:
 4014              		.loc 1 1673 20 view .LVU1351
 4015 0004 8068     		ldr	r0, [r0, #8]
 4016              	.LVL302:
1674:Drivers/STM32F4xx_HAL_Driver/Src/stm32f4xx_ll_usb.c **** }
 4017              		.loc 1 1674 1 view .LVU1352
ARM GAS  /tmp/cc0ThgoX.s 			page 120


 4018 0006 80B2     		uxth	r0, r0
 4019 0008 7047     		bx	lr
 4020              		.cfi_endproc
 4021              	.LFE174:
 4023              		.section	.text.USB_HC_Init,"ax",%progbits
 4024              		.align	1
 4025              		.global	USB_HC_Init
 4026              		.syntax unified
 4027              		.thumb
 4028              		.thumb_func
 4030              	USB_HC_Init:
 4031              	.LVL303:
 4032              	.LFB175:
1675:Drivers/STM32F4xx_HAL_Driver/Src/stm32f4xx_ll_usb.c **** 
1676:Drivers/STM32F4xx_HAL_Driver/Src/stm32f4xx_ll_usb.c **** /**
1677:Drivers/STM32F4xx_HAL_Driver/Src/stm32f4xx_ll_usb.c ****   * @brief  Initialize a host channel
1678:Drivers/STM32F4xx_HAL_Driver/Src/stm32f4xx_ll_usb.c ****   * @param  USBx  Selected device
1679:Drivers/STM32F4xx_HAL_Driver/Src/stm32f4xx_ll_usb.c ****   * @param  ch_num  Channel number
1680:Drivers/STM32F4xx_HAL_Driver/Src/stm32f4xx_ll_usb.c ****   *         This parameter can be a value from 1 to 15
1681:Drivers/STM32F4xx_HAL_Driver/Src/stm32f4xx_ll_usb.c ****   * @param  epnum  Endpoint number
1682:Drivers/STM32F4xx_HAL_Driver/Src/stm32f4xx_ll_usb.c ****   *          This parameter can be a value from 1 to 15
1683:Drivers/STM32F4xx_HAL_Driver/Src/stm32f4xx_ll_usb.c ****   * @param  dev_address  Current device address
1684:Drivers/STM32F4xx_HAL_Driver/Src/stm32f4xx_ll_usb.c ****   *          This parameter can be a value from 0 to 255
1685:Drivers/STM32F4xx_HAL_Driver/Src/stm32f4xx_ll_usb.c ****   * @param  speed  Current device speed
1686:Drivers/STM32F4xx_HAL_Driver/Src/stm32f4xx_ll_usb.c ****   *          This parameter can be one of these values:
1687:Drivers/STM32F4xx_HAL_Driver/Src/stm32f4xx_ll_usb.c ****   *            @arg USB_OTG_SPEED_HIGH: High speed mode
1688:Drivers/STM32F4xx_HAL_Driver/Src/stm32f4xx_ll_usb.c ****   *            @arg USB_OTG_SPEED_FULL: Full speed mode
1689:Drivers/STM32F4xx_HAL_Driver/Src/stm32f4xx_ll_usb.c ****   *            @arg USB_OTG_SPEED_LOW: Low speed mode
1690:Drivers/STM32F4xx_HAL_Driver/Src/stm32f4xx_ll_usb.c ****   * @param  ep_type  Endpoint Type
1691:Drivers/STM32F4xx_HAL_Driver/Src/stm32f4xx_ll_usb.c ****   *          This parameter can be one of these values:
1692:Drivers/STM32F4xx_HAL_Driver/Src/stm32f4xx_ll_usb.c ****   *            @arg EP_TYPE_CTRL: Control type
1693:Drivers/STM32F4xx_HAL_Driver/Src/stm32f4xx_ll_usb.c ****   *            @arg EP_TYPE_ISOC: Isochronous type
1694:Drivers/STM32F4xx_HAL_Driver/Src/stm32f4xx_ll_usb.c ****   *            @arg EP_TYPE_BULK: Bulk type
1695:Drivers/STM32F4xx_HAL_Driver/Src/stm32f4xx_ll_usb.c ****   *            @arg EP_TYPE_INTR: Interrupt type
1696:Drivers/STM32F4xx_HAL_Driver/Src/stm32f4xx_ll_usb.c ****   * @param  mps  Max Packet Size
1697:Drivers/STM32F4xx_HAL_Driver/Src/stm32f4xx_ll_usb.c ****   *          This parameter can be a value from 0 to 32K
1698:Drivers/STM32F4xx_HAL_Driver/Src/stm32f4xx_ll_usb.c ****   * @retval HAL state
1699:Drivers/STM32F4xx_HAL_Driver/Src/stm32f4xx_ll_usb.c ****   */
1700:Drivers/STM32F4xx_HAL_Driver/Src/stm32f4xx_ll_usb.c **** HAL_StatusTypeDef USB_HC_Init(USB_OTG_GlobalTypeDef *USBx, uint8_t ch_num,
1701:Drivers/STM32F4xx_HAL_Driver/Src/stm32f4xx_ll_usb.c ****                               uint8_t epnum, uint8_t dev_address, uint8_t speed,
1702:Drivers/STM32F4xx_HAL_Driver/Src/stm32f4xx_ll_usb.c ****                               uint8_t ep_type, uint16_t mps)
1703:Drivers/STM32F4xx_HAL_Driver/Src/stm32f4xx_ll_usb.c **** {
 4033              		.loc 1 1703 1 is_stmt 1 view -0
 4034              		.cfi_startproc
 4035              		@ args = 12, pretend = 0, frame = 0
 4036              		@ frame_needed = 0, uses_anonymous_args = 0
 4037              		.loc 1 1703 1 is_stmt 0 view .LVU1354
 4038 0000 2DE9F843 		push	{r3, r4, r5, r6, r7, r8, r9, lr}
 4039              	.LCFI52:
 4040              		.cfi_def_cfa_offset 32
 4041              		.cfi_offset 3, -32
 4042              		.cfi_offset 4, -28
 4043              		.cfi_offset 5, -24
 4044              		.cfi_offset 6, -20
 4045              		.cfi_offset 7, -16
 4046              		.cfi_offset 8, -12
 4047              		.cfi_offset 9, -8
ARM GAS  /tmp/cc0ThgoX.s 			page 121


 4048              		.cfi_offset 14, -4
 4049 0004 9146     		mov	r9, r2
 4050 0006 1C46     		mov	r4, r3
 4051 0008 9DF82450 		ldrb	r5, [sp, #36]	@ zero_extendqisi2
1704:Drivers/STM32F4xx_HAL_Driver/Src/stm32f4xx_ll_usb.c ****   HAL_StatusTypeDef ret = HAL_OK;
 4052              		.loc 1 1704 3 is_stmt 1 view .LVU1355
 4053              	.LVL304:
1705:Drivers/STM32F4xx_HAL_Driver/Src/stm32f4xx_ll_usb.c ****   uint32_t USBx_BASE = (uint32_t)USBx;
 4054              		.loc 1 1705 3 view .LVU1356
1706:Drivers/STM32F4xx_HAL_Driver/Src/stm32f4xx_ll_usb.c ****   uint32_t HCcharEpDir;
 4055              		.loc 1 1706 3 view .LVU1357
1707:Drivers/STM32F4xx_HAL_Driver/Src/stm32f4xx_ll_usb.c ****   uint32_t HCcharLowSpeed;
 4056              		.loc 1 1707 3 view .LVU1358
1708:Drivers/STM32F4xx_HAL_Driver/Src/stm32f4xx_ll_usb.c ****   uint32_t HostCoreSpeed;
 4057              		.loc 1 1708 3 view .LVU1359
1709:Drivers/STM32F4xx_HAL_Driver/Src/stm32f4xx_ll_usb.c **** 
1710:Drivers/STM32F4xx_HAL_Driver/Src/stm32f4xx_ll_usb.c ****   /* Clear old interrupt conditions for this host channel. */
1711:Drivers/STM32F4xx_HAL_Driver/Src/stm32f4xx_ll_usb.c ****   USBx_HC((uint32_t)ch_num)->HCINT = CLEAR_INTERRUPT_MASK;
 4058              		.loc 1 1711 3 view .LVU1360
 4059 000c 00EB4116 		add	r6, r0, r1, lsl #5
 4060 0010 06F5A063 		add	r3, r6, #1280
 4061              	.LVL305:
 4062              		.loc 1 1711 36 is_stmt 0 view .LVU1361
 4063 0014 4FF0FF32 		mov	r2, #-1
 4064              	.LVL306:
 4065              		.loc 1 1711 36 view .LVU1362
 4066 0018 9A60     		str	r2, [r3, #8]
1712:Drivers/STM32F4xx_HAL_Driver/Src/stm32f4xx_ll_usb.c **** 
1713:Drivers/STM32F4xx_HAL_Driver/Src/stm32f4xx_ll_usb.c ****   /* Enable channel interrupts required for this transfer. */
1714:Drivers/STM32F4xx_HAL_Driver/Src/stm32f4xx_ll_usb.c ****   switch (ep_type)
 4067              		.loc 1 1714 3 is_stmt 1 view .LVU1363
 4068 001a 032D     		cmp	r5, #3
 4069 001c 71D8     		bhi	.L260
 4070 001e DFE805F0 		tbb	[pc, r5]
 4071              	.L253:
 4072 0022 02       		.byte	(.L254-.L253)/2
 4073 0023 62       		.byte	(.L255-.L253)/2
 4074 0024 02       		.byte	(.L254-.L253)/2
 4075 0025 54       		.byte	(.L252-.L253)/2
 4076              		.p2align 1
 4077              	.L254:
1715:Drivers/STM32F4xx_HAL_Driver/Src/stm32f4xx_ll_usb.c ****   {
1716:Drivers/STM32F4xx_HAL_Driver/Src/stm32f4xx_ll_usb.c ****     case EP_TYPE_CTRL:
1717:Drivers/STM32F4xx_HAL_Driver/Src/stm32f4xx_ll_usb.c ****     case EP_TYPE_BULK:
1718:Drivers/STM32F4xx_HAL_Driver/Src/stm32f4xx_ll_usb.c ****       USBx_HC((uint32_t)ch_num)->HCINTMSK = USB_OTG_HCINTMSK_XFRCM  |
 4078              		.loc 1 1718 7 view .LVU1364
 4079              		.loc 1 1718 43 is_stmt 0 view .LVU1365
 4080 0026 40F29D42 		movw	r2, #1181
 4081 002a DA60     		str	r2, [r3, #12]
1719:Drivers/STM32F4xx_HAL_Driver/Src/stm32f4xx_ll_usb.c ****                                             USB_OTG_HCINTMSK_STALLM |
1720:Drivers/STM32F4xx_HAL_Driver/Src/stm32f4xx_ll_usb.c ****                                             USB_OTG_HCINTMSK_TXERRM |
1721:Drivers/STM32F4xx_HAL_Driver/Src/stm32f4xx_ll_usb.c ****                                             USB_OTG_HCINTMSK_DTERRM |
1722:Drivers/STM32F4xx_HAL_Driver/Src/stm32f4xx_ll_usb.c ****                                             USB_OTG_HCINTMSK_AHBERR |
1723:Drivers/STM32F4xx_HAL_Driver/Src/stm32f4xx_ll_usb.c ****                                             USB_OTG_HCINTMSK_NAKM;
1724:Drivers/STM32F4xx_HAL_Driver/Src/stm32f4xx_ll_usb.c **** 
1725:Drivers/STM32F4xx_HAL_Driver/Src/stm32f4xx_ll_usb.c ****       if ((epnum & 0x80U) == 0x80U)
 4082              		.loc 1 1725 7 is_stmt 1 view .LVU1366
ARM GAS  /tmp/cc0ThgoX.s 			page 122


 4083              		.loc 1 1725 10 is_stmt 0 view .LVU1367
 4084 002c 19F0800F 		tst	r9, #128
 4085 0030 45D1     		bne	.L268
1704:Drivers/STM32F4xx_HAL_Driver/Src/stm32f4xx_ll_usb.c ****   uint32_t USBx_BASE = (uint32_t)USBx;
 4086              		.loc 1 1704 21 view .LVU1368
 4087 0032 0027     		movs	r7, #0
 4088              	.L251:
 4089              	.LVL307:
1726:Drivers/STM32F4xx_HAL_Driver/Src/stm32f4xx_ll_usb.c ****       {
1727:Drivers/STM32F4xx_HAL_Driver/Src/stm32f4xx_ll_usb.c ****         USBx_HC((uint32_t)ch_num)->HCINTMSK |= USB_OTG_HCINTMSK_BBERRM;
1728:Drivers/STM32F4xx_HAL_Driver/Src/stm32f4xx_ll_usb.c ****       }
1729:Drivers/STM32F4xx_HAL_Driver/Src/stm32f4xx_ll_usb.c ****       else
1730:Drivers/STM32F4xx_HAL_Driver/Src/stm32f4xx_ll_usb.c ****       {
1731:Drivers/STM32F4xx_HAL_Driver/Src/stm32f4xx_ll_usb.c **** #if defined (USB_OTG_HS)
1732:Drivers/STM32F4xx_HAL_Driver/Src/stm32f4xx_ll_usb.c ****         if (USBx == USB_OTG_HS)
1733:Drivers/STM32F4xx_HAL_Driver/Src/stm32f4xx_ll_usb.c ****         {
1734:Drivers/STM32F4xx_HAL_Driver/Src/stm32f4xx_ll_usb.c ****           USBx_HC((uint32_t)ch_num)->HCINTMSK |= USB_OTG_HCINTMSK_NYET |
1735:Drivers/STM32F4xx_HAL_Driver/Src/stm32f4xx_ll_usb.c ****                                                  USB_OTG_HCINTMSK_ACKM;
1736:Drivers/STM32F4xx_HAL_Driver/Src/stm32f4xx_ll_usb.c ****         }
1737:Drivers/STM32F4xx_HAL_Driver/Src/stm32f4xx_ll_usb.c **** #endif /* defined (USB_OTG_HS) */
1738:Drivers/STM32F4xx_HAL_Driver/Src/stm32f4xx_ll_usb.c ****       }
1739:Drivers/STM32F4xx_HAL_Driver/Src/stm32f4xx_ll_usb.c ****       break;
1740:Drivers/STM32F4xx_HAL_Driver/Src/stm32f4xx_ll_usb.c **** 
1741:Drivers/STM32F4xx_HAL_Driver/Src/stm32f4xx_ll_usb.c ****     case EP_TYPE_INTR:
1742:Drivers/STM32F4xx_HAL_Driver/Src/stm32f4xx_ll_usb.c ****       USBx_HC((uint32_t)ch_num)->HCINTMSK = USB_OTG_HCINTMSK_XFRCM  |
1743:Drivers/STM32F4xx_HAL_Driver/Src/stm32f4xx_ll_usb.c ****                                             USB_OTG_HCINTMSK_STALLM |
1744:Drivers/STM32F4xx_HAL_Driver/Src/stm32f4xx_ll_usb.c ****                                             USB_OTG_HCINTMSK_TXERRM |
1745:Drivers/STM32F4xx_HAL_Driver/Src/stm32f4xx_ll_usb.c ****                                             USB_OTG_HCINTMSK_DTERRM |
1746:Drivers/STM32F4xx_HAL_Driver/Src/stm32f4xx_ll_usb.c ****                                             USB_OTG_HCINTMSK_NAKM   |
1747:Drivers/STM32F4xx_HAL_Driver/Src/stm32f4xx_ll_usb.c ****                                             USB_OTG_HCINTMSK_AHBERR |
1748:Drivers/STM32F4xx_HAL_Driver/Src/stm32f4xx_ll_usb.c ****                                             USB_OTG_HCINTMSK_FRMORM;
1749:Drivers/STM32F4xx_HAL_Driver/Src/stm32f4xx_ll_usb.c **** 
1750:Drivers/STM32F4xx_HAL_Driver/Src/stm32f4xx_ll_usb.c ****       if ((epnum & 0x80U) == 0x80U)
1751:Drivers/STM32F4xx_HAL_Driver/Src/stm32f4xx_ll_usb.c ****       {
1752:Drivers/STM32F4xx_HAL_Driver/Src/stm32f4xx_ll_usb.c ****         USBx_HC((uint32_t)ch_num)->HCINTMSK |= USB_OTG_HCINTMSK_BBERRM;
1753:Drivers/STM32F4xx_HAL_Driver/Src/stm32f4xx_ll_usb.c ****       }
1754:Drivers/STM32F4xx_HAL_Driver/Src/stm32f4xx_ll_usb.c **** 
1755:Drivers/STM32F4xx_HAL_Driver/Src/stm32f4xx_ll_usb.c ****       break;
1756:Drivers/STM32F4xx_HAL_Driver/Src/stm32f4xx_ll_usb.c **** 
1757:Drivers/STM32F4xx_HAL_Driver/Src/stm32f4xx_ll_usb.c ****     case EP_TYPE_ISOC:
1758:Drivers/STM32F4xx_HAL_Driver/Src/stm32f4xx_ll_usb.c ****       USBx_HC((uint32_t)ch_num)->HCINTMSK = USB_OTG_HCINTMSK_XFRCM  |
1759:Drivers/STM32F4xx_HAL_Driver/Src/stm32f4xx_ll_usb.c ****                                             USB_OTG_HCINTMSK_ACKM   |
1760:Drivers/STM32F4xx_HAL_Driver/Src/stm32f4xx_ll_usb.c ****                                             USB_OTG_HCINTMSK_AHBERR |
1761:Drivers/STM32F4xx_HAL_Driver/Src/stm32f4xx_ll_usb.c ****                                             USB_OTG_HCINTMSK_FRMORM;
1762:Drivers/STM32F4xx_HAL_Driver/Src/stm32f4xx_ll_usb.c **** 
1763:Drivers/STM32F4xx_HAL_Driver/Src/stm32f4xx_ll_usb.c ****       if ((epnum & 0x80U) == 0x80U)
1764:Drivers/STM32F4xx_HAL_Driver/Src/stm32f4xx_ll_usb.c ****       {
1765:Drivers/STM32F4xx_HAL_Driver/Src/stm32f4xx_ll_usb.c ****         USBx_HC((uint32_t)ch_num)->HCINTMSK |= (USB_OTG_HCINTMSK_TXERRM | USB_OTG_HCINTMSK_BBERRM);
1766:Drivers/STM32F4xx_HAL_Driver/Src/stm32f4xx_ll_usb.c ****       }
1767:Drivers/STM32F4xx_HAL_Driver/Src/stm32f4xx_ll_usb.c ****       break;
1768:Drivers/STM32F4xx_HAL_Driver/Src/stm32f4xx_ll_usb.c **** 
1769:Drivers/STM32F4xx_HAL_Driver/Src/stm32f4xx_ll_usb.c ****     default:
1770:Drivers/STM32F4xx_HAL_Driver/Src/stm32f4xx_ll_usb.c ****       ret = HAL_ERROR;
1771:Drivers/STM32F4xx_HAL_Driver/Src/stm32f4xx_ll_usb.c ****       break;
1772:Drivers/STM32F4xx_HAL_Driver/Src/stm32f4xx_ll_usb.c ****   }
1773:Drivers/STM32F4xx_HAL_Driver/Src/stm32f4xx_ll_usb.c **** 
1774:Drivers/STM32F4xx_HAL_Driver/Src/stm32f4xx_ll_usb.c ****   /* Clear Hub Start Split transaction */
ARM GAS  /tmp/cc0ThgoX.s 			page 123


1775:Drivers/STM32F4xx_HAL_Driver/Src/stm32f4xx_ll_usb.c ****   USBx_HC((uint32_t)ch_num)->HCSPLT = 0U;
 4090              		.loc 1 1775 3 is_stmt 1 view .LVU1369
 4091              		.loc 1 1775 37 is_stmt 0 view .LVU1370
 4092 0034 0022     		movs	r2, #0
 4093 0036 5A60     		str	r2, [r3, #4]
1776:Drivers/STM32F4xx_HAL_Driver/Src/stm32f4xx_ll_usb.c **** 
1777:Drivers/STM32F4xx_HAL_Driver/Src/stm32f4xx_ll_usb.c ****   /* Enable host channel Halt interrupt */
1778:Drivers/STM32F4xx_HAL_Driver/Src/stm32f4xx_ll_usb.c ****   USBx_HC((uint32_t)ch_num)->HCINTMSK |= USB_OTG_HCINTMSK_CHHM;
 4094              		.loc 1 1778 3 is_stmt 1 view .LVU1371
 4095              		.loc 1 1778 28 is_stmt 0 view .LVU1372
 4096 0038 DA68     		ldr	r2, [r3, #12]
 4097              		.loc 1 1778 39 view .LVU1373
 4098 003a 42F00202 		orr	r2, r2, #2
 4099 003e DA60     		str	r2, [r3, #12]
1779:Drivers/STM32F4xx_HAL_Driver/Src/stm32f4xx_ll_usb.c **** 
1780:Drivers/STM32F4xx_HAL_Driver/Src/stm32f4xx_ll_usb.c ****   /* Enable the top level host channel interrupt. */
1781:Drivers/STM32F4xx_HAL_Driver/Src/stm32f4xx_ll_usb.c ****   USBx_HOST->HAINTMSK |= 1UL << (ch_num & 0xFU);
 4100              		.loc 1 1781 3 is_stmt 1 view .LVU1374
 4101              		.loc 1 1781 12 is_stmt 0 view .LVU1375
 4102 0040 D0F81834 		ldr	r3, [r0, #1048]
 4103              		.loc 1 1781 41 view .LVU1376
 4104 0044 01F00F01 		and	r1, r1, #15
 4105              	.LVL308:
 4106              		.loc 1 1781 30 view .LVU1377
 4107 0048 0122     		movs	r2, #1
 4108 004a 8A40     		lsls	r2, r2, r1
 4109              		.loc 1 1781 23 view .LVU1378
 4110 004c 1343     		orrs	r3, r3, r2
 4111 004e C0F81834 		str	r3, [r0, #1048]
1782:Drivers/STM32F4xx_HAL_Driver/Src/stm32f4xx_ll_usb.c **** 
1783:Drivers/STM32F4xx_HAL_Driver/Src/stm32f4xx_ll_usb.c ****   /* Make sure host channel interrupts are enabled. */
1784:Drivers/STM32F4xx_HAL_Driver/Src/stm32f4xx_ll_usb.c ****   USBx->GINTMSK |= USB_OTG_GINTMSK_HCIM;
 4112              		.loc 1 1784 3 is_stmt 1 view .LVU1379
 4113              		.loc 1 1784 7 is_stmt 0 view .LVU1380
 4114 0052 8369     		ldr	r3, [r0, #24]
 4115              		.loc 1 1784 17 view .LVU1381
 4116 0054 43F00073 		orr	r3, r3, #33554432
 4117 0058 8361     		str	r3, [r0, #24]
1785:Drivers/STM32F4xx_HAL_Driver/Src/stm32f4xx_ll_usb.c **** 
1786:Drivers/STM32F4xx_HAL_Driver/Src/stm32f4xx_ll_usb.c ****   /* Program the HCCHAR register */
1787:Drivers/STM32F4xx_HAL_Driver/Src/stm32f4xx_ll_usb.c ****   if ((epnum & 0x80U) == 0x80U)
 4118              		.loc 1 1787 3 is_stmt 1 view .LVU1382
 4119              		.loc 1 1787 6 is_stmt 0 view .LVU1383
 4120 005a 19F0800F 		tst	r9, #128
 4121 005e 52D1     		bne	.L269
1788:Drivers/STM32F4xx_HAL_Driver/Src/stm32f4xx_ll_usb.c ****   {
1789:Drivers/STM32F4xx_HAL_Driver/Src/stm32f4xx_ll_usb.c ****     HCcharEpDir = (0x1U << 15) & USB_OTG_HCCHAR_EPDIR;
1790:Drivers/STM32F4xx_HAL_Driver/Src/stm32f4xx_ll_usb.c ****   }
1791:Drivers/STM32F4xx_HAL_Driver/Src/stm32f4xx_ll_usb.c ****   else
1792:Drivers/STM32F4xx_HAL_Driver/Src/stm32f4xx_ll_usb.c ****   {
1793:Drivers/STM32F4xx_HAL_Driver/Src/stm32f4xx_ll_usb.c ****     HCcharEpDir = 0U;
 4122              		.loc 1 1793 17 view .LVU1384
 4123 0060 4FF00008 		mov	r8, #0
 4124              	.L256:
 4125              	.LVL309:
1794:Drivers/STM32F4xx_HAL_Driver/Src/stm32f4xx_ll_usb.c ****   }
1795:Drivers/STM32F4xx_HAL_Driver/Src/stm32f4xx_ll_usb.c **** 
ARM GAS  /tmp/cc0ThgoX.s 			page 124


1796:Drivers/STM32F4xx_HAL_Driver/Src/stm32f4xx_ll_usb.c ****   HostCoreSpeed = USB_GetHostSpeed(USBx);
 4126              		.loc 1 1796 3 is_stmt 1 view .LVU1385
 4127              		.loc 1 1796 19 is_stmt 0 view .LVU1386
 4128 0064 FFF7FEFF 		bl	USB_GetHostSpeed
 4129              	.LVL310:
1797:Drivers/STM32F4xx_HAL_Driver/Src/stm32f4xx_ll_usb.c **** 
1798:Drivers/STM32F4xx_HAL_Driver/Src/stm32f4xx_ll_usb.c ****   /* LS device plugged to HUB */
1799:Drivers/STM32F4xx_HAL_Driver/Src/stm32f4xx_ll_usb.c ****   if ((speed == HPRT0_PRTSPD_LOW_SPEED) && (HostCoreSpeed != HPRT0_PRTSPD_LOW_SPEED))
 4130              		.loc 1 1799 3 is_stmt 1 view .LVU1387
 4131              		.loc 1 1799 6 is_stmt 0 view .LVU1388
 4132 0068 9DF82030 		ldrb	r3, [sp, #32]	@ zero_extendqisi2
 4133 006c 022B     		cmp	r3, #2
 4134 006e 4DD0     		beq	.L270
1800:Drivers/STM32F4xx_HAL_Driver/Src/stm32f4xx_ll_usb.c ****   {
1801:Drivers/STM32F4xx_HAL_Driver/Src/stm32f4xx_ll_usb.c ****     HCcharLowSpeed = (0x1U << 17) & USB_OTG_HCCHAR_LSDEV;
1802:Drivers/STM32F4xx_HAL_Driver/Src/stm32f4xx_ll_usb.c ****   }
1803:Drivers/STM32F4xx_HAL_Driver/Src/stm32f4xx_ll_usb.c ****   else
1804:Drivers/STM32F4xx_HAL_Driver/Src/stm32f4xx_ll_usb.c ****   {
1805:Drivers/STM32F4xx_HAL_Driver/Src/stm32f4xx_ll_usb.c ****     HCcharLowSpeed = 0U;
 4135              		.loc 1 1805 20 view .LVU1389
 4136 0070 0022     		movs	r2, #0
 4137              	.L257:
 4138              	.LVL311:
1806:Drivers/STM32F4xx_HAL_Driver/Src/stm32f4xx_ll_usb.c ****   }
1807:Drivers/STM32F4xx_HAL_Driver/Src/stm32f4xx_ll_usb.c **** 
1808:Drivers/STM32F4xx_HAL_Driver/Src/stm32f4xx_ll_usb.c ****   USBx_HC((uint32_t)ch_num)->HCCHAR = (((uint32_t)dev_address << 22) & USB_OTG_HCCHAR_DAD) |
 4139              		.loc 1 1808 3 is_stmt 1 view .LVU1390
 4140              		.loc 1 1808 63 is_stmt 0 view .LVU1391
 4141 0072 A305     		lsls	r3, r4, #22
 4142              		.loc 1 1808 70 view .LVU1392
 4143 0074 03F0FE53 		and	r3, r3, #532676608
1809:Drivers/STM32F4xx_HAL_Driver/Src/stm32f4xx_ll_usb.c ****                                       ((((uint32_t)epnum & 0x7FU) << 11) & USB_OTG_HCCHAR_EPNUM) |
 4144              		.loc 1 1809 67 view .LVU1393
 4145 0078 4FEAC929 		lsl	r9, r9, #11
 4146              	.LVL312:
 4147              		.loc 1 1809 74 view .LVU1394
 4148 007c 09F4F049 		and	r9, r9, #30720
1808:Drivers/STM32F4xx_HAL_Driver/Src/stm32f4xx_ll_usb.c ****                                       ((((uint32_t)epnum & 0x7FU) << 11) & USB_OTG_HCCHAR_EPNUM) |
 4149              		.loc 1 1808 92 view .LVU1395
 4150 0080 43EA0903 		orr	r3, r3, r9
1810:Drivers/STM32F4xx_HAL_Driver/Src/stm32f4xx_ll_usb.c ****                                       (((uint32_t)ep_type << 18) & USB_OTG_HCCHAR_EPTYP) |
 4151              		.loc 1 1810 59 view .LVU1396
 4152 0084 A904     		lsls	r1, r5, #18
 4153              		.loc 1 1810 66 view .LVU1397
 4154 0086 01F44021 		and	r1, r1, #786432
1809:Drivers/STM32F4xx_HAL_Driver/Src/stm32f4xx_ll_usb.c ****                                       ((((uint32_t)epnum & 0x7FU) << 11) & USB_OTG_HCCHAR_EPNUM) |
 4155              		.loc 1 1809 98 view .LVU1398
 4156 008a 0B43     		orrs	r3, r3, r1
1811:Drivers/STM32F4xx_HAL_Driver/Src/stm32f4xx_ll_usb.c ****                                       ((uint32_t)mps & USB_OTG_HCCHAR_MPSIZ) |
 4157              		.loc 1 1811 54 view .LVU1399
 4158 008c BDF82810 		ldrh	r1, [sp, #40]
 4159 0090 C1F30A01 		ubfx	r1, r1, #0, #11
1810:Drivers/STM32F4xx_HAL_Driver/Src/stm32f4xx_ll_usb.c ****                                       (((uint32_t)ep_type << 18) & USB_OTG_HCCHAR_EPTYP) |
 4160              		.loc 1 1810 90 view .LVU1400
 4161 0094 0B43     		orrs	r3, r3, r1
1812:Drivers/STM32F4xx_HAL_Driver/Src/stm32f4xx_ll_usb.c ****                                       USB_OTG_HCCHAR_MC_0 | HCcharEpDir | HCcharLowSpeed;
 4162              		.loc 1 1812 59 view .LVU1401
ARM GAS  /tmp/cc0ThgoX.s 			page 125


 4163 0096 43EA0803 		orr	r3, r3, r8
 4164              		.loc 1 1812 73 view .LVU1402
 4165 009a 1343     		orrs	r3, r3, r2
 4166 009c 43F48013 		orr	r3, r3, #1048576
1808:Drivers/STM32F4xx_HAL_Driver/Src/stm32f4xx_ll_usb.c ****                                       ((((uint32_t)epnum & 0x7FU) << 11) & USB_OTG_HCCHAR_EPNUM) |
 4167              		.loc 1 1808 37 view .LVU1403
 4168 00a0 C6F80035 		str	r3, [r6, #1280]
1813:Drivers/STM32F4xx_HAL_Driver/Src/stm32f4xx_ll_usb.c **** 
1814:Drivers/STM32F4xx_HAL_Driver/Src/stm32f4xx_ll_usb.c ****   if ((ep_type == EP_TYPE_INTR) || (ep_type == EP_TYPE_ISOC))
 4169              		.loc 1 1814 3 is_stmt 1 view .LVU1404
 4170              		.loc 1 1814 6 is_stmt 0 view .LVU1405
 4171 00a4 032D     		cmp	r5, #3
 4172 00a6 01D0     		beq	.L258
 4173              		.loc 1 1814 33 discriminator 1 view .LVU1406
 4174 00a8 012D     		cmp	r5, #1
 4175 00aa 05D1     		bne	.L259
 4176              	.L258:
1815:Drivers/STM32F4xx_HAL_Driver/Src/stm32f4xx_ll_usb.c ****   {
1816:Drivers/STM32F4xx_HAL_Driver/Src/stm32f4xx_ll_usb.c ****     USBx_HC((uint32_t)ch_num)->HCCHAR |= USB_OTG_HCCHAR_ODDFRM;
 4177              		.loc 1 1816 5 is_stmt 1 view .LVU1407
 4178              		.loc 1 1816 30 is_stmt 0 view .LVU1408
 4179 00ac D6F80035 		ldr	r3, [r6, #1280]
 4180              		.loc 1 1816 39 view .LVU1409
 4181 00b0 43F00053 		orr	r3, r3, #536870912
 4182 00b4 C6F80035 		str	r3, [r6, #1280]
 4183              	.L259:
1817:Drivers/STM32F4xx_HAL_Driver/Src/stm32f4xx_ll_usb.c ****   }
1818:Drivers/STM32F4xx_HAL_Driver/Src/stm32f4xx_ll_usb.c **** 
1819:Drivers/STM32F4xx_HAL_Driver/Src/stm32f4xx_ll_usb.c ****   return ret;
 4184              		.loc 1 1819 3 is_stmt 1 view .LVU1410
1820:Drivers/STM32F4xx_HAL_Driver/Src/stm32f4xx_ll_usb.c **** }
 4185              		.loc 1 1820 1 is_stmt 0 view .LVU1411
 4186 00b8 3846     		mov	r0, r7
 4187              	.LVL313:
 4188              		.loc 1 1820 1 view .LVU1412
 4189 00ba BDE8F883 		pop	{r3, r4, r5, r6, r7, r8, r9, pc}
 4190              	.LVL314:
 4191              	.L268:
1727:Drivers/STM32F4xx_HAL_Driver/Src/stm32f4xx_ll_usb.c ****       }
 4192              		.loc 1 1727 9 is_stmt 1 view .LVU1413
1727:Drivers/STM32F4xx_HAL_Driver/Src/stm32f4xx_ll_usb.c ****       }
 4193              		.loc 1 1727 34 is_stmt 0 view .LVU1414
 4194 00be DA68     		ldr	r2, [r3, #12]
1727:Drivers/STM32F4xx_HAL_Driver/Src/stm32f4xx_ll_usb.c ****       }
 4195              		.loc 1 1727 45 view .LVU1415
 4196 00c0 42F48072 		orr	r2, r2, #256
 4197 00c4 DA60     		str	r2, [r3, #12]
1704:Drivers/STM32F4xx_HAL_Driver/Src/stm32f4xx_ll_usb.c ****   uint32_t USBx_BASE = (uint32_t)USBx;
 4198              		.loc 1 1704 21 view .LVU1416
 4199 00c6 0027     		movs	r7, #0
 4200 00c8 B4E7     		b	.L251
 4201              	.L252:
1742:Drivers/STM32F4xx_HAL_Driver/Src/stm32f4xx_ll_usb.c ****                                             USB_OTG_HCINTMSK_STALLM |
 4202              		.loc 1 1742 7 is_stmt 1 view .LVU1417
1742:Drivers/STM32F4xx_HAL_Driver/Src/stm32f4xx_ll_usb.c ****                                             USB_OTG_HCINTMSK_STALLM |
 4203              		.loc 1 1742 43 is_stmt 0 view .LVU1418
 4204 00ca 40F29D62 		movw	r2, #1693
ARM GAS  /tmp/cc0ThgoX.s 			page 126


 4205 00ce DA60     		str	r2, [r3, #12]
1750:Drivers/STM32F4xx_HAL_Driver/Src/stm32f4xx_ll_usb.c ****       {
 4206              		.loc 1 1750 7 is_stmt 1 view .LVU1419
1750:Drivers/STM32F4xx_HAL_Driver/Src/stm32f4xx_ll_usb.c ****       {
 4207              		.loc 1 1750 10 is_stmt 0 view .LVU1420
 4208 00d0 19F0800F 		tst	r9, #128
 4209 00d4 01D1     		bne	.L271
1704:Drivers/STM32F4xx_HAL_Driver/Src/stm32f4xx_ll_usb.c ****   uint32_t USBx_BASE = (uint32_t)USBx;
 4210              		.loc 1 1704 21 view .LVU1421
 4211 00d6 0027     		movs	r7, #0
 4212 00d8 ACE7     		b	.L251
 4213              	.L271:
1752:Drivers/STM32F4xx_HAL_Driver/Src/stm32f4xx_ll_usb.c ****       }
 4214              		.loc 1 1752 9 is_stmt 1 view .LVU1422
1752:Drivers/STM32F4xx_HAL_Driver/Src/stm32f4xx_ll_usb.c ****       }
 4215              		.loc 1 1752 34 is_stmt 0 view .LVU1423
 4216 00da DA68     		ldr	r2, [r3, #12]
1752:Drivers/STM32F4xx_HAL_Driver/Src/stm32f4xx_ll_usb.c ****       }
 4217              		.loc 1 1752 45 view .LVU1424
 4218 00dc 42F48072 		orr	r2, r2, #256
 4219 00e0 DA60     		str	r2, [r3, #12]
1704:Drivers/STM32F4xx_HAL_Driver/Src/stm32f4xx_ll_usb.c ****   uint32_t USBx_BASE = (uint32_t)USBx;
 4220              		.loc 1 1704 21 view .LVU1425
 4221 00e2 0027     		movs	r7, #0
 4222 00e4 A6E7     		b	.L251
 4223              	.L255:
1758:Drivers/STM32F4xx_HAL_Driver/Src/stm32f4xx_ll_usb.c ****                                             USB_OTG_HCINTMSK_ACKM   |
 4224              		.loc 1 1758 7 is_stmt 1 view .LVU1426
1758:Drivers/STM32F4xx_HAL_Driver/Src/stm32f4xx_ll_usb.c ****                                             USB_OTG_HCINTMSK_ACKM   |
 4225              		.loc 1 1758 43 is_stmt 0 view .LVU1427
 4226 00e6 40F22522 		movw	r2, #549
 4227 00ea DA60     		str	r2, [r3, #12]
1763:Drivers/STM32F4xx_HAL_Driver/Src/stm32f4xx_ll_usb.c ****       {
 4228              		.loc 1 1763 7 is_stmt 1 view .LVU1428
1763:Drivers/STM32F4xx_HAL_Driver/Src/stm32f4xx_ll_usb.c ****       {
 4229              		.loc 1 1763 10 is_stmt 0 view .LVU1429
 4230 00ec 19F0800F 		tst	r9, #128
 4231 00f0 01D1     		bne	.L272
1704:Drivers/STM32F4xx_HAL_Driver/Src/stm32f4xx_ll_usb.c ****   uint32_t USBx_BASE = (uint32_t)USBx;
 4232              		.loc 1 1704 21 view .LVU1430
 4233 00f2 0027     		movs	r7, #0
 4234 00f4 9EE7     		b	.L251
 4235              	.L272:
1765:Drivers/STM32F4xx_HAL_Driver/Src/stm32f4xx_ll_usb.c ****       }
 4236              		.loc 1 1765 9 is_stmt 1 view .LVU1431
1765:Drivers/STM32F4xx_HAL_Driver/Src/stm32f4xx_ll_usb.c ****       }
 4237              		.loc 1 1765 34 is_stmt 0 view .LVU1432
 4238 00f6 DA68     		ldr	r2, [r3, #12]
1765:Drivers/STM32F4xx_HAL_Driver/Src/stm32f4xx_ll_usb.c ****       }
 4239              		.loc 1 1765 45 view .LVU1433
 4240 00f8 42F4C072 		orr	r2, r2, #384
 4241 00fc DA60     		str	r2, [r3, #12]
1704:Drivers/STM32F4xx_HAL_Driver/Src/stm32f4xx_ll_usb.c ****   uint32_t USBx_BASE = (uint32_t)USBx;
 4242              		.loc 1 1704 21 view .LVU1434
 4243 00fe 0027     		movs	r7, #0
 4244 0100 98E7     		b	.L251
 4245              	.L260:
ARM GAS  /tmp/cc0ThgoX.s 			page 127


1714:Drivers/STM32F4xx_HAL_Driver/Src/stm32f4xx_ll_usb.c ****   {
 4246              		.loc 1 1714 3 view .LVU1435
 4247 0102 0127     		movs	r7, #1
 4248 0104 96E7     		b	.L251
 4249              	.LVL315:
 4250              	.L269:
1789:Drivers/STM32F4xx_HAL_Driver/Src/stm32f4xx_ll_usb.c ****   }
 4251              		.loc 1 1789 17 view .LVU1436
 4252 0106 4FF40048 		mov	r8, #32768
 4253 010a ABE7     		b	.L256
 4254              	.LVL316:
 4255              	.L270:
1799:Drivers/STM32F4xx_HAL_Driver/Src/stm32f4xx_ll_usb.c ****   {
 4256              		.loc 1 1799 41 discriminator 1 view .LVU1437
 4257 010c 0228     		cmp	r0, #2
 4258 010e 02D0     		beq	.L273
1801:Drivers/STM32F4xx_HAL_Driver/Src/stm32f4xx_ll_usb.c ****   }
 4259              		.loc 1 1801 20 view .LVU1438
 4260 0110 4FF40032 		mov	r2, #131072
 4261 0114 ADE7     		b	.L257
 4262              	.L273:
1805:Drivers/STM32F4xx_HAL_Driver/Src/stm32f4xx_ll_usb.c ****   }
 4263              		.loc 1 1805 20 view .LVU1439
 4264 0116 0022     		movs	r2, #0
 4265 0118 ABE7     		b	.L257
 4266              		.cfi_endproc
 4267              	.LFE175:
 4269              		.section	.text.USB_HC_StartXfer,"ax",%progbits
 4270              		.align	1
 4271              		.global	USB_HC_StartXfer
 4272              		.syntax unified
 4273              		.thumb
 4274              		.thumb_func
 4276              	USB_HC_StartXfer:
 4277              	.LVL317:
 4278              	.LFB176:
1821:Drivers/STM32F4xx_HAL_Driver/Src/stm32f4xx_ll_usb.c **** 
1822:Drivers/STM32F4xx_HAL_Driver/Src/stm32f4xx_ll_usb.c **** /**
1823:Drivers/STM32F4xx_HAL_Driver/Src/stm32f4xx_ll_usb.c ****   * @brief  Start a transfer over a host channel
1824:Drivers/STM32F4xx_HAL_Driver/Src/stm32f4xx_ll_usb.c ****   * @param  USBx  Selected device
1825:Drivers/STM32F4xx_HAL_Driver/Src/stm32f4xx_ll_usb.c ****   * @param  hc  pointer to host channel structure
1826:Drivers/STM32F4xx_HAL_Driver/Src/stm32f4xx_ll_usb.c ****   * @param  dma USB dma enabled or disabled
1827:Drivers/STM32F4xx_HAL_Driver/Src/stm32f4xx_ll_usb.c ****   *          This parameter can be one of these values:
1828:Drivers/STM32F4xx_HAL_Driver/Src/stm32f4xx_ll_usb.c ****   *           0 : DMA feature not used
1829:Drivers/STM32F4xx_HAL_Driver/Src/stm32f4xx_ll_usb.c ****   *           1 : DMA feature used
1830:Drivers/STM32F4xx_HAL_Driver/Src/stm32f4xx_ll_usb.c ****   * @retval HAL state
1831:Drivers/STM32F4xx_HAL_Driver/Src/stm32f4xx_ll_usb.c ****   */
1832:Drivers/STM32F4xx_HAL_Driver/Src/stm32f4xx_ll_usb.c **** HAL_StatusTypeDef USB_HC_StartXfer(USB_OTG_GlobalTypeDef *USBx, USB_OTG_HCTypeDef *hc, uint8_t dma)
1833:Drivers/STM32F4xx_HAL_Driver/Src/stm32f4xx_ll_usb.c **** {
 4279              		.loc 1 1833 1 is_stmt 1 view -0
 4280              		.cfi_startproc
 4281              		@ args = 0, pretend = 0, frame = 8
 4282              		@ frame_needed = 0, uses_anonymous_args = 0
 4283              		.loc 1 1833 1 is_stmt 0 view .LVU1441
 4284 0000 30B5     		push	{r4, r5, lr}
 4285              	.LCFI53:
 4286              		.cfi_def_cfa_offset 12
ARM GAS  /tmp/cc0ThgoX.s 			page 128


 4287              		.cfi_offset 4, -12
 4288              		.cfi_offset 5, -8
 4289              		.cfi_offset 14, -4
 4290 0002 85B0     		sub	sp, sp, #20
 4291              	.LCFI54:
 4292              		.cfi_def_cfa_offset 32
1834:Drivers/STM32F4xx_HAL_Driver/Src/stm32f4xx_ll_usb.c ****   uint32_t USBx_BASE = (uint32_t)USBx;
 4293              		.loc 1 1834 3 is_stmt 1 view .LVU1442
 4294              	.LVL318:
1835:Drivers/STM32F4xx_HAL_Driver/Src/stm32f4xx_ll_usb.c ****   uint32_t ch_num = (uint32_t)hc->ch_num;
 4295              		.loc 1 1835 3 view .LVU1443
 4296              		.loc 1 1835 33 is_stmt 0 view .LVU1444
 4297 0004 4B78     		ldrb	r3, [r1, #1]	@ zero_extendqisi2
 4298              	.LVL319:
1836:Drivers/STM32F4xx_HAL_Driver/Src/stm32f4xx_ll_usb.c ****   __IO uint32_t tmpreg;
 4299              		.loc 1 1836 3 is_stmt 1 view .LVU1445
1837:Drivers/STM32F4xx_HAL_Driver/Src/stm32f4xx_ll_usb.c ****   uint8_t  is_oddframe;
 4300              		.loc 1 1837 3 view .LVU1446
1838:Drivers/STM32F4xx_HAL_Driver/Src/stm32f4xx_ll_usb.c ****   uint16_t len_words;
 4301              		.loc 1 1838 3 view .LVU1447
1839:Drivers/STM32F4xx_HAL_Driver/Src/stm32f4xx_ll_usb.c ****   uint16_t num_packets;
 4302              		.loc 1 1839 3 view .LVU1448
1840:Drivers/STM32F4xx_HAL_Driver/Src/stm32f4xx_ll_usb.c ****   uint16_t max_hc_pkt_count = HC_MAX_PKT_CNT;
 4303              		.loc 1 1840 3 view .LVU1449
1841:Drivers/STM32F4xx_HAL_Driver/Src/stm32f4xx_ll_usb.c **** 
1842:Drivers/STM32F4xx_HAL_Driver/Src/stm32f4xx_ll_usb.c **** #if defined (USB_OTG_HS)
1843:Drivers/STM32F4xx_HAL_Driver/Src/stm32f4xx_ll_usb.c ****   if (USBx == USB_OTG_HS)
1844:Drivers/STM32F4xx_HAL_Driver/Src/stm32f4xx_ll_usb.c ****   {
1845:Drivers/STM32F4xx_HAL_Driver/Src/stm32f4xx_ll_usb.c ****     /* in DMA mode host Core automatically issues ping in case of NYET/NAK */
1846:Drivers/STM32F4xx_HAL_Driver/Src/stm32f4xx_ll_usb.c ****     if (dma == 1U)
1847:Drivers/STM32F4xx_HAL_Driver/Src/stm32f4xx_ll_usb.c ****     {
1848:Drivers/STM32F4xx_HAL_Driver/Src/stm32f4xx_ll_usb.c ****       if (((hc->ep_type == EP_TYPE_CTRL) || (hc->ep_type == EP_TYPE_BULK)) && (hc->do_ssplit == 0U)
1849:Drivers/STM32F4xx_HAL_Driver/Src/stm32f4xx_ll_usb.c ****       {
1850:Drivers/STM32F4xx_HAL_Driver/Src/stm32f4xx_ll_usb.c **** 
1851:Drivers/STM32F4xx_HAL_Driver/Src/stm32f4xx_ll_usb.c ****         USBx_HC((uint32_t)ch_num)->HCINTMSK &= ~(USB_OTG_HCINTMSK_NYET |
1852:Drivers/STM32F4xx_HAL_Driver/Src/stm32f4xx_ll_usb.c ****                                                  USB_OTG_HCINTMSK_ACKM |
1853:Drivers/STM32F4xx_HAL_Driver/Src/stm32f4xx_ll_usb.c ****                                                  USB_OTG_HCINTMSK_NAKM);
1854:Drivers/STM32F4xx_HAL_Driver/Src/stm32f4xx_ll_usb.c ****       }
1855:Drivers/STM32F4xx_HAL_Driver/Src/stm32f4xx_ll_usb.c ****     }
1856:Drivers/STM32F4xx_HAL_Driver/Src/stm32f4xx_ll_usb.c ****     else
1857:Drivers/STM32F4xx_HAL_Driver/Src/stm32f4xx_ll_usb.c ****     {
1858:Drivers/STM32F4xx_HAL_Driver/Src/stm32f4xx_ll_usb.c ****       if ((hc->speed == USBH_HS_SPEED) && (hc->do_ping == 1U))
1859:Drivers/STM32F4xx_HAL_Driver/Src/stm32f4xx_ll_usb.c ****       {
1860:Drivers/STM32F4xx_HAL_Driver/Src/stm32f4xx_ll_usb.c ****         (void)USB_DoPing(USBx, hc->ch_num);
1861:Drivers/STM32F4xx_HAL_Driver/Src/stm32f4xx_ll_usb.c ****         return HAL_OK;
1862:Drivers/STM32F4xx_HAL_Driver/Src/stm32f4xx_ll_usb.c ****       }
1863:Drivers/STM32F4xx_HAL_Driver/Src/stm32f4xx_ll_usb.c ****     }
1864:Drivers/STM32F4xx_HAL_Driver/Src/stm32f4xx_ll_usb.c ****   }
1865:Drivers/STM32F4xx_HAL_Driver/Src/stm32f4xx_ll_usb.c **** #endif /* defined (USB_OTG_HS) */
1866:Drivers/STM32F4xx_HAL_Driver/Src/stm32f4xx_ll_usb.c **** 
1867:Drivers/STM32F4xx_HAL_Driver/Src/stm32f4xx_ll_usb.c ****   if (hc->do_ssplit == 1U)
 4304              		.loc 1 1867 3 view .LVU1450
 4305              		.loc 1 1867 9 is_stmt 0 view .LVU1451
 4306 0006 8C79     		ldrb	r4, [r1, #6]	@ zero_extendqisi2
 4307              		.loc 1 1867 6 view .LVU1452
 4308 0008 012C     		cmp	r4, #1
 4309 000a 13D0     		beq	.L307
ARM GAS  /tmp/cc0ThgoX.s 			page 129


1868:Drivers/STM32F4xx_HAL_Driver/Src/stm32f4xx_ll_usb.c ****   {
1869:Drivers/STM32F4xx_HAL_Driver/Src/stm32f4xx_ll_usb.c ****     /* Set number of packet to 1 for Split transaction */
1870:Drivers/STM32F4xx_HAL_Driver/Src/stm32f4xx_ll_usb.c ****     num_packets = 1U;
1871:Drivers/STM32F4xx_HAL_Driver/Src/stm32f4xx_ll_usb.c **** 
1872:Drivers/STM32F4xx_HAL_Driver/Src/stm32f4xx_ll_usb.c ****     if (hc->ep_is_in != 0U)
1873:Drivers/STM32F4xx_HAL_Driver/Src/stm32f4xx_ll_usb.c ****     {
1874:Drivers/STM32F4xx_HAL_Driver/Src/stm32f4xx_ll_usb.c ****       hc->XferSize = (uint32_t)num_packets * hc->max_packet;
1875:Drivers/STM32F4xx_HAL_Driver/Src/stm32f4xx_ll_usb.c ****     }
1876:Drivers/STM32F4xx_HAL_Driver/Src/stm32f4xx_ll_usb.c ****     else
1877:Drivers/STM32F4xx_HAL_Driver/Src/stm32f4xx_ll_usb.c ****     {
1878:Drivers/STM32F4xx_HAL_Driver/Src/stm32f4xx_ll_usb.c ****       if (hc->ep_type == EP_TYPE_ISOC)
1879:Drivers/STM32F4xx_HAL_Driver/Src/stm32f4xx_ll_usb.c ****       {
1880:Drivers/STM32F4xx_HAL_Driver/Src/stm32f4xx_ll_usb.c ****         if (hc->xfer_len > ISO_SPLT_MPS)
1881:Drivers/STM32F4xx_HAL_Driver/Src/stm32f4xx_ll_usb.c ****         {
1882:Drivers/STM32F4xx_HAL_Driver/Src/stm32f4xx_ll_usb.c ****           /* Isochrone Max Packet Size for Split mode */
1883:Drivers/STM32F4xx_HAL_Driver/Src/stm32f4xx_ll_usb.c ****           hc->XferSize = hc->max_packet;
1884:Drivers/STM32F4xx_HAL_Driver/Src/stm32f4xx_ll_usb.c ****           hc->xfer_len = hc->XferSize;
1885:Drivers/STM32F4xx_HAL_Driver/Src/stm32f4xx_ll_usb.c **** 
1886:Drivers/STM32F4xx_HAL_Driver/Src/stm32f4xx_ll_usb.c ****           if ((hc->iso_splt_xactPos == HCSPLT_BEGIN) || (hc->iso_splt_xactPos == HCSPLT_MIDDLE))
1887:Drivers/STM32F4xx_HAL_Driver/Src/stm32f4xx_ll_usb.c ****           {
1888:Drivers/STM32F4xx_HAL_Driver/Src/stm32f4xx_ll_usb.c ****             hc->iso_splt_xactPos = HCSPLT_MIDDLE;
1889:Drivers/STM32F4xx_HAL_Driver/Src/stm32f4xx_ll_usb.c ****           }
1890:Drivers/STM32F4xx_HAL_Driver/Src/stm32f4xx_ll_usb.c ****           else
1891:Drivers/STM32F4xx_HAL_Driver/Src/stm32f4xx_ll_usb.c ****           {
1892:Drivers/STM32F4xx_HAL_Driver/Src/stm32f4xx_ll_usb.c ****             hc->iso_splt_xactPos = HCSPLT_BEGIN;
1893:Drivers/STM32F4xx_HAL_Driver/Src/stm32f4xx_ll_usb.c ****           }
1894:Drivers/STM32F4xx_HAL_Driver/Src/stm32f4xx_ll_usb.c ****         }
1895:Drivers/STM32F4xx_HAL_Driver/Src/stm32f4xx_ll_usb.c ****         else
1896:Drivers/STM32F4xx_HAL_Driver/Src/stm32f4xx_ll_usb.c ****         {
1897:Drivers/STM32F4xx_HAL_Driver/Src/stm32f4xx_ll_usb.c ****           hc->XferSize = hc->xfer_len;
1898:Drivers/STM32F4xx_HAL_Driver/Src/stm32f4xx_ll_usb.c **** 
1899:Drivers/STM32F4xx_HAL_Driver/Src/stm32f4xx_ll_usb.c ****           if ((hc->iso_splt_xactPos != HCSPLT_BEGIN) && (hc->iso_splt_xactPos != HCSPLT_MIDDLE))
1900:Drivers/STM32F4xx_HAL_Driver/Src/stm32f4xx_ll_usb.c ****           {
1901:Drivers/STM32F4xx_HAL_Driver/Src/stm32f4xx_ll_usb.c ****             hc->iso_splt_xactPos = HCSPLT_FULL;
1902:Drivers/STM32F4xx_HAL_Driver/Src/stm32f4xx_ll_usb.c ****           }
1903:Drivers/STM32F4xx_HAL_Driver/Src/stm32f4xx_ll_usb.c ****           else
1904:Drivers/STM32F4xx_HAL_Driver/Src/stm32f4xx_ll_usb.c ****           {
1905:Drivers/STM32F4xx_HAL_Driver/Src/stm32f4xx_ll_usb.c ****             hc->iso_splt_xactPos = HCSPLT_END;
1906:Drivers/STM32F4xx_HAL_Driver/Src/stm32f4xx_ll_usb.c ****           }
1907:Drivers/STM32F4xx_HAL_Driver/Src/stm32f4xx_ll_usb.c ****         }
1908:Drivers/STM32F4xx_HAL_Driver/Src/stm32f4xx_ll_usb.c ****       }
1909:Drivers/STM32F4xx_HAL_Driver/Src/stm32f4xx_ll_usb.c ****       else
1910:Drivers/STM32F4xx_HAL_Driver/Src/stm32f4xx_ll_usb.c ****       {
1911:Drivers/STM32F4xx_HAL_Driver/Src/stm32f4xx_ll_usb.c ****         if ((dma == 1U) && (hc->xfer_len > hc->max_packet))
1912:Drivers/STM32F4xx_HAL_Driver/Src/stm32f4xx_ll_usb.c ****         {
1913:Drivers/STM32F4xx_HAL_Driver/Src/stm32f4xx_ll_usb.c ****           hc->XferSize = (uint32_t)num_packets * hc->max_packet;
1914:Drivers/STM32F4xx_HAL_Driver/Src/stm32f4xx_ll_usb.c ****         }
1915:Drivers/STM32F4xx_HAL_Driver/Src/stm32f4xx_ll_usb.c ****         else
1916:Drivers/STM32F4xx_HAL_Driver/Src/stm32f4xx_ll_usb.c ****         {
1917:Drivers/STM32F4xx_HAL_Driver/Src/stm32f4xx_ll_usb.c ****           hc->XferSize = hc->xfer_len;
1918:Drivers/STM32F4xx_HAL_Driver/Src/stm32f4xx_ll_usb.c ****         }
1919:Drivers/STM32F4xx_HAL_Driver/Src/stm32f4xx_ll_usb.c ****       }
1920:Drivers/STM32F4xx_HAL_Driver/Src/stm32f4xx_ll_usb.c ****     }
1921:Drivers/STM32F4xx_HAL_Driver/Src/stm32f4xx_ll_usb.c ****   }
1922:Drivers/STM32F4xx_HAL_Driver/Src/stm32f4xx_ll_usb.c ****   else
1923:Drivers/STM32F4xx_HAL_Driver/Src/stm32f4xx_ll_usb.c ****   {
1924:Drivers/STM32F4xx_HAL_Driver/Src/stm32f4xx_ll_usb.c ****     /* Compute the expected number of packets associated to the transfer */
ARM GAS  /tmp/cc0ThgoX.s 			page 130


1925:Drivers/STM32F4xx_HAL_Driver/Src/stm32f4xx_ll_usb.c ****     if (hc->xfer_len > 0U)
 4310              		.loc 1 1925 5 is_stmt 1 view .LVU1453
 4311              		.loc 1 1925 11 is_stmt 0 view .LVU1454
 4312 000c 0C6A     		ldr	r4, [r1, #32]
 4313              		.loc 1 1925 8 view .LVU1455
 4314 000e 002C     		cmp	r4, #0
 4315 0010 4BD0     		beq	.L303
1926:Drivers/STM32F4xx_HAL_Driver/Src/stm32f4xx_ll_usb.c ****     {
1927:Drivers/STM32F4xx_HAL_Driver/Src/stm32f4xx_ll_usb.c ****       num_packets = (uint16_t)((hc->xfer_len + hc->max_packet - 1U) / hc->max_packet);
 4316              		.loc 1 1927 7 is_stmt 1 view .LVU1456
 4317              		.loc 1 1927 50 is_stmt 0 view .LVU1457
 4318 0012 8D8A     		ldrh	r5, [r1, #20]
 4319              		.loc 1 1927 46 view .LVU1458
 4320 0014 04EB050C 		add	ip, r4, r5
 4321              		.loc 1 1927 63 view .LVU1459
 4322 0018 0CF1FF3C 		add	ip, ip, #-1
 4323              		.loc 1 1927 69 view .LVU1460
 4324 001c BCFBF5FC 		udiv	ip, ip, r5
 4325              		.loc 1 1927 19 view .LVU1461
 4326 0020 1FFA8CFC 		uxth	ip, ip
 4327              	.LVL320:
1928:Drivers/STM32F4xx_HAL_Driver/Src/stm32f4xx_ll_usb.c **** 
1929:Drivers/STM32F4xx_HAL_Driver/Src/stm32f4xx_ll_usb.c ****       if (num_packets > max_hc_pkt_count)
 4328              		.loc 1 1929 7 is_stmt 1 view .LVU1462
 4329              		.loc 1 1929 10 is_stmt 0 view .LVU1463
 4330 0024 BCF5807F 		cmp	ip, #256
 4331 0028 41D9     		bls	.L283
1930:Drivers/STM32F4xx_HAL_Driver/Src/stm32f4xx_ll_usb.c ****       {
1931:Drivers/STM32F4xx_HAL_Driver/Src/stm32f4xx_ll_usb.c ****         num_packets = max_hc_pkt_count;
 4332              		.loc 1 1931 9 is_stmt 1 view .LVU1464
 4333              	.LVL321:
1932:Drivers/STM32F4xx_HAL_Driver/Src/stm32f4xx_ll_usb.c ****         hc->XferSize = (uint32_t)num_packets * hc->max_packet;
 4334              		.loc 1 1932 9 view .LVU1465
 4335              		.loc 1 1932 46 is_stmt 0 view .LVU1466
 4336 002a 2D02     		lsls	r5, r5, #8
 4337              		.loc 1 1932 22 view .LVU1467
 4338 002c CD61     		str	r5, [r1, #28]
1931:Drivers/STM32F4xx_HAL_Driver/Src/stm32f4xx_ll_usb.c ****         hc->XferSize = (uint32_t)num_packets * hc->max_packet;
 4339              		.loc 1 1931 21 view .LVU1468
 4340 002e 4FF4807C 		mov	ip, #256
 4341 0032 3CE0     		b	.L283
 4342              	.LVL322:
 4343              	.L307:
1870:Drivers/STM32F4xx_HAL_Driver/Src/stm32f4xx_ll_usb.c **** 
 4344              		.loc 1 1870 5 is_stmt 1 view .LVU1469
1872:Drivers/STM32F4xx_HAL_Driver/Src/stm32f4xx_ll_usb.c ****     {
 4345              		.loc 1 1872 5 view .LVU1470
1872:Drivers/STM32F4xx_HAL_Driver/Src/stm32f4xx_ll_usb.c ****     {
 4346              		.loc 1 1872 11 is_stmt 0 view .LVU1471
 4347 0034 CC78     		ldrb	r4, [r1, #3]	@ zero_extendqisi2
1872:Drivers/STM32F4xx_HAL_Driver/Src/stm32f4xx_ll_usb.c ****     {
 4348              		.loc 1 1872 8 view .LVU1472
 4349 0036 24B1     		cbz	r4, .L276
1874:Drivers/STM32F4xx_HAL_Driver/Src/stm32f4xx_ll_usb.c ****     }
 4350              		.loc 1 1874 7 is_stmt 1 view .LVU1473
1874:Drivers/STM32F4xx_HAL_Driver/Src/stm32f4xx_ll_usb.c ****     }
 4351              		.loc 1 1874 48 is_stmt 0 view .LVU1474
ARM GAS  /tmp/cc0ThgoX.s 			page 131


 4352 0038 8C8A     		ldrh	r4, [r1, #20]
1874:Drivers/STM32F4xx_HAL_Driver/Src/stm32f4xx_ll_usb.c ****     }
 4353              		.loc 1 1874 20 view .LVU1475
 4354 003a CC61     		str	r4, [r1, #28]
1870:Drivers/STM32F4xx_HAL_Driver/Src/stm32f4xx_ll_usb.c **** 
 4355              		.loc 1 1870 17 view .LVU1476
 4356 003c 4FF0010C 		mov	ip, #1
 4357 0040 3CE0     		b	.L277
 4358              	.L276:
1878:Drivers/STM32F4xx_HAL_Driver/Src/stm32f4xx_ll_usb.c ****       {
 4359              		.loc 1 1878 7 is_stmt 1 view .LVU1477
1878:Drivers/STM32F4xx_HAL_Driver/Src/stm32f4xx_ll_usb.c ****       {
 4360              		.loc 1 1878 13 is_stmt 0 view .LVU1478
 4361 0042 8C7C     		ldrb	r4, [r1, #18]	@ zero_extendqisi2
1878:Drivers/STM32F4xx_HAL_Driver/Src/stm32f4xx_ll_usb.c ****       {
 4362              		.loc 1 1878 10 view .LVU1479
 4363 0044 012C     		cmp	r4, #1
 4364 0046 06D0     		beq	.L308
1911:Drivers/STM32F4xx_HAL_Driver/Src/stm32f4xx_ll_usb.c ****         {
 4365              		.loc 1 1911 9 is_stmt 1 view .LVU1480
1911:Drivers/STM32F4xx_HAL_Driver/Src/stm32f4xx_ll_usb.c ****         {
 4366              		.loc 1 1911 12 is_stmt 0 view .LVU1481
 4367 0048 012A     		cmp	r2, #1
 4368 004a 26D0     		beq	.L309
 4369              	.L282:
1917:Drivers/STM32F4xx_HAL_Driver/Src/stm32f4xx_ll_usb.c ****         }
 4370              		.loc 1 1917 11 is_stmt 1 view .LVU1482
1917:Drivers/STM32F4xx_HAL_Driver/Src/stm32f4xx_ll_usb.c ****         }
 4371              		.loc 1 1917 28 is_stmt 0 view .LVU1483
 4372 004c 0C6A     		ldr	r4, [r1, #32]
1917:Drivers/STM32F4xx_HAL_Driver/Src/stm32f4xx_ll_usb.c ****         }
 4373              		.loc 1 1917 24 view .LVU1484
 4374 004e CC61     		str	r4, [r1, #28]
1870:Drivers/STM32F4xx_HAL_Driver/Src/stm32f4xx_ll_usb.c **** 
 4375              		.loc 1 1870 17 view .LVU1485
 4376 0050 4FF0010C 		mov	ip, #1
 4377 0054 32E0     		b	.L277
 4378              	.L308:
1880:Drivers/STM32F4xx_HAL_Driver/Src/stm32f4xx_ll_usb.c ****         {
 4379              		.loc 1 1880 9 is_stmt 1 view .LVU1486
1880:Drivers/STM32F4xx_HAL_Driver/Src/stm32f4xx_ll_usb.c ****         {
 4380              		.loc 1 1880 15 is_stmt 0 view .LVU1487
 4381 0056 0C6A     		ldr	r4, [r1, #32]
1880:Drivers/STM32F4xx_HAL_Driver/Src/stm32f4xx_ll_usb.c ****         {
 4382              		.loc 1 1880 12 view .LVU1488
 4383 0058 BC2C     		cmp	r4, #188
 4384 005a 0FD9     		bls	.L279
1883:Drivers/STM32F4xx_HAL_Driver/Src/stm32f4xx_ll_usb.c ****           hc->xfer_len = hc->XferSize;
 4385              		.loc 1 1883 11 is_stmt 1 view .LVU1489
1883:Drivers/STM32F4xx_HAL_Driver/Src/stm32f4xx_ll_usb.c ****           hc->xfer_len = hc->XferSize;
 4386              		.loc 1 1883 28 is_stmt 0 view .LVU1490
 4387 005c 8C8A     		ldrh	r4, [r1, #20]
1883:Drivers/STM32F4xx_HAL_Driver/Src/stm32f4xx_ll_usb.c ****           hc->xfer_len = hc->XferSize;
 4388              		.loc 1 1883 24 view .LVU1491
 4389 005e CC61     		str	r4, [r1, #28]
1884:Drivers/STM32F4xx_HAL_Driver/Src/stm32f4xx_ll_usb.c **** 
 4390              		.loc 1 1884 11 is_stmt 1 view .LVU1492
ARM GAS  /tmp/cc0ThgoX.s 			page 132


1884:Drivers/STM32F4xx_HAL_Driver/Src/stm32f4xx_ll_usb.c **** 
 4391              		.loc 1 1884 24 is_stmt 0 view .LVU1493
 4392 0060 0C62     		str	r4, [r1, #32]
1886:Drivers/STM32F4xx_HAL_Driver/Src/stm32f4xx_ll_usb.c ****           {
 4393              		.loc 1 1886 11 is_stmt 1 view .LVU1494
1886:Drivers/STM32F4xx_HAL_Driver/Src/stm32f4xx_ll_usb.c ****           {
 4394              		.loc 1 1886 18 is_stmt 0 view .LVU1495
 4395 0062 CC68     		ldr	r4, [r1, #12]
1886:Drivers/STM32F4xx_HAL_Driver/Src/stm32f4xx_ll_usb.c ****           {
 4396              		.loc 1 1886 54 view .LVU1496
 4397 0064 013C     		subs	r4, r4, #1
1886:Drivers/STM32F4xx_HAL_Driver/Src/stm32f4xx_ll_usb.c ****           {
 4398              		.loc 1 1886 14 view .LVU1497
 4399 0066 012C     		cmp	r4, #1
 4400 0068 03D9     		bls	.L310
1892:Drivers/STM32F4xx_HAL_Driver/Src/stm32f4xx_ll_usb.c ****           }
 4401              		.loc 1 1892 13 is_stmt 1 view .LVU1498
1892:Drivers/STM32F4xx_HAL_Driver/Src/stm32f4xx_ll_usb.c ****           }
 4402              		.loc 1 1892 34 is_stmt 0 view .LVU1499
 4403 006a 0124     		movs	r4, #1
 4404 006c CC60     		str	r4, [r1, #12]
1870:Drivers/STM32F4xx_HAL_Driver/Src/stm32f4xx_ll_usb.c **** 
 4405              		.loc 1 1870 17 view .LVU1500
 4406 006e A446     		mov	ip, r4
 4407 0070 24E0     		b	.L277
 4408              	.L310:
1888:Drivers/STM32F4xx_HAL_Driver/Src/stm32f4xx_ll_usb.c ****           }
 4409              		.loc 1 1888 13 is_stmt 1 view .LVU1501
1888:Drivers/STM32F4xx_HAL_Driver/Src/stm32f4xx_ll_usb.c ****           }
 4410              		.loc 1 1888 34 is_stmt 0 view .LVU1502
 4411 0072 0224     		movs	r4, #2
 4412 0074 CC60     		str	r4, [r1, #12]
1870:Drivers/STM32F4xx_HAL_Driver/Src/stm32f4xx_ll_usb.c **** 
 4413              		.loc 1 1870 17 view .LVU1503
 4414 0076 4FF0010C 		mov	ip, #1
 4415 007a 1FE0     		b	.L277
 4416              	.L279:
1897:Drivers/STM32F4xx_HAL_Driver/Src/stm32f4xx_ll_usb.c **** 
 4417              		.loc 1 1897 11 is_stmt 1 view .LVU1504
1897:Drivers/STM32F4xx_HAL_Driver/Src/stm32f4xx_ll_usb.c **** 
 4418              		.loc 1 1897 24 is_stmt 0 view .LVU1505
 4419 007c CC61     		str	r4, [r1, #28]
1899:Drivers/STM32F4xx_HAL_Driver/Src/stm32f4xx_ll_usb.c ****           {
 4420              		.loc 1 1899 11 is_stmt 1 view .LVU1506
1899:Drivers/STM32F4xx_HAL_Driver/Src/stm32f4xx_ll_usb.c ****           {
 4421              		.loc 1 1899 18 is_stmt 0 view .LVU1507
 4422 007e CC68     		ldr	r4, [r1, #12]
1899:Drivers/STM32F4xx_HAL_Driver/Src/stm32f4xx_ll_usb.c ****           {
 4423              		.loc 1 1899 54 view .LVU1508
 4424 0080 013C     		subs	r4, r4, #1
1899:Drivers/STM32F4xx_HAL_Driver/Src/stm32f4xx_ll_usb.c ****           {
 4425              		.loc 1 1899 14 view .LVU1509
 4426 0082 012C     		cmp	r4, #1
 4427 0084 04D9     		bls	.L281
1901:Drivers/STM32F4xx_HAL_Driver/Src/stm32f4xx_ll_usb.c ****           }
 4428              		.loc 1 1901 13 is_stmt 1 view .LVU1510
1901:Drivers/STM32F4xx_HAL_Driver/Src/stm32f4xx_ll_usb.c ****           }
ARM GAS  /tmp/cc0ThgoX.s 			page 133


 4429              		.loc 1 1901 34 is_stmt 0 view .LVU1511
 4430 0086 0424     		movs	r4, #4
 4431 0088 CC60     		str	r4, [r1, #12]
1870:Drivers/STM32F4xx_HAL_Driver/Src/stm32f4xx_ll_usb.c **** 
 4432              		.loc 1 1870 17 view .LVU1512
 4433 008a 4FF0010C 		mov	ip, #1
 4434 008e 15E0     		b	.L277
 4435              	.L281:
1905:Drivers/STM32F4xx_HAL_Driver/Src/stm32f4xx_ll_usb.c ****           }
 4436              		.loc 1 1905 13 is_stmt 1 view .LVU1513
1905:Drivers/STM32F4xx_HAL_Driver/Src/stm32f4xx_ll_usb.c ****           }
 4437              		.loc 1 1905 34 is_stmt 0 view .LVU1514
 4438 0090 0324     		movs	r4, #3
 4439 0092 CC60     		str	r4, [r1, #12]
1870:Drivers/STM32F4xx_HAL_Driver/Src/stm32f4xx_ll_usb.c **** 
 4440              		.loc 1 1870 17 view .LVU1515
 4441 0094 4FF0010C 		mov	ip, #1
 4442 0098 10E0     		b	.L277
 4443              	.L309:
1911:Drivers/STM32F4xx_HAL_Driver/Src/stm32f4xx_ll_usb.c ****         {
 4444              		.loc 1 1911 31 discriminator 1 view .LVU1516
 4445 009a 0D6A     		ldr	r5, [r1, #32]
1911:Drivers/STM32F4xx_HAL_Driver/Src/stm32f4xx_ll_usb.c ****         {
 4446              		.loc 1 1911 46 discriminator 1 view .LVU1517
 4447 009c 8C8A     		ldrh	r4, [r1, #20]
1911:Drivers/STM32F4xx_HAL_Driver/Src/stm32f4xx_ll_usb.c ****         {
 4448              		.loc 1 1911 25 discriminator 1 view .LVU1518
 4449 009e A542     		cmp	r5, r4
 4450 00a0 D4D9     		bls	.L282
1913:Drivers/STM32F4xx_HAL_Driver/Src/stm32f4xx_ll_usb.c ****         }
 4451              		.loc 1 1913 11 is_stmt 1 view .LVU1519
1913:Drivers/STM32F4xx_HAL_Driver/Src/stm32f4xx_ll_usb.c ****         }
 4452              		.loc 1 1913 24 is_stmt 0 view .LVU1520
 4453 00a2 CC61     		str	r4, [r1, #28]
1870:Drivers/STM32F4xx_HAL_Driver/Src/stm32f4xx_ll_usb.c **** 
 4454              		.loc 1 1870 17 view .LVU1521
 4455 00a4 4FF0010C 		mov	ip, #1
1913:Drivers/STM32F4xx_HAL_Driver/Src/stm32f4xx_ll_usb.c ****         }
 4456              		.loc 1 1913 24 view .LVU1522
 4457 00a8 08E0     		b	.L277
 4458              	.LVL323:
 4459              	.L303:
1933:Drivers/STM32F4xx_HAL_Driver/Src/stm32f4xx_ll_usb.c ****       }
1934:Drivers/STM32F4xx_HAL_Driver/Src/stm32f4xx_ll_usb.c ****     }
1935:Drivers/STM32F4xx_HAL_Driver/Src/stm32f4xx_ll_usb.c ****     else
1936:Drivers/STM32F4xx_HAL_Driver/Src/stm32f4xx_ll_usb.c ****     {
1937:Drivers/STM32F4xx_HAL_Driver/Src/stm32f4xx_ll_usb.c ****       num_packets = 1U;
 4460              		.loc 1 1937 19 view .LVU1523
 4461 00aa 4FF0010C 		mov	ip, #1
 4462              	.L283:
 4463              	.LVL324:
1938:Drivers/STM32F4xx_HAL_Driver/Src/stm32f4xx_ll_usb.c ****     }
1939:Drivers/STM32F4xx_HAL_Driver/Src/stm32f4xx_ll_usb.c **** 
1940:Drivers/STM32F4xx_HAL_Driver/Src/stm32f4xx_ll_usb.c ****     /*
1941:Drivers/STM32F4xx_HAL_Driver/Src/stm32f4xx_ll_usb.c ****     * For IN channel HCTSIZ.XferSize is expected to be an integer multiple of
1942:Drivers/STM32F4xx_HAL_Driver/Src/stm32f4xx_ll_usb.c ****     * max_packet size.
1943:Drivers/STM32F4xx_HAL_Driver/Src/stm32f4xx_ll_usb.c ****     */
ARM GAS  /tmp/cc0ThgoX.s 			page 134


1944:Drivers/STM32F4xx_HAL_Driver/Src/stm32f4xx_ll_usb.c ****     if (hc->ep_is_in != 0U)
 4464              		.loc 1 1944 5 is_stmt 1 view .LVU1524
 4465              		.loc 1 1944 11 is_stmt 0 view .LVU1525
 4466 00ae CD78     		ldrb	r5, [r1, #3]	@ zero_extendqisi2
 4467              		.loc 1 1944 8 view .LVU1526
 4468 00b0 002D     		cmp	r5, #0
 4469 00b2 63D0     		beq	.L284
1945:Drivers/STM32F4xx_HAL_Driver/Src/stm32f4xx_ll_usb.c ****     {
1946:Drivers/STM32F4xx_HAL_Driver/Src/stm32f4xx_ll_usb.c ****       hc->XferSize = (uint32_t)num_packets * hc->max_packet;
 4470              		.loc 1 1946 7 is_stmt 1 view .LVU1527
 4471              		.loc 1 1946 48 is_stmt 0 view .LVU1528
 4472 00b4 8C8A     		ldrh	r4, [r1, #20]
 4473              		.loc 1 1946 44 view .LVU1529
 4474 00b6 04FB0CF4 		mul	r4, r4, ip
 4475              		.loc 1 1946 20 view .LVU1530
 4476 00ba CC61     		str	r4, [r1, #28]
 4477              	.LVL325:
 4478              	.L277:
1947:Drivers/STM32F4xx_HAL_Driver/Src/stm32f4xx_ll_usb.c ****     }
1948:Drivers/STM32F4xx_HAL_Driver/Src/stm32f4xx_ll_usb.c ****     else
1949:Drivers/STM32F4xx_HAL_Driver/Src/stm32f4xx_ll_usb.c ****     {
1950:Drivers/STM32F4xx_HAL_Driver/Src/stm32f4xx_ll_usb.c ****       hc->XferSize = hc->xfer_len;
1951:Drivers/STM32F4xx_HAL_Driver/Src/stm32f4xx_ll_usb.c ****     }
1952:Drivers/STM32F4xx_HAL_Driver/Src/stm32f4xx_ll_usb.c ****   }
1953:Drivers/STM32F4xx_HAL_Driver/Src/stm32f4xx_ll_usb.c **** 
1954:Drivers/STM32F4xx_HAL_Driver/Src/stm32f4xx_ll_usb.c ****   /* Initialize the HCTSIZn register */
1955:Drivers/STM32F4xx_HAL_Driver/Src/stm32f4xx_ll_usb.c ****   USBx_HC(ch_num)->HCTSIZ = (hc->XferSize & USB_OTG_HCTSIZ_XFRSIZ) |
 4479              		.loc 1 1955 3 is_stmt 1 view .LVU1531
 4480              		.loc 1 1955 32 is_stmt 0 view .LVU1532
 4481 00bc CC69     		ldr	r4, [r1, #28]
 4482              		.loc 1 1955 43 view .LVU1533
 4483 00be C4F31204 		ubfx	r4, r4, #0, #19
1956:Drivers/STM32F4xx_HAL_Driver/Src/stm32f4xx_ll_usb.c ****                             (((uint32_t)num_packets << 19) & USB_OTG_HCTSIZ_PKTCNT) |
 4484              		.loc 1 1956 60 view .LVU1534
 4485 00c2 714D     		ldr	r5, .L313
 4486 00c4 05EACC4C 		and	ip, r5, ip, lsl #19
 4487              	.LVL326:
1955:Drivers/STM32F4xx_HAL_Driver/Src/stm32f4xx_ll_usb.c ****                             (((uint32_t)num_packets << 19) & USB_OTG_HCTSIZ_PKTCNT) |
 4488              		.loc 1 1955 68 view .LVU1535
 4489 00c8 44EA0C04 		orr	r4, r4, ip
1957:Drivers/STM32F4xx_HAL_Driver/Src/stm32f4xx_ll_usb.c ****                             (((uint32_t)hc->data_pid << 29) & USB_OTG_HCTSIZ_DPID);
 4490              		.loc 1 1957 43 view .LVU1536
 4491 00cc 91F816C0 		ldrb	ip, [r1, #22]	@ zero_extendqisi2
 4492              		.loc 1 1957 54 view .LVU1537
 4493 00d0 4FEA4C7C 		lsl	ip, ip, #29
 4494              		.loc 1 1957 61 view .LVU1538
 4495 00d4 0CF0C04C 		and	ip, ip, #1610612736
1955:Drivers/STM32F4xx_HAL_Driver/Src/stm32f4xx_ll_usb.c ****                             (((uint32_t)num_packets << 19) & USB_OTG_HCTSIZ_PKTCNT) |
 4496              		.loc 1 1955 3 view .LVU1539
 4497 00d8 00EB4313 		add	r3, r0, r3, lsl #5
 4498              	.LVL327:
1955:Drivers/STM32F4xx_HAL_Driver/Src/stm32f4xx_ll_usb.c ****                             (((uint32_t)num_packets << 19) & USB_OTG_HCTSIZ_PKTCNT) |
 4499              		.loc 1 1955 3 view .LVU1540
 4500 00dc 03F5A06E 		add	lr, r3, #1280
1956:Drivers/STM32F4xx_HAL_Driver/Src/stm32f4xx_ll_usb.c ****                             (((uint32_t)num_packets << 19) & USB_OTG_HCTSIZ_PKTCNT) |
 4501              		.loc 1 1956 85 view .LVU1541
 4502 00e0 44EA0C04 		orr	r4, r4, ip
ARM GAS  /tmp/cc0ThgoX.s 			page 135


1955:Drivers/STM32F4xx_HAL_Driver/Src/stm32f4xx_ll_usb.c ****                             (((uint32_t)num_packets << 19) & USB_OTG_HCTSIZ_PKTCNT) |
 4503              		.loc 1 1955 27 view .LVU1542
 4504 00e4 CEF81040 		str	r4, [lr, #16]
 4505              	.LVL328:
1958:Drivers/STM32F4xx_HAL_Driver/Src/stm32f4xx_ll_usb.c **** 
1959:Drivers/STM32F4xx_HAL_Driver/Src/stm32f4xx_ll_usb.c ****   if (dma != 0U)
 4506              		.loc 1 1959 3 is_stmt 1 view .LVU1543
 4507              		.loc 1 1959 6 is_stmt 0 view .LVU1544
 4508 00e8 12B1     		cbz	r2, .L285
1960:Drivers/STM32F4xx_HAL_Driver/Src/stm32f4xx_ll_usb.c ****   {
1961:Drivers/STM32F4xx_HAL_Driver/Src/stm32f4xx_ll_usb.c ****     /* xfer_buff MUST be 32-bits aligned */
1962:Drivers/STM32F4xx_HAL_Driver/Src/stm32f4xx_ll_usb.c ****     USBx_HC(ch_num)->HCDMA = (uint32_t)hc->xfer_buff;
 4509              		.loc 1 1962 5 is_stmt 1 view .LVU1545
 4510              		.loc 1 1962 42 is_stmt 0 view .LVU1546
 4511 00ea 8C69     		ldr	r4, [r1, #24]
 4512              		.loc 1 1962 28 view .LVU1547
 4513 00ec CEF81440 		str	r4, [lr, #20]
 4514              	.L285:
1963:Drivers/STM32F4xx_HAL_Driver/Src/stm32f4xx_ll_usb.c ****   }
1964:Drivers/STM32F4xx_HAL_Driver/Src/stm32f4xx_ll_usb.c **** 
1965:Drivers/STM32F4xx_HAL_Driver/Src/stm32f4xx_ll_usb.c ****   is_oddframe = (((uint32_t)USBx_HOST->HFNUM & 0x01U) != 0U) ? 0U : 1U;
 4515              		.loc 1 1965 3 is_stmt 1 view .LVU1548
 4516              		.loc 1 1965 29 is_stmt 0 view .LVU1549
 4517 00f0 00F58065 		add	r5, r0, #1024
 4518              		.loc 1 1965 38 view .LVU1550
 4519 00f4 AC68     		ldr	r4, [r5, #8]
 4520              		.loc 1 1965 67 view .LVU1551
 4521 00f6 14F0010F 		tst	r4, #1
 4522 00fa 0CBF     		ite	eq
 4523 00fc 4FF0010C 		moveq	ip, #1
 4524 0100 4FF0000C 		movne	ip, #0
 4525              	.LVL329:
1966:Drivers/STM32F4xx_HAL_Driver/Src/stm32f4xx_ll_usb.c ****   USBx_HC(ch_num)->HCCHAR &= ~USB_OTG_HCCHAR_ODDFRM;
 4526              		.loc 1 1966 3 is_stmt 1 view .LVU1552
 4527              		.loc 1 1966 18 is_stmt 0 view .LVU1553
 4528 0104 D3F80045 		ldr	r4, [r3, #1280]
 4529              		.loc 1 1966 27 view .LVU1554
 4530 0108 24F00054 		bic	r4, r4, #536870912
 4531 010c C3F80045 		str	r4, [r3, #1280]
1967:Drivers/STM32F4xx_HAL_Driver/Src/stm32f4xx_ll_usb.c ****   USBx_HC(ch_num)->HCCHAR |= (uint32_t)is_oddframe << 29;
 4532              		.loc 1 1967 3 is_stmt 1 view .LVU1555
 4533              		.loc 1 1967 18 is_stmt 0 view .LVU1556
 4534 0110 D3F80045 		ldr	r4, [r3, #1280]
 4535              		.loc 1 1967 27 view .LVU1557
 4536 0114 44EA4C74 		orr	r4, r4, ip, lsl #29
 4537 0118 C3F80045 		str	r4, [r3, #1280]
1968:Drivers/STM32F4xx_HAL_Driver/Src/stm32f4xx_ll_usb.c **** 
1969:Drivers/STM32F4xx_HAL_Driver/Src/stm32f4xx_ll_usb.c ****   if (hc->do_ssplit == 1U)
 4538              		.loc 1 1969 3 is_stmt 1 view .LVU1558
 4539              		.loc 1 1969 9 is_stmt 0 view .LVU1559
 4540 011c 8C79     		ldrb	r4, [r1, #6]	@ zero_extendqisi2
 4541              		.loc 1 1969 6 view .LVU1560
 4542 011e 012C     		cmp	r4, #1
 4543 0120 2ED0     		beq	.L311
1970:Drivers/STM32F4xx_HAL_Driver/Src/stm32f4xx_ll_usb.c ****   {
1971:Drivers/STM32F4xx_HAL_Driver/Src/stm32f4xx_ll_usb.c ****     /* Set Hub start Split transaction */
1972:Drivers/STM32F4xx_HAL_Driver/Src/stm32f4xx_ll_usb.c ****     USBx_HC((uint32_t)ch_num)->HCSPLT = ((uint32_t)hc->hub_addr << USB_OTG_HCSPLT_HUBADDR_Pos) |
ARM GAS  /tmp/cc0ThgoX.s 			page 136


1973:Drivers/STM32F4xx_HAL_Driver/Src/stm32f4xx_ll_usb.c ****                                         (uint32_t)hc->hub_port_nbr | USB_OTG_HCSPLT_SPLITEN;
1974:Drivers/STM32F4xx_HAL_Driver/Src/stm32f4xx_ll_usb.c **** 
1975:Drivers/STM32F4xx_HAL_Driver/Src/stm32f4xx_ll_usb.c ****     /* unmask ack & nyet for IN/OUT transactions */
1976:Drivers/STM32F4xx_HAL_Driver/Src/stm32f4xx_ll_usb.c ****     USBx_HC((uint32_t)ch_num)->HCINTMSK |= (USB_OTG_HCINTMSK_ACKM |
1977:Drivers/STM32F4xx_HAL_Driver/Src/stm32f4xx_ll_usb.c ****                                             USB_OTG_HCINTMSK_NYET);
1978:Drivers/STM32F4xx_HAL_Driver/Src/stm32f4xx_ll_usb.c **** 
1979:Drivers/STM32F4xx_HAL_Driver/Src/stm32f4xx_ll_usb.c ****     if ((hc->do_csplit == 1U) && (hc->ep_is_in == 0U))
1980:Drivers/STM32F4xx_HAL_Driver/Src/stm32f4xx_ll_usb.c ****     {
1981:Drivers/STM32F4xx_HAL_Driver/Src/stm32f4xx_ll_usb.c ****       USBx_HC((uint32_t)ch_num)->HCSPLT |= USB_OTG_HCSPLT_COMPLSPLT;
1982:Drivers/STM32F4xx_HAL_Driver/Src/stm32f4xx_ll_usb.c ****       USBx_HC((uint32_t)ch_num)->HCINTMSK |= USB_OTG_HCINTMSK_NYET;
1983:Drivers/STM32F4xx_HAL_Driver/Src/stm32f4xx_ll_usb.c ****     }
1984:Drivers/STM32F4xx_HAL_Driver/Src/stm32f4xx_ll_usb.c **** 
1985:Drivers/STM32F4xx_HAL_Driver/Src/stm32f4xx_ll_usb.c ****     if (((hc->ep_type == EP_TYPE_ISOC) || (hc->ep_type == EP_TYPE_INTR)) &&
1986:Drivers/STM32F4xx_HAL_Driver/Src/stm32f4xx_ll_usb.c ****         (hc->do_csplit == 1U) && (hc->ep_is_in == 1U))
1987:Drivers/STM32F4xx_HAL_Driver/Src/stm32f4xx_ll_usb.c ****     {
1988:Drivers/STM32F4xx_HAL_Driver/Src/stm32f4xx_ll_usb.c ****       USBx_HC((uint32_t)ch_num)->HCSPLT |= USB_OTG_HCSPLT_COMPLSPLT;
1989:Drivers/STM32F4xx_HAL_Driver/Src/stm32f4xx_ll_usb.c ****     }
1990:Drivers/STM32F4xx_HAL_Driver/Src/stm32f4xx_ll_usb.c **** 
1991:Drivers/STM32F4xx_HAL_Driver/Src/stm32f4xx_ll_usb.c ****     /* Position management for iso out transaction on split mode */
1992:Drivers/STM32F4xx_HAL_Driver/Src/stm32f4xx_ll_usb.c ****     if ((hc->ep_type == EP_TYPE_ISOC) && (hc->ep_is_in == 0U))
1993:Drivers/STM32F4xx_HAL_Driver/Src/stm32f4xx_ll_usb.c ****     {
1994:Drivers/STM32F4xx_HAL_Driver/Src/stm32f4xx_ll_usb.c ****       /* Set data payload position */
1995:Drivers/STM32F4xx_HAL_Driver/Src/stm32f4xx_ll_usb.c ****       switch (hc->iso_splt_xactPos)
1996:Drivers/STM32F4xx_HAL_Driver/Src/stm32f4xx_ll_usb.c ****       {
1997:Drivers/STM32F4xx_HAL_Driver/Src/stm32f4xx_ll_usb.c ****         case HCSPLT_BEGIN:
1998:Drivers/STM32F4xx_HAL_Driver/Src/stm32f4xx_ll_usb.c ****           /* First data payload for OUT Transaction */
1999:Drivers/STM32F4xx_HAL_Driver/Src/stm32f4xx_ll_usb.c ****           USBx_HC((uint32_t)ch_num)->HCSPLT |= USB_OTG_HCSPLT_XACTPOS_1;
2000:Drivers/STM32F4xx_HAL_Driver/Src/stm32f4xx_ll_usb.c ****           break;
2001:Drivers/STM32F4xx_HAL_Driver/Src/stm32f4xx_ll_usb.c **** 
2002:Drivers/STM32F4xx_HAL_Driver/Src/stm32f4xx_ll_usb.c ****         case HCSPLT_MIDDLE:
2003:Drivers/STM32F4xx_HAL_Driver/Src/stm32f4xx_ll_usb.c ****           /* Middle data payload for OUT Transaction */
2004:Drivers/STM32F4xx_HAL_Driver/Src/stm32f4xx_ll_usb.c ****           USBx_HC((uint32_t)ch_num)->HCSPLT |= USB_OTG_HCSPLT_XACTPOS_Pos;
2005:Drivers/STM32F4xx_HAL_Driver/Src/stm32f4xx_ll_usb.c ****           break;
2006:Drivers/STM32F4xx_HAL_Driver/Src/stm32f4xx_ll_usb.c **** 
2007:Drivers/STM32F4xx_HAL_Driver/Src/stm32f4xx_ll_usb.c ****         case HCSPLT_END:
2008:Drivers/STM32F4xx_HAL_Driver/Src/stm32f4xx_ll_usb.c ****           /* End data payload for OUT Transaction */
2009:Drivers/STM32F4xx_HAL_Driver/Src/stm32f4xx_ll_usb.c ****           USBx_HC((uint32_t)ch_num)->HCSPLT |= USB_OTG_HCSPLT_XACTPOS_0;
2010:Drivers/STM32F4xx_HAL_Driver/Src/stm32f4xx_ll_usb.c ****           break;
2011:Drivers/STM32F4xx_HAL_Driver/Src/stm32f4xx_ll_usb.c **** 
2012:Drivers/STM32F4xx_HAL_Driver/Src/stm32f4xx_ll_usb.c ****         case HCSPLT_FULL:
2013:Drivers/STM32F4xx_HAL_Driver/Src/stm32f4xx_ll_usb.c ****           /* Entire data payload for OUT Transaction */
2014:Drivers/STM32F4xx_HAL_Driver/Src/stm32f4xx_ll_usb.c ****           USBx_HC((uint32_t)ch_num)->HCSPLT |= USB_OTG_HCSPLT_XACTPOS;
2015:Drivers/STM32F4xx_HAL_Driver/Src/stm32f4xx_ll_usb.c ****           break;
2016:Drivers/STM32F4xx_HAL_Driver/Src/stm32f4xx_ll_usb.c **** 
2017:Drivers/STM32F4xx_HAL_Driver/Src/stm32f4xx_ll_usb.c ****         default:
2018:Drivers/STM32F4xx_HAL_Driver/Src/stm32f4xx_ll_usb.c ****           break;
2019:Drivers/STM32F4xx_HAL_Driver/Src/stm32f4xx_ll_usb.c ****       }
2020:Drivers/STM32F4xx_HAL_Driver/Src/stm32f4xx_ll_usb.c ****     }
2021:Drivers/STM32F4xx_HAL_Driver/Src/stm32f4xx_ll_usb.c ****   }
2022:Drivers/STM32F4xx_HAL_Driver/Src/stm32f4xx_ll_usb.c ****   else
2023:Drivers/STM32F4xx_HAL_Driver/Src/stm32f4xx_ll_usb.c ****   {
2024:Drivers/STM32F4xx_HAL_Driver/Src/stm32f4xx_ll_usb.c ****     /* Clear Hub Start Split transaction */
2025:Drivers/STM32F4xx_HAL_Driver/Src/stm32f4xx_ll_usb.c ****     USBx_HC((uint32_t)ch_num)->HCSPLT = 0U;
 4544              		.loc 1 2025 5 is_stmt 1 view .LVU1561
 4545              		.loc 1 2025 39 is_stmt 0 view .LVU1562
 4546 0122 0024     		movs	r4, #0
 4547 0124 CEF80440 		str	r4, [lr, #4]
ARM GAS  /tmp/cc0ThgoX.s 			page 137


 4548              	.LVL330:
 4549              	.L290:
2026:Drivers/STM32F4xx_HAL_Driver/Src/stm32f4xx_ll_usb.c ****   }
2027:Drivers/STM32F4xx_HAL_Driver/Src/stm32f4xx_ll_usb.c **** 
2028:Drivers/STM32F4xx_HAL_Driver/Src/stm32f4xx_ll_usb.c ****   /* Set host channel enable */
2029:Drivers/STM32F4xx_HAL_Driver/Src/stm32f4xx_ll_usb.c ****   tmpreg = USBx_HC(ch_num)->HCCHAR;
 4550              		.loc 1 2029 3 is_stmt 1 view .LVU1563
 4551              		.loc 1 2029 27 is_stmt 0 view .LVU1564
 4552 0128 D3F80045 		ldr	r4, [r3, #1280]
 4553              		.loc 1 2029 10 view .LVU1565
 4554 012c 0394     		str	r4, [sp, #12]
2030:Drivers/STM32F4xx_HAL_Driver/Src/stm32f4xx_ll_usb.c ****   tmpreg &= ~USB_OTG_HCCHAR_CHDIS;
 4555              		.loc 1 2030 3 is_stmt 1 view .LVU1566
 4556              		.loc 1 2030 10 is_stmt 0 view .LVU1567
 4557 012e 039C     		ldr	r4, [sp, #12]
 4558 0130 24F08044 		bic	r4, r4, #1073741824
 4559 0134 0394     		str	r4, [sp, #12]
2031:Drivers/STM32F4xx_HAL_Driver/Src/stm32f4xx_ll_usb.c **** 
2032:Drivers/STM32F4xx_HAL_Driver/Src/stm32f4xx_ll_usb.c ****   /* make sure to set the correct ep direction */
2033:Drivers/STM32F4xx_HAL_Driver/Src/stm32f4xx_ll_usb.c ****   if (hc->ep_is_in != 0U)
 4560              		.loc 1 2033 3 is_stmt 1 view .LVU1568
 4561              		.loc 1 2033 9 is_stmt 0 view .LVU1569
 4562 0136 CC78     		ldrb	r4, [r1, #3]	@ zero_extendqisi2
 4563              		.loc 1 2033 6 view .LVU1570
 4564 0138 002C     		cmp	r4, #0
 4565 013a 7FD0     		beq	.L296
2034:Drivers/STM32F4xx_HAL_Driver/Src/stm32f4xx_ll_usb.c ****   {
2035:Drivers/STM32F4xx_HAL_Driver/Src/stm32f4xx_ll_usb.c ****     tmpreg |= USB_OTG_HCCHAR_EPDIR;
 4566              		.loc 1 2035 5 is_stmt 1 view .LVU1571
 4567              		.loc 1 2035 12 is_stmt 0 view .LVU1572
 4568 013c 039C     		ldr	r4, [sp, #12]
 4569 013e 44F40044 		orr	r4, r4, #32768
 4570 0142 0394     		str	r4, [sp, #12]
 4571              	.L297:
2036:Drivers/STM32F4xx_HAL_Driver/Src/stm32f4xx_ll_usb.c ****   }
2037:Drivers/STM32F4xx_HAL_Driver/Src/stm32f4xx_ll_usb.c ****   else
2038:Drivers/STM32F4xx_HAL_Driver/Src/stm32f4xx_ll_usb.c ****   {
2039:Drivers/STM32F4xx_HAL_Driver/Src/stm32f4xx_ll_usb.c ****     tmpreg &= ~USB_OTG_HCCHAR_EPDIR;
2040:Drivers/STM32F4xx_HAL_Driver/Src/stm32f4xx_ll_usb.c ****   }
2041:Drivers/STM32F4xx_HAL_Driver/Src/stm32f4xx_ll_usb.c ****   tmpreg |= USB_OTG_HCCHAR_CHENA;
 4572              		.loc 1 2041 3 is_stmt 1 view .LVU1573
 4573              		.loc 1 2041 10 is_stmt 0 view .LVU1574
 4574 0144 039C     		ldr	r4, [sp, #12]
 4575 0146 44F00044 		orr	r4, r4, #-2147483648
 4576 014a 0394     		str	r4, [sp, #12]
2042:Drivers/STM32F4xx_HAL_Driver/Src/stm32f4xx_ll_usb.c ****   USBx_HC(ch_num)->HCCHAR = tmpreg;
 4577              		.loc 1 2042 3 is_stmt 1 view .LVU1575
 4578              		.loc 1 2042 27 is_stmt 0 view .LVU1576
 4579 014c 039C     		ldr	r4, [sp, #12]
 4580 014e C3F80045 		str	r4, [r3, #1280]
2043:Drivers/STM32F4xx_HAL_Driver/Src/stm32f4xx_ll_usb.c **** 
2044:Drivers/STM32F4xx_HAL_Driver/Src/stm32f4xx_ll_usb.c ****   if (dma != 0U) /* dma mode */
 4581              		.loc 1 2044 3 is_stmt 1 view .LVU1577
 4582              		.loc 1 2044 6 is_stmt 0 view .LVU1578
 4583 0152 002A     		cmp	r2, #0
 4584 0154 40F08980 		bne	.L298
2045:Drivers/STM32F4xx_HAL_Driver/Src/stm32f4xx_ll_usb.c ****   {
ARM GAS  /tmp/cc0ThgoX.s 			page 138


2046:Drivers/STM32F4xx_HAL_Driver/Src/stm32f4xx_ll_usb.c ****     return HAL_OK;
2047:Drivers/STM32F4xx_HAL_Driver/Src/stm32f4xx_ll_usb.c ****   }
2048:Drivers/STM32F4xx_HAL_Driver/Src/stm32f4xx_ll_usb.c **** 
2049:Drivers/STM32F4xx_HAL_Driver/Src/stm32f4xx_ll_usb.c ****   if ((hc->ep_is_in == 0U) && (hc->xfer_len > 0U) && (hc->do_csplit == 0U))
 4585              		.loc 1 2049 3 is_stmt 1 view .LVU1579
 4586              		.loc 1 2049 10 is_stmt 0 view .LVU1580
 4587 0158 CB78     		ldrb	r3, [r1, #3]	@ zero_extendqisi2
 4588              		.loc 1 2049 6 view .LVU1581
 4589 015a 002B     		cmp	r3, #0
 4590 015c 40F08580 		bne	.L298
 4591              		.loc 1 2049 34 discriminator 1 view .LVU1582
 4592 0160 0B6A     		ldr	r3, [r1, #32]
 4593              		.loc 1 2049 28 discriminator 1 view .LVU1583
 4594 0162 002B     		cmp	r3, #0
 4595 0164 00F08180 		beq	.L298
 4596              		.loc 1 2049 57 discriminator 2 view .LVU1584
 4597 0168 CA79     		ldrb	r2, [r1, #7]	@ zero_extendqisi2
 4598              	.LVL331:
 4599              		.loc 1 2049 51 discriminator 2 view .LVU1585
 4600 016a 002A     		cmp	r2, #0
 4601 016c 7DD1     		bne	.L298
2050:Drivers/STM32F4xx_HAL_Driver/Src/stm32f4xx_ll_usb.c ****   {
2051:Drivers/STM32F4xx_HAL_Driver/Src/stm32f4xx_ll_usb.c ****     switch (hc->ep_type)
 4602              		.loc 1 2051 5 is_stmt 1 view .LVU1586
 4603              		.loc 1 2051 15 is_stmt 0 view .LVU1587
 4604 016e 8A7C     		ldrb	r2, [r1, #18]	@ zero_extendqisi2
 4605              		.loc 1 2051 5 view .LVU1588
 4606 0170 032A     		cmp	r2, #3
 4607 0172 73D8     		bhi	.L299
 4608 0174 DFE802F0 		tbb	[pc, r2]
 4609              	.L301:
 4610 0178 67       		.byte	(.L302-.L301)/2
 4611 0179 7C       		.byte	(.L300-.L301)/2
 4612 017a 67       		.byte	(.L302-.L301)/2
 4613 017b 7C       		.byte	(.L300-.L301)/2
 4614              	.LVL332:
 4615              		.p2align 1
 4616              	.L284:
1950:Drivers/STM32F4xx_HAL_Driver/Src/stm32f4xx_ll_usb.c ****     }
 4617              		.loc 1 1950 7 is_stmt 1 view .LVU1589
1950:Drivers/STM32F4xx_HAL_Driver/Src/stm32f4xx_ll_usb.c ****     }
 4618              		.loc 1 1950 20 is_stmt 0 view .LVU1590
 4619 017c CC61     		str	r4, [r1, #28]
 4620 017e 9DE7     		b	.L277
 4621              	.LVL333:
 4622              	.L311:
1972:Drivers/STM32F4xx_HAL_Driver/Src/stm32f4xx_ll_usb.c ****                                         (uint32_t)hc->hub_port_nbr | USB_OTG_HCSPLT_SPLITEN;
 4623              		.loc 1 1972 5 is_stmt 1 view .LVU1591
1972:Drivers/STM32F4xx_HAL_Driver/Src/stm32f4xx_ll_usb.c ****                                         (uint32_t)hc->hub_port_nbr | USB_OTG_HCSPLT_SPLITEN;
 4624              		.loc 1 1972 54 is_stmt 0 view .LVU1592
 4625 0180 91F811C0 		ldrb	ip, [r1, #17]	@ zero_extendqisi2
 4626              	.LVL334:
1973:Drivers/STM32F4xx_HAL_Driver/Src/stm32f4xx_ll_usb.c **** 
 4627              		.loc 1 1973 53 view .LVU1593
 4628 0184 0C7C     		ldrb	r4, [r1, #16]	@ zero_extendqisi2
1972:Drivers/STM32F4xx_HAL_Driver/Src/stm32f4xx_ll_usb.c ****                                         (uint32_t)hc->hub_port_nbr | USB_OTG_HCSPLT_SPLITEN;
 4629              		.loc 1 1972 96 view .LVU1594
ARM GAS  /tmp/cc0ThgoX.s 			page 139


 4630 0186 44EACC14 		orr	r4, r4, ip, lsl #7
1973:Drivers/STM32F4xx_HAL_Driver/Src/stm32f4xx_ll_usb.c **** 
 4631              		.loc 1 1973 68 view .LVU1595
 4632 018a 44F00044 		orr	r4, r4, #-2147483648
1972:Drivers/STM32F4xx_HAL_Driver/Src/stm32f4xx_ll_usb.c ****                                         (uint32_t)hc->hub_port_nbr | USB_OTG_HCSPLT_SPLITEN;
 4633              		.loc 1 1972 39 view .LVU1596
 4634 018e CEF80440 		str	r4, [lr, #4]
1976:Drivers/STM32F4xx_HAL_Driver/Src/stm32f4xx_ll_usb.c ****                                             USB_OTG_HCINTMSK_NYET);
 4635              		.loc 1 1976 5 is_stmt 1 view .LVU1597
1976:Drivers/STM32F4xx_HAL_Driver/Src/stm32f4xx_ll_usb.c ****                                             USB_OTG_HCINTMSK_NYET);
 4636              		.loc 1 1976 30 is_stmt 0 view .LVU1598
 4637 0192 DEF80C40 		ldr	r4, [lr, #12]
1976:Drivers/STM32F4xx_HAL_Driver/Src/stm32f4xx_ll_usb.c ****                                             USB_OTG_HCINTMSK_NYET);
 4638              		.loc 1 1976 41 view .LVU1599
 4639 0196 44F06004 		orr	r4, r4, #96
 4640 019a CEF80C40 		str	r4, [lr, #12]
1979:Drivers/STM32F4xx_HAL_Driver/Src/stm32f4xx_ll_usb.c ****     {
 4641              		.loc 1 1979 5 is_stmt 1 view .LVU1600
1979:Drivers/STM32F4xx_HAL_Driver/Src/stm32f4xx_ll_usb.c ****     {
 4642              		.loc 1 1979 12 is_stmt 0 view .LVU1601
 4643 019e CC79     		ldrb	r4, [r1, #7]	@ zero_extendqisi2
1979:Drivers/STM32F4xx_HAL_Driver/Src/stm32f4xx_ll_usb.c ****     {
 4644              		.loc 1 1979 8 view .LVU1602
 4645 01a0 012C     		cmp	r4, #1
 4646 01a2 12D0     		beq	.L312
 4647              	.L287:
1985:Drivers/STM32F4xx_HAL_Driver/Src/stm32f4xx_ll_usb.c ****         (hc->do_csplit == 1U) && (hc->ep_is_in == 1U))
 4648              		.loc 1 1985 5 is_stmt 1 view .LVU1603
1985:Drivers/STM32F4xx_HAL_Driver/Src/stm32f4xx_ll_usb.c ****         (hc->do_csplit == 1U) && (hc->ep_is_in == 1U))
 4649              		.loc 1 1985 13 is_stmt 0 view .LVU1604
 4650 01a4 8C7C     		ldrb	r4, [r1, #18]	@ zero_extendqisi2
1985:Drivers/STM32F4xx_HAL_Driver/Src/stm32f4xx_ll_usb.c ****         (hc->do_csplit == 1U) && (hc->ep_is_in == 1U))
 4651              		.loc 1 1985 8 view .LVU1605
 4652 01a6 012C     		cmp	r4, #1
 4653 01a8 1FD0     		beq	.L288
1985:Drivers/STM32F4xx_HAL_Driver/Src/stm32f4xx_ll_usb.c ****         (hc->do_csplit == 1U) && (hc->ep_is_in == 1U))
 4654              		.loc 1 1985 40 discriminator 2 view .LVU1606
 4655 01aa 032C     		cmp	r4, #3
 4656 01ac 1DD0     		beq	.L288
 4657              	.L289:
1992:Drivers/STM32F4xx_HAL_Driver/Src/stm32f4xx_ll_usb.c ****     {
 4658              		.loc 1 1992 5 is_stmt 1 view .LVU1607
1992:Drivers/STM32F4xx_HAL_Driver/Src/stm32f4xx_ll_usb.c ****     {
 4659              		.loc 1 1992 12 is_stmt 0 view .LVU1608
 4660 01ae 8C7C     		ldrb	r4, [r1, #18]	@ zero_extendqisi2
1992:Drivers/STM32F4xx_HAL_Driver/Src/stm32f4xx_ll_usb.c ****     {
 4661              		.loc 1 1992 8 view .LVU1609
 4662 01b0 012C     		cmp	r4, #1
 4663 01b2 B9D1     		bne	.L290
1992:Drivers/STM32F4xx_HAL_Driver/Src/stm32f4xx_ll_usb.c ****     {
 4664              		.loc 1 1992 45 discriminator 1 view .LVU1610
 4665 01b4 CC78     		ldrb	r4, [r1, #3]	@ zero_extendqisi2
1992:Drivers/STM32F4xx_HAL_Driver/Src/stm32f4xx_ll_usb.c ****     {
 4666              		.loc 1 1992 39 discriminator 1 view .LVU1611
 4667 01b6 002C     		cmp	r4, #0
 4668 01b8 B6D1     		bne	.L290
1995:Drivers/STM32F4xx_HAL_Driver/Src/stm32f4xx_ll_usb.c ****       {
ARM GAS  /tmp/cc0ThgoX.s 			page 140


 4669              		.loc 1 1995 7 is_stmt 1 view .LVU1612
1995:Drivers/STM32F4xx_HAL_Driver/Src/stm32f4xx_ll_usb.c ****       {
 4670              		.loc 1 1995 17 is_stmt 0 view .LVU1613
 4671 01ba CC68     		ldr	r4, [r1, #12]
1995:Drivers/STM32F4xx_HAL_Driver/Src/stm32f4xx_ll_usb.c ****       {
 4672              		.loc 1 1995 7 view .LVU1614
 4673 01bc 013C     		subs	r4, r4, #1
 4674 01be 032C     		cmp	r4, #3
 4675 01c0 B2D8     		bhi	.L290
 4676 01c2 DFE804F0 		tbb	[pc, r4]
 4677              	.L292:
 4678 01c6 1F       		.byte	(.L295-.L292)/2
 4679 01c7 26       		.byte	(.L294-.L292)/2
 4680 01c8 2D       		.byte	(.L293-.L292)/2
 4681 01c9 34       		.byte	(.L291-.L292)/2
 4682              		.p2align 1
 4683              	.L312:
1979:Drivers/STM32F4xx_HAL_Driver/Src/stm32f4xx_ll_usb.c ****     {
 4684              		.loc 1 1979 37 discriminator 1 view .LVU1615
 4685 01ca CC78     		ldrb	r4, [r1, #3]	@ zero_extendqisi2
1979:Drivers/STM32F4xx_HAL_Driver/Src/stm32f4xx_ll_usb.c ****     {
 4686              		.loc 1 1979 31 discriminator 1 view .LVU1616
 4687 01cc 002C     		cmp	r4, #0
 4688 01ce E9D1     		bne	.L287
1981:Drivers/STM32F4xx_HAL_Driver/Src/stm32f4xx_ll_usb.c ****       USBx_HC((uint32_t)ch_num)->HCINTMSK |= USB_OTG_HCINTMSK_NYET;
 4689              		.loc 1 1981 7 is_stmt 1 view .LVU1617
1981:Drivers/STM32F4xx_HAL_Driver/Src/stm32f4xx_ll_usb.c ****       USBx_HC((uint32_t)ch_num)->HCINTMSK |= USB_OTG_HCINTMSK_NYET;
 4690              		.loc 1 1981 32 is_stmt 0 view .LVU1618
 4691 01d0 DEF80440 		ldr	r4, [lr, #4]
1981:Drivers/STM32F4xx_HAL_Driver/Src/stm32f4xx_ll_usb.c ****       USBx_HC((uint32_t)ch_num)->HCINTMSK |= USB_OTG_HCINTMSK_NYET;
 4692              		.loc 1 1981 41 view .LVU1619
 4693 01d4 44F48034 		orr	r4, r4, #65536
 4694 01d8 CEF80440 		str	r4, [lr, #4]
1982:Drivers/STM32F4xx_HAL_Driver/Src/stm32f4xx_ll_usb.c ****     }
 4695              		.loc 1 1982 7 is_stmt 1 view .LVU1620
1982:Drivers/STM32F4xx_HAL_Driver/Src/stm32f4xx_ll_usb.c ****     }
 4696              		.loc 1 1982 32 is_stmt 0 view .LVU1621
 4697 01dc DEF80C40 		ldr	r4, [lr, #12]
1982:Drivers/STM32F4xx_HAL_Driver/Src/stm32f4xx_ll_usb.c ****     }
 4698              		.loc 1 1982 43 view .LVU1622
 4699 01e0 44F04004 		orr	r4, r4, #64
 4700 01e4 CEF80C40 		str	r4, [lr, #12]
 4701 01e8 DCE7     		b	.L287
 4702              	.L288:
1986:Drivers/STM32F4xx_HAL_Driver/Src/stm32f4xx_ll_usb.c ****     {
 4703              		.loc 1 1986 12 view .LVU1623
 4704 01ea CC79     		ldrb	r4, [r1, #7]	@ zero_extendqisi2
1985:Drivers/STM32F4xx_HAL_Driver/Src/stm32f4xx_ll_usb.c ****         (hc->do_csplit == 1U) && (hc->ep_is_in == 1U))
 4705              		.loc 1 1985 74 discriminator 3 view .LVU1624
 4706 01ec 012C     		cmp	r4, #1
 4707 01ee DED1     		bne	.L289
1986:Drivers/STM32F4xx_HAL_Driver/Src/stm32f4xx_ll_usb.c ****     {
 4708              		.loc 1 1986 37 view .LVU1625
 4709 01f0 CC78     		ldrb	r4, [r1, #3]	@ zero_extendqisi2
1986:Drivers/STM32F4xx_HAL_Driver/Src/stm32f4xx_ll_usb.c ****     {
 4710              		.loc 1 1986 31 view .LVU1626
 4711 01f2 012C     		cmp	r4, #1
ARM GAS  /tmp/cc0ThgoX.s 			page 141


 4712 01f4 DBD1     		bne	.L289
1988:Drivers/STM32F4xx_HAL_Driver/Src/stm32f4xx_ll_usb.c ****     }
 4713              		.loc 1 1988 7 is_stmt 1 view .LVU1627
1988:Drivers/STM32F4xx_HAL_Driver/Src/stm32f4xx_ll_usb.c ****     }
 4714              		.loc 1 1988 32 is_stmt 0 view .LVU1628
 4715 01f6 DEF80440 		ldr	r4, [lr, #4]
1988:Drivers/STM32F4xx_HAL_Driver/Src/stm32f4xx_ll_usb.c ****     }
 4716              		.loc 1 1988 41 view .LVU1629
 4717 01fa 44F48034 		orr	r4, r4, #65536
 4718 01fe CEF80440 		str	r4, [lr, #4]
 4719 0202 D4E7     		b	.L289
 4720              	.L295:
1999:Drivers/STM32F4xx_HAL_Driver/Src/stm32f4xx_ll_usb.c ****           break;
 4721              		.loc 1 1999 11 is_stmt 1 view .LVU1630
1999:Drivers/STM32F4xx_HAL_Driver/Src/stm32f4xx_ll_usb.c ****           break;
 4722              		.loc 1 1999 36 is_stmt 0 view .LVU1631
 4723 0204 DEF80440 		ldr	r4, [lr, #4]
1999:Drivers/STM32F4xx_HAL_Driver/Src/stm32f4xx_ll_usb.c ****           break;
 4724              		.loc 1 1999 45 view .LVU1632
 4725 0208 44F40044 		orr	r4, r4, #32768
 4726 020c CEF80440 		str	r4, [lr, #4]
2000:Drivers/STM32F4xx_HAL_Driver/Src/stm32f4xx_ll_usb.c **** 
 4727              		.loc 1 2000 11 is_stmt 1 view .LVU1633
 4728 0210 8AE7     		b	.L290
 4729              	.L294:
2004:Drivers/STM32F4xx_HAL_Driver/Src/stm32f4xx_ll_usb.c ****           break;
 4730              		.loc 1 2004 11 view .LVU1634
2004:Drivers/STM32F4xx_HAL_Driver/Src/stm32f4xx_ll_usb.c ****           break;
 4731              		.loc 1 2004 36 is_stmt 0 view .LVU1635
 4732 0212 DEF80440 		ldr	r4, [lr, #4]
2004:Drivers/STM32F4xx_HAL_Driver/Src/stm32f4xx_ll_usb.c ****           break;
 4733              		.loc 1 2004 45 view .LVU1636
 4734 0216 44F00E04 		orr	r4, r4, #14
 4735 021a CEF80440 		str	r4, [lr, #4]
2005:Drivers/STM32F4xx_HAL_Driver/Src/stm32f4xx_ll_usb.c **** 
 4736              		.loc 1 2005 11 is_stmt 1 view .LVU1637
 4737 021e 83E7     		b	.L290
 4738              	.L293:
2009:Drivers/STM32F4xx_HAL_Driver/Src/stm32f4xx_ll_usb.c ****           break;
 4739              		.loc 1 2009 11 view .LVU1638
2009:Drivers/STM32F4xx_HAL_Driver/Src/stm32f4xx_ll_usb.c ****           break;
 4740              		.loc 1 2009 36 is_stmt 0 view .LVU1639
 4741 0220 DEF80440 		ldr	r4, [lr, #4]
2009:Drivers/STM32F4xx_HAL_Driver/Src/stm32f4xx_ll_usb.c ****           break;
 4742              		.loc 1 2009 45 view .LVU1640
 4743 0224 44F48044 		orr	r4, r4, #16384
 4744 0228 CEF80440 		str	r4, [lr, #4]
2010:Drivers/STM32F4xx_HAL_Driver/Src/stm32f4xx_ll_usb.c **** 
 4745              		.loc 1 2010 11 is_stmt 1 view .LVU1641
 4746 022c 7CE7     		b	.L290
 4747              	.L291:
2014:Drivers/STM32F4xx_HAL_Driver/Src/stm32f4xx_ll_usb.c ****           break;
 4748              		.loc 1 2014 11 view .LVU1642
2014:Drivers/STM32F4xx_HAL_Driver/Src/stm32f4xx_ll_usb.c ****           break;
 4749              		.loc 1 2014 36 is_stmt 0 view .LVU1643
 4750 022e DEF80440 		ldr	r4, [lr, #4]
2014:Drivers/STM32F4xx_HAL_Driver/Src/stm32f4xx_ll_usb.c ****           break;
ARM GAS  /tmp/cc0ThgoX.s 			page 142


 4751              		.loc 1 2014 45 view .LVU1644
 4752 0232 44F44044 		orr	r4, r4, #49152
 4753 0236 CEF80440 		str	r4, [lr, #4]
2015:Drivers/STM32F4xx_HAL_Driver/Src/stm32f4xx_ll_usb.c **** 
 4754              		.loc 1 2015 11 is_stmt 1 view .LVU1645
 4755 023a 75E7     		b	.L290
 4756              	.L296:
2039:Drivers/STM32F4xx_HAL_Driver/Src/stm32f4xx_ll_usb.c ****   }
 4757              		.loc 1 2039 5 view .LVU1646
2039:Drivers/STM32F4xx_HAL_Driver/Src/stm32f4xx_ll_usb.c ****   }
 4758              		.loc 1 2039 12 is_stmt 0 view .LVU1647
 4759 023c 039C     		ldr	r4, [sp, #12]
 4760 023e 24F40044 		bic	r4, r4, #32768
 4761 0242 0394     		str	r4, [sp, #12]
 4762 0244 7EE7     		b	.L297
 4763              	.LVL335:
 4764              	.L302:
2052:Drivers/STM32F4xx_HAL_Driver/Src/stm32f4xx_ll_usb.c ****     {
2053:Drivers/STM32F4xx_HAL_Driver/Src/stm32f4xx_ll_usb.c ****       /* Non periodic transfer */
2054:Drivers/STM32F4xx_HAL_Driver/Src/stm32f4xx_ll_usb.c ****       case EP_TYPE_CTRL:
2055:Drivers/STM32F4xx_HAL_Driver/Src/stm32f4xx_ll_usb.c ****       case EP_TYPE_BULK:
2056:Drivers/STM32F4xx_HAL_Driver/Src/stm32f4xx_ll_usb.c **** 
2057:Drivers/STM32F4xx_HAL_Driver/Src/stm32f4xx_ll_usb.c ****         len_words = (uint16_t)((hc->xfer_len + 3U) / 4U);
 4765              		.loc 1 2057 9 is_stmt 1 view .LVU1648
 4766              		.loc 1 2057 46 is_stmt 0 view .LVU1649
 4767 0246 0333     		adds	r3, r3, #3
 4768              	.LVL336:
2058:Drivers/STM32F4xx_HAL_Driver/Src/stm32f4xx_ll_usb.c **** 
2059:Drivers/STM32F4xx_HAL_Driver/Src/stm32f4xx_ll_usb.c ****         /* check if there is enough space in FIFO space */
2060:Drivers/STM32F4xx_HAL_Driver/Src/stm32f4xx_ll_usb.c ****         if (len_words > (USBx->HNPTXSTS & 0xFFFFU))
 4769              		.loc 1 2060 9 is_stmt 1 view .LVU1650
 4770              		.loc 1 2060 30 is_stmt 0 view .LVU1651
 4771 0248 C26A     		ldr	r2, [r0, #44]
 4772              		.loc 1 2060 41 view .LVU1652
 4773 024a 92B2     		uxth	r2, r2
 4774              		.loc 1 2060 12 view .LVU1653
 4775 024c C3F38F03 		ubfx	r3, r3, #2, #16
 4776              	.LVL337:
 4777              		.loc 1 2060 12 view .LVU1654
 4778 0250 9A42     		cmp	r2, r3
 4779 0252 03D2     		bcs	.L299
2061:Drivers/STM32F4xx_HAL_Driver/Src/stm32f4xx_ll_usb.c ****         {
2062:Drivers/STM32F4xx_HAL_Driver/Src/stm32f4xx_ll_usb.c ****           /* need to process data in nptxfempty interrupt */
2063:Drivers/STM32F4xx_HAL_Driver/Src/stm32f4xx_ll_usb.c ****           USBx->GINTMSK |= USB_OTG_GINTMSK_NPTXFEM;
 4780              		.loc 1 2063 11 is_stmt 1 view .LVU1655
 4781              		.loc 1 2063 15 is_stmt 0 view .LVU1656
 4782 0254 8369     		ldr	r3, [r0, #24]
 4783              		.loc 1 2063 25 view .LVU1657
 4784 0256 43F02003 		orr	r3, r3, #32
 4785 025a 8361     		str	r3, [r0, #24]
 4786              	.LVL338:
 4787              	.L299:
2064:Drivers/STM32F4xx_HAL_Driver/Src/stm32f4xx_ll_usb.c ****         }
2065:Drivers/STM32F4xx_HAL_Driver/Src/stm32f4xx_ll_usb.c ****         break;
2066:Drivers/STM32F4xx_HAL_Driver/Src/stm32f4xx_ll_usb.c **** 
2067:Drivers/STM32F4xx_HAL_Driver/Src/stm32f4xx_ll_usb.c ****       /* Periodic transfer */
2068:Drivers/STM32F4xx_HAL_Driver/Src/stm32f4xx_ll_usb.c ****       case EP_TYPE_INTR:
ARM GAS  /tmp/cc0ThgoX.s 			page 143


2069:Drivers/STM32F4xx_HAL_Driver/Src/stm32f4xx_ll_usb.c ****       case EP_TYPE_ISOC:
2070:Drivers/STM32F4xx_HAL_Driver/Src/stm32f4xx_ll_usb.c ****         len_words = (uint16_t)((hc->xfer_len + 3U) / 4U);
2071:Drivers/STM32F4xx_HAL_Driver/Src/stm32f4xx_ll_usb.c ****         /* check if there is enough space in FIFO space */
2072:Drivers/STM32F4xx_HAL_Driver/Src/stm32f4xx_ll_usb.c ****         if (len_words > (USBx_HOST->HPTXSTS & 0xFFFFU)) /* split the transfer */
2073:Drivers/STM32F4xx_HAL_Driver/Src/stm32f4xx_ll_usb.c ****         {
2074:Drivers/STM32F4xx_HAL_Driver/Src/stm32f4xx_ll_usb.c ****           /* need to process data in ptxfempty interrupt */
2075:Drivers/STM32F4xx_HAL_Driver/Src/stm32f4xx_ll_usb.c ****           USBx->GINTMSK |= USB_OTG_GINTMSK_PTXFEM;
2076:Drivers/STM32F4xx_HAL_Driver/Src/stm32f4xx_ll_usb.c ****         }
2077:Drivers/STM32F4xx_HAL_Driver/Src/stm32f4xx_ll_usb.c ****         break;
2078:Drivers/STM32F4xx_HAL_Driver/Src/stm32f4xx_ll_usb.c **** 
2079:Drivers/STM32F4xx_HAL_Driver/Src/stm32f4xx_ll_usb.c ****       default:
2080:Drivers/STM32F4xx_HAL_Driver/Src/stm32f4xx_ll_usb.c ****         break;
2081:Drivers/STM32F4xx_HAL_Driver/Src/stm32f4xx_ll_usb.c ****     }
2082:Drivers/STM32F4xx_HAL_Driver/Src/stm32f4xx_ll_usb.c **** 
2083:Drivers/STM32F4xx_HAL_Driver/Src/stm32f4xx_ll_usb.c ****     /* Write packet into the Tx FIFO. */
2084:Drivers/STM32F4xx_HAL_Driver/Src/stm32f4xx_ll_usb.c ****     (void)USB_WritePacket(USBx, hc->xfer_buff, hc->ch_num, (uint16_t)hc->xfer_len, 0);
 4788              		.loc 1 2084 5 is_stmt 1 view .LVU1658
 4789              		.loc 1 2084 11 is_stmt 0 view .LVU1659
 4790 025c 0023     		movs	r3, #0
 4791 025e 0093     		str	r3, [sp]
 4792 0260 0B8C     		ldrh	r3, [r1, #32]
 4793 0262 4A78     		ldrb	r2, [r1, #1]	@ zero_extendqisi2
 4794 0264 8969     		ldr	r1, [r1, #24]
 4795              	.LVL339:
 4796              		.loc 1 2084 11 view .LVU1660
 4797 0266 FFF7FEFF 		bl	USB_WritePacket
 4798              	.LVL340:
 4799              	.L298:
2085:Drivers/STM32F4xx_HAL_Driver/Src/stm32f4xx_ll_usb.c ****   }
2086:Drivers/STM32F4xx_HAL_Driver/Src/stm32f4xx_ll_usb.c **** 
2087:Drivers/STM32F4xx_HAL_Driver/Src/stm32f4xx_ll_usb.c ****   return HAL_OK;
2088:Drivers/STM32F4xx_HAL_Driver/Src/stm32f4xx_ll_usb.c **** }
 4800              		.loc 1 2088 1 view .LVU1661
 4801 026a 0020     		movs	r0, #0
 4802 026c 05B0     		add	sp, sp, #20
 4803              	.LCFI55:
 4804              		.cfi_remember_state
 4805              		.cfi_def_cfa_offset 12
 4806              		@ sp needed
 4807 026e 30BD     		pop	{r4, r5, pc}
 4808              	.LVL341:
 4809              	.L300:
 4810              	.LCFI56:
 4811              		.cfi_restore_state
2070:Drivers/STM32F4xx_HAL_Driver/Src/stm32f4xx_ll_usb.c ****         /* check if there is enough space in FIFO space */
 4812              		.loc 1 2070 9 is_stmt 1 view .LVU1662
2070:Drivers/STM32F4xx_HAL_Driver/Src/stm32f4xx_ll_usb.c ****         /* check if there is enough space in FIFO space */
 4813              		.loc 1 2070 46 is_stmt 0 view .LVU1663
 4814 0270 0333     		adds	r3, r3, #3
 4815              	.LVL342:
2072:Drivers/STM32F4xx_HAL_Driver/Src/stm32f4xx_ll_usb.c ****         {
 4816              		.loc 1 2072 9 is_stmt 1 view .LVU1664
2072:Drivers/STM32F4xx_HAL_Driver/Src/stm32f4xx_ll_usb.c ****         {
 4817              		.loc 1 2072 35 is_stmt 0 view .LVU1665
 4818 0272 2A69     		ldr	r2, [r5, #16]
2072:Drivers/STM32F4xx_HAL_Driver/Src/stm32f4xx_ll_usb.c ****         {
 4819              		.loc 1 2072 45 view .LVU1666
ARM GAS  /tmp/cc0ThgoX.s 			page 144


 4820 0274 92B2     		uxth	r2, r2
2072:Drivers/STM32F4xx_HAL_Driver/Src/stm32f4xx_ll_usb.c ****         {
 4821              		.loc 1 2072 12 view .LVU1667
 4822 0276 C3F38F03 		ubfx	r3, r3, #2, #16
 4823              	.LVL343:
2072:Drivers/STM32F4xx_HAL_Driver/Src/stm32f4xx_ll_usb.c ****         {
 4824              		.loc 1 2072 12 view .LVU1668
 4825 027a 9A42     		cmp	r2, r3
 4826 027c EED2     		bcs	.L299
2075:Drivers/STM32F4xx_HAL_Driver/Src/stm32f4xx_ll_usb.c ****         }
 4827              		.loc 1 2075 11 is_stmt 1 view .LVU1669
2075:Drivers/STM32F4xx_HAL_Driver/Src/stm32f4xx_ll_usb.c ****         }
 4828              		.loc 1 2075 15 is_stmt 0 view .LVU1670
 4829 027e 8369     		ldr	r3, [r0, #24]
2075:Drivers/STM32F4xx_HAL_Driver/Src/stm32f4xx_ll_usb.c ****         }
 4830              		.loc 1 2075 25 view .LVU1671
 4831 0280 43F08063 		orr	r3, r3, #67108864
 4832 0284 8361     		str	r3, [r0, #24]
 4833              	.LVL344:
2075:Drivers/STM32F4xx_HAL_Driver/Src/stm32f4xx_ll_usb.c ****         }
 4834              		.loc 1 2075 25 view .LVU1672
 4835 0286 E9E7     		b	.L299
 4836              	.L314:
 4837              		.align	2
 4838              	.L313:
 4839 0288 0000F81F 		.word	536346624
 4840              		.cfi_endproc
 4841              	.LFE176:
 4843              		.section	.text.USB_HC_ReadInterrupt,"ax",%progbits
 4844              		.align	1
 4845              		.global	USB_HC_ReadInterrupt
 4846              		.syntax unified
 4847              		.thumb
 4848              		.thumb_func
 4850              	USB_HC_ReadInterrupt:
 4851              	.LVL345:
 4852              	.LFB177:
2089:Drivers/STM32F4xx_HAL_Driver/Src/stm32f4xx_ll_usb.c **** 
2090:Drivers/STM32F4xx_HAL_Driver/Src/stm32f4xx_ll_usb.c **** /**
2091:Drivers/STM32F4xx_HAL_Driver/Src/stm32f4xx_ll_usb.c ****   * @brief Read all host channel interrupts status
2092:Drivers/STM32F4xx_HAL_Driver/Src/stm32f4xx_ll_usb.c ****   * @param  USBx  Selected device
2093:Drivers/STM32F4xx_HAL_Driver/Src/stm32f4xx_ll_usb.c ****   * @retval HAL state
2094:Drivers/STM32F4xx_HAL_Driver/Src/stm32f4xx_ll_usb.c ****   */
2095:Drivers/STM32F4xx_HAL_Driver/Src/stm32f4xx_ll_usb.c **** uint32_t USB_HC_ReadInterrupt(const USB_OTG_GlobalTypeDef *USBx)
2096:Drivers/STM32F4xx_HAL_Driver/Src/stm32f4xx_ll_usb.c **** {
 4853              		.loc 1 2096 1 is_stmt 1 view -0
 4854              		.cfi_startproc
 4855              		@ args = 0, pretend = 0, frame = 0
 4856              		@ frame_needed = 0, uses_anonymous_args = 0
 4857              		@ link register save eliminated.
2097:Drivers/STM32F4xx_HAL_Driver/Src/stm32f4xx_ll_usb.c ****   uint32_t USBx_BASE = (uint32_t)USBx;
 4858              		.loc 1 2097 3 view .LVU1674
2098:Drivers/STM32F4xx_HAL_Driver/Src/stm32f4xx_ll_usb.c **** 
2099:Drivers/STM32F4xx_HAL_Driver/Src/stm32f4xx_ll_usb.c ****   return ((USBx_HOST->HAINT) & 0xFFFFU);
 4859              		.loc 1 2099 3 view .LVU1675
 4860              		.loc 1 2099 12 is_stmt 0 view .LVU1676
 4861 0000 00F58060 		add	r0, r0, #1024
ARM GAS  /tmp/cc0ThgoX.s 			page 145


 4862              	.LVL346:
 4863              		.loc 1 2099 21 view .LVU1677
 4864 0004 4069     		ldr	r0, [r0, #20]
 4865              	.LVL347:
2100:Drivers/STM32F4xx_HAL_Driver/Src/stm32f4xx_ll_usb.c **** }
 4866              		.loc 1 2100 1 view .LVU1678
 4867 0006 80B2     		uxth	r0, r0
 4868 0008 7047     		bx	lr
 4869              		.cfi_endproc
 4870              	.LFE177:
 4872              		.section	.text.USB_HC_Halt,"ax",%progbits
 4873              		.align	1
 4874              		.global	USB_HC_Halt
 4875              		.syntax unified
 4876              		.thumb
 4877              		.thumb_func
 4879              	USB_HC_Halt:
 4880              	.LVL348:
 4881              	.LFB178:
2101:Drivers/STM32F4xx_HAL_Driver/Src/stm32f4xx_ll_usb.c **** 
2102:Drivers/STM32F4xx_HAL_Driver/Src/stm32f4xx_ll_usb.c **** /**
2103:Drivers/STM32F4xx_HAL_Driver/Src/stm32f4xx_ll_usb.c ****   * @brief  Halt a host channel
2104:Drivers/STM32F4xx_HAL_Driver/Src/stm32f4xx_ll_usb.c ****   * @param  USBx  Selected device
2105:Drivers/STM32F4xx_HAL_Driver/Src/stm32f4xx_ll_usb.c ****   * @param  hc_num  Host Channel number
2106:Drivers/STM32F4xx_HAL_Driver/Src/stm32f4xx_ll_usb.c ****   *         This parameter can be a value from 1 to 15
2107:Drivers/STM32F4xx_HAL_Driver/Src/stm32f4xx_ll_usb.c ****   * @retval HAL state
2108:Drivers/STM32F4xx_HAL_Driver/Src/stm32f4xx_ll_usb.c ****   */
2109:Drivers/STM32F4xx_HAL_Driver/Src/stm32f4xx_ll_usb.c **** HAL_StatusTypeDef USB_HC_Halt(const USB_OTG_GlobalTypeDef *USBx, uint8_t hc_num)
2110:Drivers/STM32F4xx_HAL_Driver/Src/stm32f4xx_ll_usb.c **** {
 4882              		.loc 1 2110 1 is_stmt 1 view -0
 4883              		.cfi_startproc
 4884              		@ args = 0, pretend = 0, frame = 8
 4885              		@ frame_needed = 0, uses_anonymous_args = 0
 4886              		@ link register save eliminated.
 4887              		.loc 1 2110 1 is_stmt 0 view .LVU1680
 4888 0000 70B4     		push	{r4, r5, r6}
 4889              	.LCFI57:
 4890              		.cfi_def_cfa_offset 12
 4891              		.cfi_offset 4, -12
 4892              		.cfi_offset 5, -8
 4893              		.cfi_offset 6, -4
 4894 0002 83B0     		sub	sp, sp, #12
 4895              	.LCFI58:
 4896              		.cfi_def_cfa_offset 24
2111:Drivers/STM32F4xx_HAL_Driver/Src/stm32f4xx_ll_usb.c ****   uint32_t USBx_BASE = (uint32_t)USBx;
 4897              		.loc 1 2111 3 is_stmt 1 view .LVU1681
 4898              	.LVL349:
2112:Drivers/STM32F4xx_HAL_Driver/Src/stm32f4xx_ll_usb.c ****   uint32_t hcnum = (uint32_t)hc_num;
 4899              		.loc 1 2112 3 view .LVU1682
2113:Drivers/STM32F4xx_HAL_Driver/Src/stm32f4xx_ll_usb.c ****   __IO uint32_t count = 0U;
 4900              		.loc 1 2113 3 view .LVU1683
 4901              		.loc 1 2113 17 is_stmt 0 view .LVU1684
 4902 0004 0023     		movs	r3, #0
 4903 0006 0193     		str	r3, [sp, #4]
2114:Drivers/STM32F4xx_HAL_Driver/Src/stm32f4xx_ll_usb.c ****   uint32_t HcEpType = (USBx_HC(hcnum)->HCCHAR & USB_OTG_HCCHAR_EPTYP) >> 18;
 4904              		.loc 1 2114 3 is_stmt 1 view .LVU1685
 4905              		.loc 1 2114 24 is_stmt 0 view .LVU1686
ARM GAS  /tmp/cc0ThgoX.s 			page 146


 4906 0008 00EB4111 		add	r1, r0, r1, lsl #5
 4907              	.LVL350:
 4908              		.loc 1 2114 24 view .LVU1687
 4909 000c 01F5A062 		add	r2, r1, #1280
 4910              		.loc 1 2114 38 view .LVU1688
 4911 0010 D1F80035 		ldr	r3, [r1, #1280]
 4912              		.loc 1 2114 12 view .LVU1689
 4913 0014 C3F38143 		ubfx	r3, r3, #18, #2
 4914              	.LVL351:
2115:Drivers/STM32F4xx_HAL_Driver/Src/stm32f4xx_ll_usb.c ****   uint32_t ChannelEna = (USBx_HC(hcnum)->HCCHAR & USB_OTG_HCCHAR_CHENA) >> 31;
 4915              		.loc 1 2115 3 is_stmt 1 view .LVU1690
 4916              		.loc 1 2115 40 is_stmt 0 view .LVU1691
 4917 0018 D1F80055 		ldr	r5, [r1, #1280]
 4918              	.LVL352:
2116:Drivers/STM32F4xx_HAL_Driver/Src/stm32f4xx_ll_usb.c ****   uint32_t SplitEna = (USBx_HC(hcnum)->HCSPLT & USB_OTG_HCSPLT_SPLITEN) >> 31;
 4919              		.loc 1 2116 3 is_stmt 1 view .LVU1692
 4920              		.loc 1 2116 38 is_stmt 0 view .LVU1693
 4921 001c 5468     		ldr	r4, [r2, #4]
 4922              	.LVL353:
2117:Drivers/STM32F4xx_HAL_Driver/Src/stm32f4xx_ll_usb.c **** 
2118:Drivers/STM32F4xx_HAL_Driver/Src/stm32f4xx_ll_usb.c ****   /* In buffer DMA, Channel disable must not be programmed for non-split periodic channels.
2119:Drivers/STM32F4xx_HAL_Driver/Src/stm32f4xx_ll_usb.c ****      At the end of the next uframe/frame (in the worst case), the core generates a channel halted
2120:Drivers/STM32F4xx_HAL_Driver/Src/stm32f4xx_ll_usb.c ****      and disables the channel automatically. */
2121:Drivers/STM32F4xx_HAL_Driver/Src/stm32f4xx_ll_usb.c **** 
2122:Drivers/STM32F4xx_HAL_Driver/Src/stm32f4xx_ll_usb.c ****   if ((((USBx->GAHBCFG & USB_OTG_GAHBCFG_DMAEN) == USB_OTG_GAHBCFG_DMAEN) && (SplitEna == 0U)) &&
 4923              		.loc 1 2122 3 is_stmt 1 view .LVU1694
 4924              		.loc 1 2122 14 is_stmt 0 view .LVU1695
 4925 001e 8668     		ldr	r6, [r0, #8]
 4926              		.loc 1 2122 6 view .LVU1696
 4927 0020 16F0200F 		tst	r6, #32
 4928 0024 08D0     		beq	.L317
 4929 0026 ED0F     		lsrs	r5, r5, #31
 4930              	.LVL354:
 4931              		.loc 1 2122 6 view .LVU1697
 4932 0028 E40F     		lsrs	r4, r4, #31
 4933              	.LVL355:
 4934              		.loc 1 2122 75 discriminator 1 view .LVU1698
 4935 002a 2CB9     		cbnz	r4, .L317
 4936              		.loc 1 2122 96 discriminator 2 view .LVU1699
 4937 002c 002D     		cmp	r5, #0
 4938 002e 5AD0     		beq	.L318
2123:Drivers/STM32F4xx_HAL_Driver/Src/stm32f4xx_ll_usb.c ****       ((ChannelEna == 0U) || (((HcEpType == HCCHAR_ISOC) || (HcEpType == HCCHAR_INTR)))))
 4939              		.loc 1 2123 27 view .LVU1700
 4940 0030 012B     		cmp	r3, #1
 4941 0032 58D0     		beq	.L318
 4942              		.loc 1 2123 58 discriminator 1 view .LVU1701
 4943 0034 032B     		cmp	r3, #3
 4944 0036 56D0     		beq	.L318
 4945              	.LVL356:
 4946              	.L317:
2124:Drivers/STM32F4xx_HAL_Driver/Src/stm32f4xx_ll_usb.c ****   {
2125:Drivers/STM32F4xx_HAL_Driver/Src/stm32f4xx_ll_usb.c ****     return HAL_OK;
2126:Drivers/STM32F4xx_HAL_Driver/Src/stm32f4xx_ll_usb.c ****   }
2127:Drivers/STM32F4xx_HAL_Driver/Src/stm32f4xx_ll_usb.c **** 
2128:Drivers/STM32F4xx_HAL_Driver/Src/stm32f4xx_ll_usb.c ****   /* Check for space in the request queue to issue the halt. */
2129:Drivers/STM32F4xx_HAL_Driver/Src/stm32f4xx_ll_usb.c ****   if ((HcEpType == HCCHAR_CTRL) || (HcEpType == HCCHAR_BULK))
 4947              		.loc 1 2129 3 is_stmt 1 view .LVU1702
ARM GAS  /tmp/cc0ThgoX.s 			page 147


 4948              		.loc 1 2129 6 is_stmt 0 view .LVU1703
 4949 0038 1BB3     		cbz	r3, .L319
 4950              		.loc 1 2129 33 discriminator 1 view .LVU1704
 4951 003a 022B     		cmp	r3, #2
 4952 003c 21D0     		beq	.L319
2130:Drivers/STM32F4xx_HAL_Driver/Src/stm32f4xx_ll_usb.c ****   {
2131:Drivers/STM32F4xx_HAL_Driver/Src/stm32f4xx_ll_usb.c ****     USBx_HC(hcnum)->HCCHAR |= USB_OTG_HCCHAR_CHDIS;
2132:Drivers/STM32F4xx_HAL_Driver/Src/stm32f4xx_ll_usb.c **** 
2133:Drivers/STM32F4xx_HAL_Driver/Src/stm32f4xx_ll_usb.c ****     if ((USBx->GAHBCFG & USB_OTG_GAHBCFG_DMAEN) == 0U)
2134:Drivers/STM32F4xx_HAL_Driver/Src/stm32f4xx_ll_usb.c ****     {
2135:Drivers/STM32F4xx_HAL_Driver/Src/stm32f4xx_ll_usb.c ****       if ((USBx->HNPTXSTS & (0xFFU << 16)) == 0U)
2136:Drivers/STM32F4xx_HAL_Driver/Src/stm32f4xx_ll_usb.c ****       {
2137:Drivers/STM32F4xx_HAL_Driver/Src/stm32f4xx_ll_usb.c ****         USBx_HC(hcnum)->HCCHAR &= ~USB_OTG_HCCHAR_CHENA;
2138:Drivers/STM32F4xx_HAL_Driver/Src/stm32f4xx_ll_usb.c ****         USBx_HC(hcnum)->HCCHAR |= USB_OTG_HCCHAR_CHENA;
2139:Drivers/STM32F4xx_HAL_Driver/Src/stm32f4xx_ll_usb.c ****         do
2140:Drivers/STM32F4xx_HAL_Driver/Src/stm32f4xx_ll_usb.c ****         {
2141:Drivers/STM32F4xx_HAL_Driver/Src/stm32f4xx_ll_usb.c ****           count++;
2142:Drivers/STM32F4xx_HAL_Driver/Src/stm32f4xx_ll_usb.c **** 
2143:Drivers/STM32F4xx_HAL_Driver/Src/stm32f4xx_ll_usb.c ****           if (count > 1000U)
2144:Drivers/STM32F4xx_HAL_Driver/Src/stm32f4xx_ll_usb.c ****           {
2145:Drivers/STM32F4xx_HAL_Driver/Src/stm32f4xx_ll_usb.c ****             break;
2146:Drivers/STM32F4xx_HAL_Driver/Src/stm32f4xx_ll_usb.c ****           }
2147:Drivers/STM32F4xx_HAL_Driver/Src/stm32f4xx_ll_usb.c ****         } while ((USBx_HC(hcnum)->HCCHAR & USB_OTG_HCCHAR_CHENA) == USB_OTG_HCCHAR_CHENA);
2148:Drivers/STM32F4xx_HAL_Driver/Src/stm32f4xx_ll_usb.c ****       }
2149:Drivers/STM32F4xx_HAL_Driver/Src/stm32f4xx_ll_usb.c ****       else
2150:Drivers/STM32F4xx_HAL_Driver/Src/stm32f4xx_ll_usb.c ****       {
2151:Drivers/STM32F4xx_HAL_Driver/Src/stm32f4xx_ll_usb.c ****         USBx_HC(hcnum)->HCCHAR |= USB_OTG_HCCHAR_CHENA;
2152:Drivers/STM32F4xx_HAL_Driver/Src/stm32f4xx_ll_usb.c ****       }
2153:Drivers/STM32F4xx_HAL_Driver/Src/stm32f4xx_ll_usb.c ****     }
2154:Drivers/STM32F4xx_HAL_Driver/Src/stm32f4xx_ll_usb.c ****     else
2155:Drivers/STM32F4xx_HAL_Driver/Src/stm32f4xx_ll_usb.c ****     {
2156:Drivers/STM32F4xx_HAL_Driver/Src/stm32f4xx_ll_usb.c ****       USBx_HC(hcnum)->HCCHAR |= USB_OTG_HCCHAR_CHENA;
2157:Drivers/STM32F4xx_HAL_Driver/Src/stm32f4xx_ll_usb.c ****     }
2158:Drivers/STM32F4xx_HAL_Driver/Src/stm32f4xx_ll_usb.c ****   }
2159:Drivers/STM32F4xx_HAL_Driver/Src/stm32f4xx_ll_usb.c ****   else
2160:Drivers/STM32F4xx_HAL_Driver/Src/stm32f4xx_ll_usb.c ****   {
2161:Drivers/STM32F4xx_HAL_Driver/Src/stm32f4xx_ll_usb.c ****     USBx_HC(hcnum)->HCCHAR |= USB_OTG_HCCHAR_CHDIS;
 4953              		.loc 1 2161 5 is_stmt 1 view .LVU1705
 4954              		.loc 1 2161 19 is_stmt 0 view .LVU1706
 4955 003e D1F80035 		ldr	r3, [r1, #1280]
 4956              	.LVL357:
 4957              		.loc 1 2161 28 view .LVU1707
 4958 0042 43F08043 		orr	r3, r3, #1073741824
 4959 0046 C1F80035 		str	r3, [r1, #1280]
2162:Drivers/STM32F4xx_HAL_Driver/Src/stm32f4xx_ll_usb.c **** 
2163:Drivers/STM32F4xx_HAL_Driver/Src/stm32f4xx_ll_usb.c ****     if ((USBx_HOST->HPTXSTS & (0xFFU << 16)) == 0U)
 4960              		.loc 1 2163 5 is_stmt 1 view .LVU1708
 4961              		.loc 1 2163 19 is_stmt 0 view .LVU1709
 4962 004a D0F81034 		ldr	r3, [r0, #1040]
 4963              		.loc 1 2163 8 view .LVU1710
 4964 004e 13F47F0F 		tst	r3, #16711680
 4965 0052 4CD1     		bne	.L324
2164:Drivers/STM32F4xx_HAL_Driver/Src/stm32f4xx_ll_usb.c ****     {
2165:Drivers/STM32F4xx_HAL_Driver/Src/stm32f4xx_ll_usb.c ****       USBx_HC(hcnum)->HCCHAR &= ~USB_OTG_HCCHAR_CHENA;
 4966              		.loc 1 2165 7 is_stmt 1 view .LVU1711
 4967              		.loc 1 2165 21 is_stmt 0 view .LVU1712
 4968 0054 D1F80035 		ldr	r3, [r1, #1280]
ARM GAS  /tmp/cc0ThgoX.s 			page 148


 4969              		.loc 1 2165 30 view .LVU1713
 4970 0058 23F00043 		bic	r3, r3, #-2147483648
 4971 005c C1F80035 		str	r3, [r1, #1280]
2166:Drivers/STM32F4xx_HAL_Driver/Src/stm32f4xx_ll_usb.c ****       USBx_HC(hcnum)->HCCHAR |= USB_OTG_HCCHAR_CHENA;
 4972              		.loc 1 2166 7 is_stmt 1 view .LVU1714
 4973              		.loc 1 2166 21 is_stmt 0 view .LVU1715
 4974 0060 D1F80035 		ldr	r3, [r1, #1280]
 4975              		.loc 1 2166 30 view .LVU1716
 4976 0064 43F00043 		orr	r3, r3, #-2147483648
 4977 0068 C1F80035 		str	r3, [r1, #1280]
 4978              	.L325:
2167:Drivers/STM32F4xx_HAL_Driver/Src/stm32f4xx_ll_usb.c ****       do
 4979              		.loc 1 2167 7 is_stmt 1 view .LVU1717
2168:Drivers/STM32F4xx_HAL_Driver/Src/stm32f4xx_ll_usb.c ****       {
2169:Drivers/STM32F4xx_HAL_Driver/Src/stm32f4xx_ll_usb.c ****         count++;
 4980              		.loc 1 2169 9 view .LVU1718
 4981              		.loc 1 2169 14 is_stmt 0 view .LVU1719
 4982 006c 019B     		ldr	r3, [sp, #4]
 4983 006e 0133     		adds	r3, r3, #1
 4984 0070 0193     		str	r3, [sp, #4]
2170:Drivers/STM32F4xx_HAL_Driver/Src/stm32f4xx_ll_usb.c **** 
2171:Drivers/STM32F4xx_HAL_Driver/Src/stm32f4xx_ll_usb.c ****         if (count > 1000U)
 4985              		.loc 1 2171 9 is_stmt 1 view .LVU1720
 4986              		.loc 1 2171 19 is_stmt 0 view .LVU1721
 4987 0072 019B     		ldr	r3, [sp, #4]
 4988              		.loc 1 2171 12 view .LVU1722
 4989 0074 B3F57A7F 		cmp	r3, #1000
 4990 0078 35D8     		bhi	.L318
2172:Drivers/STM32F4xx_HAL_Driver/Src/stm32f4xx_ll_usb.c ****         {
2173:Drivers/STM32F4xx_HAL_Driver/Src/stm32f4xx_ll_usb.c ****           break;
2174:Drivers/STM32F4xx_HAL_Driver/Src/stm32f4xx_ll_usb.c ****         }
2175:Drivers/STM32F4xx_HAL_Driver/Src/stm32f4xx_ll_usb.c ****       } while ((USBx_HC(hcnum)->HCCHAR & USB_OTG_HCCHAR_CHENA) == USB_OTG_HCCHAR_CHENA);
 4991              		.loc 1 2175 64 is_stmt 1 view .LVU1723
 4992              		.loc 1 2175 31 is_stmt 0 view .LVU1724
 4993 007a 1368     		ldr	r3, [r2]
 4994              		.loc 1 2175 64 view .LVU1725
 4995 007c 002B     		cmp	r3, #0
 4996 007e F5DB     		blt	.L325
 4997 0080 31E0     		b	.L318
 4998              	.LVL358:
 4999              	.L319:
2131:Drivers/STM32F4xx_HAL_Driver/Src/stm32f4xx_ll_usb.c **** 
 5000              		.loc 1 2131 5 is_stmt 1 view .LVU1726
2131:Drivers/STM32F4xx_HAL_Driver/Src/stm32f4xx_ll_usb.c **** 
 5001              		.loc 1 2131 19 is_stmt 0 view .LVU1727
 5002 0082 D1F80035 		ldr	r3, [r1, #1280]
 5003              	.LVL359:
2131:Drivers/STM32F4xx_HAL_Driver/Src/stm32f4xx_ll_usb.c **** 
 5004              		.loc 1 2131 28 view .LVU1728
 5005 0086 43F08043 		orr	r3, r3, #1073741824
 5006 008a C1F80035 		str	r3, [r1, #1280]
2133:Drivers/STM32F4xx_HAL_Driver/Src/stm32f4xx_ll_usb.c ****     {
 5007              		.loc 1 2133 5 is_stmt 1 view .LVU1729
2133:Drivers/STM32F4xx_HAL_Driver/Src/stm32f4xx_ll_usb.c ****     {
 5008              		.loc 1 2133 14 is_stmt 0 view .LVU1730
 5009 008e 8368     		ldr	r3, [r0, #8]
2133:Drivers/STM32F4xx_HAL_Driver/Src/stm32f4xx_ll_usb.c ****     {
ARM GAS  /tmp/cc0ThgoX.s 			page 149


 5010              		.loc 1 2133 8 view .LVU1731
 5011 0090 13F0200F 		tst	r3, #32
 5012 0094 21D1     		bne	.L321
2135:Drivers/STM32F4xx_HAL_Driver/Src/stm32f4xx_ll_usb.c ****       {
 5013              		.loc 1 2135 7 is_stmt 1 view .LVU1732
2135:Drivers/STM32F4xx_HAL_Driver/Src/stm32f4xx_ll_usb.c ****       {
 5014              		.loc 1 2135 16 is_stmt 0 view .LVU1733
 5015 0096 C36A     		ldr	r3, [r0, #44]
2135:Drivers/STM32F4xx_HAL_Driver/Src/stm32f4xx_ll_usb.c ****       {
 5016              		.loc 1 2135 10 view .LVU1734
 5017 0098 13F47F0F 		tst	r3, #16711680
 5018 009c 16D1     		bne	.L322
2137:Drivers/STM32F4xx_HAL_Driver/Src/stm32f4xx_ll_usb.c ****         USBx_HC(hcnum)->HCCHAR |= USB_OTG_HCCHAR_CHENA;
 5019              		.loc 1 2137 9 is_stmt 1 view .LVU1735
2137:Drivers/STM32F4xx_HAL_Driver/Src/stm32f4xx_ll_usb.c ****         USBx_HC(hcnum)->HCCHAR |= USB_OTG_HCCHAR_CHENA;
 5020              		.loc 1 2137 23 is_stmt 0 view .LVU1736
 5021 009e D1F80035 		ldr	r3, [r1, #1280]
2137:Drivers/STM32F4xx_HAL_Driver/Src/stm32f4xx_ll_usb.c ****         USBx_HC(hcnum)->HCCHAR |= USB_OTG_HCCHAR_CHENA;
 5022              		.loc 1 2137 32 view .LVU1737
 5023 00a2 23F00043 		bic	r3, r3, #-2147483648
 5024 00a6 C1F80035 		str	r3, [r1, #1280]
2138:Drivers/STM32F4xx_HAL_Driver/Src/stm32f4xx_ll_usb.c ****         do
 5025              		.loc 1 2138 9 is_stmt 1 view .LVU1738
2138:Drivers/STM32F4xx_HAL_Driver/Src/stm32f4xx_ll_usb.c ****         do
 5026              		.loc 1 2138 23 is_stmt 0 view .LVU1739
 5027 00aa D1F80035 		ldr	r3, [r1, #1280]
2138:Drivers/STM32F4xx_HAL_Driver/Src/stm32f4xx_ll_usb.c ****         do
 5028              		.loc 1 2138 32 view .LVU1740
 5029 00ae 43F00043 		orr	r3, r3, #-2147483648
 5030 00b2 C1F80035 		str	r3, [r1, #1280]
 5031              	.L323:
2139:Drivers/STM32F4xx_HAL_Driver/Src/stm32f4xx_ll_usb.c ****         {
 5032              		.loc 1 2139 9 is_stmt 1 view .LVU1741
2141:Drivers/STM32F4xx_HAL_Driver/Src/stm32f4xx_ll_usb.c **** 
 5033              		.loc 1 2141 11 view .LVU1742
2141:Drivers/STM32F4xx_HAL_Driver/Src/stm32f4xx_ll_usb.c **** 
 5034              		.loc 1 2141 16 is_stmt 0 view .LVU1743
 5035 00b6 019B     		ldr	r3, [sp, #4]
 5036 00b8 0133     		adds	r3, r3, #1
 5037 00ba 0193     		str	r3, [sp, #4]
2143:Drivers/STM32F4xx_HAL_Driver/Src/stm32f4xx_ll_usb.c ****           {
 5038              		.loc 1 2143 11 is_stmt 1 view .LVU1744
2143:Drivers/STM32F4xx_HAL_Driver/Src/stm32f4xx_ll_usb.c ****           {
 5039              		.loc 1 2143 21 is_stmt 0 view .LVU1745
 5040 00bc 019B     		ldr	r3, [sp, #4]
2143:Drivers/STM32F4xx_HAL_Driver/Src/stm32f4xx_ll_usb.c ****           {
 5041              		.loc 1 2143 14 view .LVU1746
 5042 00be B3F57A7F 		cmp	r3, #1000
 5043 00c2 10D8     		bhi	.L318
2147:Drivers/STM32F4xx_HAL_Driver/Src/stm32f4xx_ll_usb.c ****       }
 5044              		.loc 1 2147 66 is_stmt 1 view .LVU1747
2147:Drivers/STM32F4xx_HAL_Driver/Src/stm32f4xx_ll_usb.c ****       }
 5045              		.loc 1 2147 33 is_stmt 0 view .LVU1748
 5046 00c4 1368     		ldr	r3, [r2]
2147:Drivers/STM32F4xx_HAL_Driver/Src/stm32f4xx_ll_usb.c ****       }
 5047              		.loc 1 2147 66 view .LVU1749
 5048 00c6 002B     		cmp	r3, #0
ARM GAS  /tmp/cc0ThgoX.s 			page 150


 5049 00c8 F5DB     		blt	.L323
 5050 00ca 0CE0     		b	.L318
 5051              	.L322:
2151:Drivers/STM32F4xx_HAL_Driver/Src/stm32f4xx_ll_usb.c ****       }
 5052              		.loc 1 2151 9 is_stmt 1 view .LVU1750
2151:Drivers/STM32F4xx_HAL_Driver/Src/stm32f4xx_ll_usb.c ****       }
 5053              		.loc 1 2151 23 is_stmt 0 view .LVU1751
 5054 00cc D1F80035 		ldr	r3, [r1, #1280]
2151:Drivers/STM32F4xx_HAL_Driver/Src/stm32f4xx_ll_usb.c ****       }
 5055              		.loc 1 2151 32 view .LVU1752
 5056 00d0 43F00043 		orr	r3, r3, #-2147483648
 5057 00d4 C1F80035 		str	r3, [r1, #1280]
 5058 00d8 05E0     		b	.L318
 5059              	.L321:
2156:Drivers/STM32F4xx_HAL_Driver/Src/stm32f4xx_ll_usb.c ****     }
 5060              		.loc 1 2156 7 is_stmt 1 view .LVU1753
2156:Drivers/STM32F4xx_HAL_Driver/Src/stm32f4xx_ll_usb.c ****     }
 5061              		.loc 1 2156 21 is_stmt 0 view .LVU1754
 5062 00da D1F80035 		ldr	r3, [r1, #1280]
2156:Drivers/STM32F4xx_HAL_Driver/Src/stm32f4xx_ll_usb.c ****     }
 5063              		.loc 1 2156 30 view .LVU1755
 5064 00de 43F00043 		orr	r3, r3, #-2147483648
 5065 00e2 C1F80035 		str	r3, [r1, #1280]
 5066              	.L318:
2176:Drivers/STM32F4xx_HAL_Driver/Src/stm32f4xx_ll_usb.c ****     }
2177:Drivers/STM32F4xx_HAL_Driver/Src/stm32f4xx_ll_usb.c ****     else
2178:Drivers/STM32F4xx_HAL_Driver/Src/stm32f4xx_ll_usb.c ****     {
2179:Drivers/STM32F4xx_HAL_Driver/Src/stm32f4xx_ll_usb.c ****       USBx_HC(hcnum)->HCCHAR |= USB_OTG_HCCHAR_CHENA;
2180:Drivers/STM32F4xx_HAL_Driver/Src/stm32f4xx_ll_usb.c ****     }
2181:Drivers/STM32F4xx_HAL_Driver/Src/stm32f4xx_ll_usb.c ****   }
2182:Drivers/STM32F4xx_HAL_Driver/Src/stm32f4xx_ll_usb.c **** 
2183:Drivers/STM32F4xx_HAL_Driver/Src/stm32f4xx_ll_usb.c ****   return HAL_OK;
2184:Drivers/STM32F4xx_HAL_Driver/Src/stm32f4xx_ll_usb.c **** }
 5067              		.loc 1 2184 1 view .LVU1756
 5068 00e6 0020     		movs	r0, #0
 5069              	.LVL360:
 5070              		.loc 1 2184 1 view .LVU1757
 5071 00e8 03B0     		add	sp, sp, #12
 5072              	.LCFI59:
 5073              		.cfi_remember_state
 5074              		.cfi_def_cfa_offset 12
 5075              		@ sp needed
 5076 00ea 70BC     		pop	{r4, r5, r6}
 5077              	.LCFI60:
 5078              		.cfi_restore 6
 5079              		.cfi_restore 5
 5080              		.cfi_restore 4
 5081              		.cfi_def_cfa_offset 0
 5082 00ec 7047     		bx	lr
 5083              	.LVL361:
 5084              	.L324:
 5085              	.LCFI61:
 5086              		.cfi_restore_state
2179:Drivers/STM32F4xx_HAL_Driver/Src/stm32f4xx_ll_usb.c ****     }
 5087              		.loc 1 2179 7 is_stmt 1 view .LVU1758
2179:Drivers/STM32F4xx_HAL_Driver/Src/stm32f4xx_ll_usb.c ****     }
 5088              		.loc 1 2179 21 is_stmt 0 view .LVU1759
ARM GAS  /tmp/cc0ThgoX.s 			page 151


 5089 00ee D1F80035 		ldr	r3, [r1, #1280]
2179:Drivers/STM32F4xx_HAL_Driver/Src/stm32f4xx_ll_usb.c ****     }
 5090              		.loc 1 2179 30 view .LVU1760
 5091 00f2 43F00043 		orr	r3, r3, #-2147483648
 5092 00f6 C1F80035 		str	r3, [r1, #1280]
 5093 00fa F4E7     		b	.L318
 5094              		.cfi_endproc
 5095              	.LFE178:
 5097              		.section	.text.USB_DoPing,"ax",%progbits
 5098              		.align	1
 5099              		.global	USB_DoPing
 5100              		.syntax unified
 5101              		.thumb
 5102              		.thumb_func
 5104              	USB_DoPing:
 5105              	.LVL362:
 5106              	.LFB179:
2185:Drivers/STM32F4xx_HAL_Driver/Src/stm32f4xx_ll_usb.c **** 
2186:Drivers/STM32F4xx_HAL_Driver/Src/stm32f4xx_ll_usb.c **** /**
2187:Drivers/STM32F4xx_HAL_Driver/Src/stm32f4xx_ll_usb.c ****   * @brief  Initiate Do Ping protocol
2188:Drivers/STM32F4xx_HAL_Driver/Src/stm32f4xx_ll_usb.c ****   * @param  USBx  Selected device
2189:Drivers/STM32F4xx_HAL_Driver/Src/stm32f4xx_ll_usb.c ****   * @param  hc_num  Host Channel number
2190:Drivers/STM32F4xx_HAL_Driver/Src/stm32f4xx_ll_usb.c ****   *         This parameter can be a value from 1 to 15
2191:Drivers/STM32F4xx_HAL_Driver/Src/stm32f4xx_ll_usb.c ****   * @retval HAL state
2192:Drivers/STM32F4xx_HAL_Driver/Src/stm32f4xx_ll_usb.c ****   */
2193:Drivers/STM32F4xx_HAL_Driver/Src/stm32f4xx_ll_usb.c **** HAL_StatusTypeDef USB_DoPing(const USB_OTG_GlobalTypeDef *USBx, uint8_t ch_num)
2194:Drivers/STM32F4xx_HAL_Driver/Src/stm32f4xx_ll_usb.c **** {
 5107              		.loc 1 2194 1 is_stmt 1 view -0
 5108              		.cfi_startproc
 5109              		@ args = 0, pretend = 0, frame = 0
 5110              		@ frame_needed = 0, uses_anonymous_args = 0
 5111              		@ link register save eliminated.
2195:Drivers/STM32F4xx_HAL_Driver/Src/stm32f4xx_ll_usb.c ****   uint32_t USBx_BASE = (uint32_t)USBx;
 5112              		.loc 1 2195 3 view .LVU1762
2196:Drivers/STM32F4xx_HAL_Driver/Src/stm32f4xx_ll_usb.c ****   uint32_t chnum = (uint32_t)ch_num;
 5113              		.loc 1 2196 3 view .LVU1763
2197:Drivers/STM32F4xx_HAL_Driver/Src/stm32f4xx_ll_usb.c ****   uint32_t num_packets = 1U;
 5114              		.loc 1 2197 3 view .LVU1764
2198:Drivers/STM32F4xx_HAL_Driver/Src/stm32f4xx_ll_usb.c ****   uint32_t tmpreg;
 5115              		.loc 1 2198 3 view .LVU1765
2199:Drivers/STM32F4xx_HAL_Driver/Src/stm32f4xx_ll_usb.c **** 
2200:Drivers/STM32F4xx_HAL_Driver/Src/stm32f4xx_ll_usb.c ****   USBx_HC(chnum)->HCTSIZ = ((num_packets << 19) & USB_OTG_HCTSIZ_PKTCNT) |
 5116              		.loc 1 2200 3 view .LVU1766
 5117 0000 00EB4110 		add	r0, r0, r1, lsl #5
 5118              	.LVL363:
 5119              		.loc 1 2200 26 is_stmt 0 view .LVU1767
 5120 0004 064A     		ldr	r2, .L328
 5121 0006 C0F81025 		str	r2, [r0, #1296]
2201:Drivers/STM32F4xx_HAL_Driver/Src/stm32f4xx_ll_usb.c ****                            USB_OTG_HCTSIZ_DOPING;
2202:Drivers/STM32F4xx_HAL_Driver/Src/stm32f4xx_ll_usb.c **** 
2203:Drivers/STM32F4xx_HAL_Driver/Src/stm32f4xx_ll_usb.c ****   /* Set host channel enable */
2204:Drivers/STM32F4xx_HAL_Driver/Src/stm32f4xx_ll_usb.c ****   tmpreg = USBx_HC(chnum)->HCCHAR;
 5122              		.loc 1 2204 3 is_stmt 1 view .LVU1768
 5123              		.loc 1 2204 10 is_stmt 0 view .LVU1769
 5124 000a D0F80035 		ldr	r3, [r0, #1280]
 5125              	.LVL364:
2205:Drivers/STM32F4xx_HAL_Driver/Src/stm32f4xx_ll_usb.c ****   tmpreg &= ~USB_OTG_HCCHAR_CHDIS;
ARM GAS  /tmp/cc0ThgoX.s 			page 152


 5126              		.loc 1 2205 3 is_stmt 1 view .LVU1770
 5127              		.loc 1 2205 10 is_stmt 0 view .LVU1771
 5128 000e 23F08043 		bic	r3, r3, #1073741824
 5129              	.LVL365:
2206:Drivers/STM32F4xx_HAL_Driver/Src/stm32f4xx_ll_usb.c ****   tmpreg |= USB_OTG_HCCHAR_CHENA;
 5130              		.loc 1 2206 3 is_stmt 1 view .LVU1772
 5131              		.loc 1 2206 10 is_stmt 0 view .LVU1773
 5132 0012 43F00043 		orr	r3, r3, #-2147483648
 5133              	.LVL366:
2207:Drivers/STM32F4xx_HAL_Driver/Src/stm32f4xx_ll_usb.c ****   USBx_HC(chnum)->HCCHAR = tmpreg;
 5134              		.loc 1 2207 3 is_stmt 1 view .LVU1774
 5135              		.loc 1 2207 26 is_stmt 0 view .LVU1775
 5136 0016 C0F80035 		str	r3, [r0, #1280]
2208:Drivers/STM32F4xx_HAL_Driver/Src/stm32f4xx_ll_usb.c **** 
2209:Drivers/STM32F4xx_HAL_Driver/Src/stm32f4xx_ll_usb.c ****   return HAL_OK;
 5137              		.loc 1 2209 3 is_stmt 1 view .LVU1776
2210:Drivers/STM32F4xx_HAL_Driver/Src/stm32f4xx_ll_usb.c **** }
 5138              		.loc 1 2210 1 is_stmt 0 view .LVU1777
 5139 001a 0020     		movs	r0, #0
 5140 001c 7047     		bx	lr
 5141              	.L329:
 5142 001e 00BF     		.align	2
 5143              	.L328:
 5144 0020 00000880 		.word	-2146959360
 5145              		.cfi_endproc
 5146              	.LFE179:
 5148              		.section	.text.USB_StopHost,"ax",%progbits
 5149              		.align	1
 5150              		.global	USB_StopHost
 5151              		.syntax unified
 5152              		.thumb
 5153              		.thumb_func
 5155              	USB_StopHost:
 5156              	.LVL367:
 5157              	.LFB180:
2211:Drivers/STM32F4xx_HAL_Driver/Src/stm32f4xx_ll_usb.c **** 
2212:Drivers/STM32F4xx_HAL_Driver/Src/stm32f4xx_ll_usb.c **** /**
2213:Drivers/STM32F4xx_HAL_Driver/Src/stm32f4xx_ll_usb.c ****   * @brief  Stop Host Core
2214:Drivers/STM32F4xx_HAL_Driver/Src/stm32f4xx_ll_usb.c ****   * @param  USBx  Selected device
2215:Drivers/STM32F4xx_HAL_Driver/Src/stm32f4xx_ll_usb.c ****   * @retval HAL state
2216:Drivers/STM32F4xx_HAL_Driver/Src/stm32f4xx_ll_usb.c ****   */
2217:Drivers/STM32F4xx_HAL_Driver/Src/stm32f4xx_ll_usb.c **** HAL_StatusTypeDef USB_StopHost(USB_OTG_GlobalTypeDef *USBx)
2218:Drivers/STM32F4xx_HAL_Driver/Src/stm32f4xx_ll_usb.c **** {
 5158              		.loc 1 2218 1 is_stmt 1 view -0
 5159              		.cfi_startproc
 5160              		@ args = 0, pretend = 0, frame = 8
 5161              		@ frame_needed = 0, uses_anonymous_args = 0
 5162              		.loc 1 2218 1 is_stmt 0 view .LVU1779
 5163 0000 30B5     		push	{r4, r5, lr}
 5164              	.LCFI62:
 5165              		.cfi_def_cfa_offset 12
 5166              		.cfi_offset 4, -12
 5167              		.cfi_offset 5, -8
 5168              		.cfi_offset 14, -4
 5169 0002 83B0     		sub	sp, sp, #12
 5170              	.LCFI63:
 5171              		.cfi_def_cfa_offset 24
ARM GAS  /tmp/cc0ThgoX.s 			page 153


 5172 0004 0446     		mov	r4, r0
2219:Drivers/STM32F4xx_HAL_Driver/Src/stm32f4xx_ll_usb.c ****   HAL_StatusTypeDef ret = HAL_OK;
 5173              		.loc 1 2219 3 is_stmt 1 view .LVU1780
 5174              	.LVL368:
2220:Drivers/STM32F4xx_HAL_Driver/Src/stm32f4xx_ll_usb.c ****   uint32_t USBx_BASE = (uint32_t)USBx;
 5175              		.loc 1 2220 3 view .LVU1781
2221:Drivers/STM32F4xx_HAL_Driver/Src/stm32f4xx_ll_usb.c ****   __IO uint32_t count = 0U;
 5176              		.loc 1 2221 3 view .LVU1782
 5177              		.loc 1 2221 17 is_stmt 0 view .LVU1783
 5178 0006 0023     		movs	r3, #0
 5179 0008 0193     		str	r3, [sp, #4]
2222:Drivers/STM32F4xx_HAL_Driver/Src/stm32f4xx_ll_usb.c ****   uint32_t value;
 5180              		.loc 1 2222 3 is_stmt 1 view .LVU1784
2223:Drivers/STM32F4xx_HAL_Driver/Src/stm32f4xx_ll_usb.c ****   uint32_t i;
 5181              		.loc 1 2223 3 view .LVU1785
2224:Drivers/STM32F4xx_HAL_Driver/Src/stm32f4xx_ll_usb.c **** 
2225:Drivers/STM32F4xx_HAL_Driver/Src/stm32f4xx_ll_usb.c ****   (void)USB_DisableGlobalInt(USBx);
 5182              		.loc 1 2225 3 view .LVU1786
 5183              		.loc 1 2225 9 is_stmt 0 view .LVU1787
 5184 000a FFF7FEFF 		bl	USB_DisableGlobalInt
 5185              	.LVL369:
2226:Drivers/STM32F4xx_HAL_Driver/Src/stm32f4xx_ll_usb.c **** 
2227:Drivers/STM32F4xx_HAL_Driver/Src/stm32f4xx_ll_usb.c ****   /* Flush USB FIFO */
2228:Drivers/STM32F4xx_HAL_Driver/Src/stm32f4xx_ll_usb.c ****   if (USB_FlushTxFifo(USBx, 0x10U) != HAL_OK) /* all Tx FIFOs */
 5186              		.loc 1 2228 3 is_stmt 1 view .LVU1788
 5187              		.loc 1 2228 7 is_stmt 0 view .LVU1789
 5188 000e 1021     		movs	r1, #16
 5189 0010 2046     		mov	r0, r4
 5190 0012 FFF7FEFF 		bl	USB_FlushTxFifo
 5191              	.LVL370:
 5192              		.loc 1 2228 6 discriminator 1 view .LVU1790
 5193 0016 0546     		mov	r5, r0
 5194 0018 00B1     		cbz	r0, .L331
2229:Drivers/STM32F4xx_HAL_Driver/Src/stm32f4xx_ll_usb.c ****   {
2230:Drivers/STM32F4xx_HAL_Driver/Src/stm32f4xx_ll_usb.c ****     ret = HAL_ERROR;
 5195              		.loc 1 2230 9 view .LVU1791
 5196 001a 0125     		movs	r5, #1
 5197              	.L331:
 5198              	.LVL371:
2231:Drivers/STM32F4xx_HAL_Driver/Src/stm32f4xx_ll_usb.c ****   }
2232:Drivers/STM32F4xx_HAL_Driver/Src/stm32f4xx_ll_usb.c **** 
2233:Drivers/STM32F4xx_HAL_Driver/Src/stm32f4xx_ll_usb.c ****   if (USB_FlushRxFifo(USBx) != HAL_OK)
 5199              		.loc 1 2233 3 is_stmt 1 view .LVU1792
 5200              		.loc 1 2233 7 is_stmt 0 view .LVU1793
 5201 001c 2046     		mov	r0, r4
 5202 001e FFF7FEFF 		bl	USB_FlushRxFifo
 5203              	.LVL372:
 5204              		.loc 1 2233 6 discriminator 1 view .LVU1794
 5205 0022 00B1     		cbz	r0, .L332
2234:Drivers/STM32F4xx_HAL_Driver/Src/stm32f4xx_ll_usb.c ****   {
2235:Drivers/STM32F4xx_HAL_Driver/Src/stm32f4xx_ll_usb.c ****     ret = HAL_ERROR;
 5206              		.loc 1 2235 9 view .LVU1795
 5207 0024 0125     		movs	r5, #1
 5208              	.LVL373:
 5209              	.L332:
2236:Drivers/STM32F4xx_HAL_Driver/Src/stm32f4xx_ll_usb.c ****   }
2237:Drivers/STM32F4xx_HAL_Driver/Src/stm32f4xx_ll_usb.c **** 
ARM GAS  /tmp/cc0ThgoX.s 			page 154


2238:Drivers/STM32F4xx_HAL_Driver/Src/stm32f4xx_ll_usb.c ****   /* Flush out any leftover queued requests. */
2239:Drivers/STM32F4xx_HAL_Driver/Src/stm32f4xx_ll_usb.c ****   for (i = 0U; i <= 15U; i++)
 5210              		.loc 1 2239 3 is_stmt 1 view .LVU1796
 5211              		.loc 1 2239 10 is_stmt 0 view .LVU1797
 5212 0026 0022     		movs	r2, #0
 5213              		.loc 1 2239 3 view .LVU1798
 5214 0028 0AE0     		b	.L333
 5215              	.LVL374:
 5216              	.L334:
2240:Drivers/STM32F4xx_HAL_Driver/Src/stm32f4xx_ll_usb.c ****   {
2241:Drivers/STM32F4xx_HAL_Driver/Src/stm32f4xx_ll_usb.c ****     value = USBx_HC(i)->HCCHAR;
 5217              		.loc 1 2241 5 is_stmt 1 view .LVU1799
 5218              		.loc 1 2241 13 is_stmt 0 view .LVU1800
 5219 002a 04EB4211 		add	r1, r4, r2, lsl #5
 5220              		.loc 1 2241 11 view .LVU1801
 5221 002e D1F80035 		ldr	r3, [r1, #1280]
 5222              	.LVL375:
2242:Drivers/STM32F4xx_HAL_Driver/Src/stm32f4xx_ll_usb.c ****     value |=  USB_OTG_HCCHAR_CHDIS;
 5223              		.loc 1 2242 5 is_stmt 1 view .LVU1802
2243:Drivers/STM32F4xx_HAL_Driver/Src/stm32f4xx_ll_usb.c ****     value &= ~USB_OTG_HCCHAR_CHENA;
 5224              		.loc 1 2243 5 view .LVU1803
2244:Drivers/STM32F4xx_HAL_Driver/Src/stm32f4xx_ll_usb.c ****     value &= ~USB_OTG_HCCHAR_EPDIR;
 5225              		.loc 1 2244 5 view .LVU1804
 5226 0032 23F08023 		bic	r3, r3, #-2147450880
 5227              	.LVL376:
 5228              		.loc 1 2244 11 is_stmt 0 view .LVU1805
 5229 0036 43F08043 		orr	r3, r3, #1073741824
 5230              	.LVL377:
2245:Drivers/STM32F4xx_HAL_Driver/Src/stm32f4xx_ll_usb.c ****     USBx_HC(i)->HCCHAR = value;
 5231              		.loc 1 2245 5 is_stmt 1 view .LVU1806
 5232              		.loc 1 2245 24 is_stmt 0 view .LVU1807
 5233 003a C1F80035 		str	r3, [r1, #1280]
2239:Drivers/STM32F4xx_HAL_Driver/Src/stm32f4xx_ll_usb.c ****   {
 5234              		.loc 1 2239 27 is_stmt 1 discriminator 3 view .LVU1808
 5235 003e 0132     		adds	r2, r2, #1
 5236              	.LVL378:
 5237              	.L333:
2239:Drivers/STM32F4xx_HAL_Driver/Src/stm32f4xx_ll_usb.c ****   {
 5238              		.loc 1 2239 18 discriminator 1 view .LVU1809
 5239 0040 0F2A     		cmp	r2, #15
 5240 0042 F2D9     		bls	.L334
2246:Drivers/STM32F4xx_HAL_Driver/Src/stm32f4xx_ll_usb.c ****   }
2247:Drivers/STM32F4xx_HAL_Driver/Src/stm32f4xx_ll_usb.c **** 
2248:Drivers/STM32F4xx_HAL_Driver/Src/stm32f4xx_ll_usb.c ****   /* Halt all channels to put them into a known state. */
2249:Drivers/STM32F4xx_HAL_Driver/Src/stm32f4xx_ll_usb.c ****   for (i = 0U; i <= 15U; i++)
 5241              		.loc 1 2249 10 is_stmt 0 view .LVU1810
 5242 0044 0021     		movs	r1, #0
 5243 0046 00E0     		b	.L335
 5244              	.LVL379:
 5245              	.L336:
 5246              		.loc 1 2249 27 is_stmt 1 discriminator 2 view .LVU1811
 5247 0048 0131     		adds	r1, r1, #1
 5248              	.LVL380:
 5249              	.L335:
 5250              		.loc 1 2249 18 discriminator 1 view .LVU1812
 5251 004a 0F29     		cmp	r1, #15
 5252 004c 16D8     		bhi	.L342
ARM GAS  /tmp/cc0ThgoX.s 			page 155


2250:Drivers/STM32F4xx_HAL_Driver/Src/stm32f4xx_ll_usb.c ****   {
2251:Drivers/STM32F4xx_HAL_Driver/Src/stm32f4xx_ll_usb.c ****     value = USBx_HC(i)->HCCHAR;
 5253              		.loc 1 2251 5 view .LVU1813
 5254              		.loc 1 2251 13 is_stmt 0 view .LVU1814
 5255 004e 04EB4110 		add	r0, r4, r1, lsl #5
 5256 0052 00F5A062 		add	r2, r0, #1280
 5257              		.loc 1 2251 11 view .LVU1815
 5258 0056 D0F80035 		ldr	r3, [r0, #1280]
 5259              	.LVL381:
2252:Drivers/STM32F4xx_HAL_Driver/Src/stm32f4xx_ll_usb.c ****     value |= USB_OTG_HCCHAR_CHDIS;
 5260              		.loc 1 2252 5 is_stmt 1 view .LVU1816
2253:Drivers/STM32F4xx_HAL_Driver/Src/stm32f4xx_ll_usb.c ****     value |= USB_OTG_HCCHAR_CHENA;
 5261              		.loc 1 2253 5 view .LVU1817
2254:Drivers/STM32F4xx_HAL_Driver/Src/stm32f4xx_ll_usb.c ****     value &= ~USB_OTG_HCCHAR_EPDIR;
 5262              		.loc 1 2254 5 view .LVU1818
 5263 005a 23F40043 		bic	r3, r3, #32768
 5264              	.LVL382:
 5265              		.loc 1 2254 11 is_stmt 0 view .LVU1819
 5266 005e 43F04043 		orr	r3, r3, #-1073741824
 5267              	.LVL383:
2255:Drivers/STM32F4xx_HAL_Driver/Src/stm32f4xx_ll_usb.c ****     USBx_HC(i)->HCCHAR = value;
 5268              		.loc 1 2255 5 is_stmt 1 view .LVU1820
 5269              		.loc 1 2255 24 is_stmt 0 view .LVU1821
 5270 0062 C0F80035 		str	r3, [r0, #1280]
 5271              	.LVL384:
 5272              	.L337:
2256:Drivers/STM32F4xx_HAL_Driver/Src/stm32f4xx_ll_usb.c **** 
2257:Drivers/STM32F4xx_HAL_Driver/Src/stm32f4xx_ll_usb.c ****     do
 5273              		.loc 1 2257 5 is_stmt 1 view .LVU1822
2258:Drivers/STM32F4xx_HAL_Driver/Src/stm32f4xx_ll_usb.c ****     {
2259:Drivers/STM32F4xx_HAL_Driver/Src/stm32f4xx_ll_usb.c ****       count++;
 5274              		.loc 1 2259 7 view .LVU1823
 5275              		.loc 1 2259 12 is_stmt 0 view .LVU1824
 5276 0066 019B     		ldr	r3, [sp, #4]
 5277 0068 0133     		adds	r3, r3, #1
 5278 006a 0193     		str	r3, [sp, #4]
2260:Drivers/STM32F4xx_HAL_Driver/Src/stm32f4xx_ll_usb.c **** 
2261:Drivers/STM32F4xx_HAL_Driver/Src/stm32f4xx_ll_usb.c ****       if (count > 1000U)
 5279              		.loc 1 2261 7 is_stmt 1 view .LVU1825
 5280              		.loc 1 2261 17 is_stmt 0 view .LVU1826
 5281 006c 019B     		ldr	r3, [sp, #4]
 5282              		.loc 1 2261 10 view .LVU1827
 5283 006e B3F57A7F 		cmp	r3, #1000
 5284 0072 E9D8     		bhi	.L336
2262:Drivers/STM32F4xx_HAL_Driver/Src/stm32f4xx_ll_usb.c ****       {
2263:Drivers/STM32F4xx_HAL_Driver/Src/stm32f4xx_ll_usb.c ****         break;
2264:Drivers/STM32F4xx_HAL_Driver/Src/stm32f4xx_ll_usb.c ****       }
2265:Drivers/STM32F4xx_HAL_Driver/Src/stm32f4xx_ll_usb.c ****     } while ((USBx_HC(i)->HCCHAR & USB_OTG_HCCHAR_CHENA) == USB_OTG_HCCHAR_CHENA);
 5285              		.loc 1 2265 58 is_stmt 1 view .LVU1828
 5286              		.loc 1 2265 25 is_stmt 0 view .LVU1829
 5287 0074 1368     		ldr	r3, [r2]
 5288              		.loc 1 2265 58 view .LVU1830
 5289 0076 002B     		cmp	r3, #0
 5290 0078 F5DB     		blt	.L337
 5291 007a E5E7     		b	.L336
 5292              	.LVL385:
 5293              	.L342:
ARM GAS  /tmp/cc0ThgoX.s 			page 156


2266:Drivers/STM32F4xx_HAL_Driver/Src/stm32f4xx_ll_usb.c ****   }
2267:Drivers/STM32F4xx_HAL_Driver/Src/stm32f4xx_ll_usb.c **** 
2268:Drivers/STM32F4xx_HAL_Driver/Src/stm32f4xx_ll_usb.c ****   /* Clear any pending Host interrupts */
2269:Drivers/STM32F4xx_HAL_Driver/Src/stm32f4xx_ll_usb.c ****   USBx_HOST->HAINT = CLEAR_INTERRUPT_MASK;
 5294              		.loc 1 2269 3 is_stmt 1 view .LVU1831
 5295              		.loc 1 2269 20 is_stmt 0 view .LVU1832
 5296 007c 4FF0FF33 		mov	r3, #-1
 5297 0080 C4F81434 		str	r3, [r4, #1044]
2270:Drivers/STM32F4xx_HAL_Driver/Src/stm32f4xx_ll_usb.c ****   USBx->GINTSTS = CLEAR_INTERRUPT_MASK;
 5298              		.loc 1 2270 3 is_stmt 1 view .LVU1833
 5299              		.loc 1 2270 17 is_stmt 0 view .LVU1834
 5300 0084 6361     		str	r3, [r4, #20]
2271:Drivers/STM32F4xx_HAL_Driver/Src/stm32f4xx_ll_usb.c **** 
2272:Drivers/STM32F4xx_HAL_Driver/Src/stm32f4xx_ll_usb.c ****   (void)USB_EnableGlobalInt(USBx);
 5301              		.loc 1 2272 3 is_stmt 1 view .LVU1835
 5302              		.loc 1 2272 9 is_stmt 0 view .LVU1836
 5303 0086 2046     		mov	r0, r4
 5304 0088 FFF7FEFF 		bl	USB_EnableGlobalInt
 5305              	.LVL386:
2273:Drivers/STM32F4xx_HAL_Driver/Src/stm32f4xx_ll_usb.c **** 
2274:Drivers/STM32F4xx_HAL_Driver/Src/stm32f4xx_ll_usb.c ****   return ret;
 5306              		.loc 1 2274 3 is_stmt 1 view .LVU1837
2275:Drivers/STM32F4xx_HAL_Driver/Src/stm32f4xx_ll_usb.c **** }
 5307              		.loc 1 2275 1 is_stmt 0 view .LVU1838
 5308 008c 2846     		mov	r0, r5
 5309 008e 03B0     		add	sp, sp, #12
 5310              	.LCFI64:
 5311              		.cfi_def_cfa_offset 12
 5312              		@ sp needed
 5313 0090 30BD     		pop	{r4, r5, pc}
 5314              		.loc 1 2275 1 view .LVU1839
 5315              		.cfi_endproc
 5316              	.LFE180:
 5318              		.section	.text.USB_ActivateRemoteWakeup,"ax",%progbits
 5319              		.align	1
 5320              		.global	USB_ActivateRemoteWakeup
 5321              		.syntax unified
 5322              		.thumb
 5323              		.thumb_func
 5325              	USB_ActivateRemoteWakeup:
 5326              	.LVL387:
 5327              	.LFB181:
2276:Drivers/STM32F4xx_HAL_Driver/Src/stm32f4xx_ll_usb.c **** 
2277:Drivers/STM32F4xx_HAL_Driver/Src/stm32f4xx_ll_usb.c **** /**
2278:Drivers/STM32F4xx_HAL_Driver/Src/stm32f4xx_ll_usb.c ****   * @brief  USB_ActivateRemoteWakeup active remote wakeup signalling
2279:Drivers/STM32F4xx_HAL_Driver/Src/stm32f4xx_ll_usb.c ****   * @param  USBx Selected device
2280:Drivers/STM32F4xx_HAL_Driver/Src/stm32f4xx_ll_usb.c ****   * @retval HAL status
2281:Drivers/STM32F4xx_HAL_Driver/Src/stm32f4xx_ll_usb.c ****   */
2282:Drivers/STM32F4xx_HAL_Driver/Src/stm32f4xx_ll_usb.c **** HAL_StatusTypeDef USB_ActivateRemoteWakeup(const USB_OTG_GlobalTypeDef *USBx)
2283:Drivers/STM32F4xx_HAL_Driver/Src/stm32f4xx_ll_usb.c **** {
 5328              		.loc 1 2283 1 is_stmt 1 view -0
 5329              		.cfi_startproc
 5330              		@ args = 0, pretend = 0, frame = 0
 5331              		@ frame_needed = 0, uses_anonymous_args = 0
 5332              		@ link register save eliminated.
2284:Drivers/STM32F4xx_HAL_Driver/Src/stm32f4xx_ll_usb.c ****   uint32_t USBx_BASE = (uint32_t)USBx;
 5333              		.loc 1 2284 3 view .LVU1841
ARM GAS  /tmp/cc0ThgoX.s 			page 157


2285:Drivers/STM32F4xx_HAL_Driver/Src/stm32f4xx_ll_usb.c **** 
2286:Drivers/STM32F4xx_HAL_Driver/Src/stm32f4xx_ll_usb.c ****   if ((USBx_DEVICE->DSTS & USB_OTG_DSTS_SUSPSTS) == USB_OTG_DSTS_SUSPSTS)
 5334              		.loc 1 2286 3 view .LVU1842
 5335              		.loc 1 2286 19 is_stmt 0 view .LVU1843
 5336 0000 D0F80838 		ldr	r3, [r0, #2056]
 5337              		.loc 1 2286 8 view .LVU1844
 5338 0004 00F50060 		add	r0, r0, #2048
 5339              	.LVL388:
 5340              		.loc 1 2286 6 view .LVU1845
 5341 0008 13F0010F 		tst	r3, #1
 5342 000c 03D0     		beq	.L344
2287:Drivers/STM32F4xx_HAL_Driver/Src/stm32f4xx_ll_usb.c ****   {
2288:Drivers/STM32F4xx_HAL_Driver/Src/stm32f4xx_ll_usb.c ****     /* active Remote wakeup signalling */
2289:Drivers/STM32F4xx_HAL_Driver/Src/stm32f4xx_ll_usb.c ****     USBx_DEVICE->DCTL |= USB_OTG_DCTL_RWUSIG;
 5343              		.loc 1 2289 5 is_stmt 1 view .LVU1846
 5344              		.loc 1 2289 16 is_stmt 0 view .LVU1847
 5345 000e 4368     		ldr	r3, [r0, #4]
 5346              		.loc 1 2289 23 view .LVU1848
 5347 0010 43F00103 		orr	r3, r3, #1
 5348 0014 4360     		str	r3, [r0, #4]
 5349              	.L344:
2290:Drivers/STM32F4xx_HAL_Driver/Src/stm32f4xx_ll_usb.c ****   }
2291:Drivers/STM32F4xx_HAL_Driver/Src/stm32f4xx_ll_usb.c **** 
2292:Drivers/STM32F4xx_HAL_Driver/Src/stm32f4xx_ll_usb.c ****   return HAL_OK;
 5350              		.loc 1 2292 3 is_stmt 1 view .LVU1849
2293:Drivers/STM32F4xx_HAL_Driver/Src/stm32f4xx_ll_usb.c **** }
 5351              		.loc 1 2293 1 is_stmt 0 view .LVU1850
 5352 0016 0020     		movs	r0, #0
 5353              	.LVL389:
 5354              		.loc 1 2293 1 view .LVU1851
 5355 0018 7047     		bx	lr
 5356              		.cfi_endproc
 5357              	.LFE181:
 5359              		.section	.text.USB_DeActivateRemoteWakeup,"ax",%progbits
 5360              		.align	1
 5361              		.global	USB_DeActivateRemoteWakeup
 5362              		.syntax unified
 5363              		.thumb
 5364              		.thumb_func
 5366              	USB_DeActivateRemoteWakeup:
 5367              	.LVL390:
 5368              	.LFB182:
2294:Drivers/STM32F4xx_HAL_Driver/Src/stm32f4xx_ll_usb.c **** 
2295:Drivers/STM32F4xx_HAL_Driver/Src/stm32f4xx_ll_usb.c **** /**
2296:Drivers/STM32F4xx_HAL_Driver/Src/stm32f4xx_ll_usb.c ****   * @brief  USB_DeActivateRemoteWakeup de-active remote wakeup signalling
2297:Drivers/STM32F4xx_HAL_Driver/Src/stm32f4xx_ll_usb.c ****   * @param  USBx Selected device
2298:Drivers/STM32F4xx_HAL_Driver/Src/stm32f4xx_ll_usb.c ****   * @retval HAL status
2299:Drivers/STM32F4xx_HAL_Driver/Src/stm32f4xx_ll_usb.c ****   */
2300:Drivers/STM32F4xx_HAL_Driver/Src/stm32f4xx_ll_usb.c **** HAL_StatusTypeDef USB_DeActivateRemoteWakeup(const USB_OTG_GlobalTypeDef *USBx)
2301:Drivers/STM32F4xx_HAL_Driver/Src/stm32f4xx_ll_usb.c **** {
 5369              		.loc 1 2301 1 is_stmt 1 view -0
 5370              		.cfi_startproc
 5371              		@ args = 0, pretend = 0, frame = 0
 5372              		@ frame_needed = 0, uses_anonymous_args = 0
 5373              		@ link register save eliminated.
2302:Drivers/STM32F4xx_HAL_Driver/Src/stm32f4xx_ll_usb.c ****   uint32_t USBx_BASE = (uint32_t)USBx;
 5374              		.loc 1 2302 3 view .LVU1853
ARM GAS  /tmp/cc0ThgoX.s 			page 158


2303:Drivers/STM32F4xx_HAL_Driver/Src/stm32f4xx_ll_usb.c **** 
2304:Drivers/STM32F4xx_HAL_Driver/Src/stm32f4xx_ll_usb.c ****   /* active Remote wakeup signalling */
2305:Drivers/STM32F4xx_HAL_Driver/Src/stm32f4xx_ll_usb.c ****   USBx_DEVICE->DCTL &= ~(USB_OTG_DCTL_RWUSIG);
 5375              		.loc 1 2305 3 view .LVU1854
 5376              		.loc 1 2305 14 is_stmt 0 view .LVU1855
 5377 0000 D0F80438 		ldr	r3, [r0, #2052]
 5378              		.loc 1 2305 21 view .LVU1856
 5379 0004 23F00103 		bic	r3, r3, #1
 5380 0008 C0F80438 		str	r3, [r0, #2052]
2306:Drivers/STM32F4xx_HAL_Driver/Src/stm32f4xx_ll_usb.c **** 
2307:Drivers/STM32F4xx_HAL_Driver/Src/stm32f4xx_ll_usb.c ****   return HAL_OK;
 5381              		.loc 1 2307 3 is_stmt 1 view .LVU1857
2308:Drivers/STM32F4xx_HAL_Driver/Src/stm32f4xx_ll_usb.c **** }
 5382              		.loc 1 2308 1 is_stmt 0 view .LVU1858
 5383 000c 0020     		movs	r0, #0
 5384              	.LVL391:
 5385              		.loc 1 2308 1 view .LVU1859
 5386 000e 7047     		bx	lr
 5387              		.cfi_endproc
 5388              	.LFE182:
 5390              		.text
 5391              	.Letext0:
 5392              		.file 2 "/usr/lib/gcc/arm-none-eabi/13.2.1/include/stdint.h"
 5393              		.file 3 "Drivers/CMSIS/Include/cmsis_gcc.h"
 5394              		.file 4 "Drivers/CMSIS/Device/ST/STM32F4xx/Include/stm32f413xx.h"
 5395              		.file 5 "Drivers/STM32F4xx_HAL_Driver/Inc/stm32f4xx_hal_def.h"
 5396              		.file 6 "Drivers/STM32F4xx_HAL_Driver/Inc/stm32f4xx_ll_usb.h"
 5397              		.file 7 "Drivers/STM32F4xx_HAL_Driver/Inc/stm32f4xx_hal.h"
ARM GAS  /tmp/cc0ThgoX.s 			page 159


DEFINED SYMBOLS
                            *ABS*:00000000 stm32f4xx_ll_usb.c
     /tmp/cc0ThgoX.s:21     .text.USB_CoreReset:00000000 $t
     /tmp/cc0ThgoX.s:26     .text.USB_CoreReset:00000000 USB_CoreReset
     /tmp/cc0ThgoX.s:135    .text.USB_CoreInit:00000000 $t
     /tmp/cc0ThgoX.s:141    .text.USB_CoreInit:00000000 USB_CoreInit
     /tmp/cc0ThgoX.s:283    .text.USB_SetTurnaroundTime:00000000 $t
     /tmp/cc0ThgoX.s:289    .text.USB_SetTurnaroundTime:00000000 USB_SetTurnaroundTime
     /tmp/cc0ThgoX.s:442    .text.USB_SetTurnaroundTime:000000a8 $d
     /tmp/cc0ThgoX.s:461    .text.USB_EnableGlobalInt:00000000 $t
     /tmp/cc0ThgoX.s:467    .text.USB_EnableGlobalInt:00000000 USB_EnableGlobalInt
     /tmp/cc0ThgoX.s:491    .text.USB_DisableGlobalInt:00000000 $t
     /tmp/cc0ThgoX.s:497    .text.USB_DisableGlobalInt:00000000 USB_DisableGlobalInt
     /tmp/cc0ThgoX.s:521    .text.USB_FlushTxFifo:00000000 $t
     /tmp/cc0ThgoX.s:527    .text.USB_FlushTxFifo:00000000 USB_FlushTxFifo
     /tmp/cc0ThgoX.s:624    .text.USB_FlushRxFifo:00000000 $t
     /tmp/cc0ThgoX.s:630    .text.USB_FlushRxFifo:00000000 USB_FlushRxFifo
     /tmp/cc0ThgoX.s:723    .text.USB_SetDevSpeed:00000000 $t
     /tmp/cc0ThgoX.s:729    .text.USB_SetDevSpeed:00000000 USB_SetDevSpeed
     /tmp/cc0ThgoX.s:756    .text.USB_DevInit:00000000 $t
     /tmp/cc0ThgoX.s:762    .text.USB_DevInit:00000000 USB_DevInit
     /tmp/cc0ThgoX.s:1114   .text.USB_DevInit:00000188 $d
     /tmp/cc0ThgoX.s:1119   .text.USB_GetDevSpeed:00000000 $t
     /tmp/cc0ThgoX.s:1125   .text.USB_GetDevSpeed:00000000 USB_GetDevSpeed
     /tmp/cc0ThgoX.s:1178   .text.USB_ActivateEndpoint:00000000 $t
     /tmp/cc0ThgoX.s:1184   .text.USB_ActivateEndpoint:00000000 USB_ActivateEndpoint
     /tmp/cc0ThgoX.s:1300   .text.USB_ActivateDedicatedEndpoint:00000000 $t
     /tmp/cc0ThgoX.s:1306   .text.USB_ActivateDedicatedEndpoint:00000000 USB_ActivateDedicatedEndpoint
     /tmp/cc0ThgoX.s:1431   .text.USB_DeactivateEndpoint:00000000 $t
     /tmp/cc0ThgoX.s:1437   .text.USB_DeactivateEndpoint:00000000 USB_DeactivateEndpoint
     /tmp/cc0ThgoX.s:1608   .text.USB_DeactivateEndpoint:000000d8 $d
     /tmp/cc0ThgoX.s:1614   .text.USB_DeactivateDedicatedEndpoint:00000000 $t
     /tmp/cc0ThgoX.s:1620   .text.USB_DeactivateDedicatedEndpoint:00000000 USB_DeactivateDedicatedEndpoint
     /tmp/cc0ThgoX.s:1749   .text.USB_EPStopXfer:00000000 $t
     /tmp/cc0ThgoX.s:1755   .text.USB_EPStopXfer:00000000 USB_EPStopXfer
     /tmp/cc0ThgoX.s:1917   .text.USB_WritePacket:00000000 $t
     /tmp/cc0ThgoX.s:1923   .text.USB_WritePacket:00000000 USB_WritePacket
     /tmp/cc0ThgoX.s:1992   .text.USB_EPStartXfer:00000000 $t
     /tmp/cc0ThgoX.s:1998   .text.USB_EPStartXfer:00000000 USB_EPStartXfer
     /tmp/cc0ThgoX.s:2472   .text.USB_EPStartXfer:00000240 $d
     /tmp/cc0ThgoX.s:2477   .text.USB_ReadPacket:00000000 $t
     /tmp/cc0ThgoX.s:2483   .text.USB_ReadPacket:00000000 USB_ReadPacket
     /tmp/cc0ThgoX.s:2582   .text.USB_EPSetStall:00000000 $t
     /tmp/cc0ThgoX.s:2588   .text.USB_EPSetStall:00000000 USB_EPSetStall
     /tmp/cc0ThgoX.s:2671   .text.USB_EPClearStall:00000000 $t
     /tmp/cc0ThgoX.s:2677   .text.USB_EPClearStall:00000000 USB_EPClearStall
     /tmp/cc0ThgoX.s:2762   .text.USB_StopDevice:00000000 $t
     /tmp/cc0ThgoX.s:2768   .text.USB_StopDevice:00000000 USB_StopDevice
     /tmp/cc0ThgoX.s:2850   .text.USB_SetDevAddress:00000000 $t
     /tmp/cc0ThgoX.s:2856   .text.USB_SetDevAddress:00000000 USB_SetDevAddress
     /tmp/cc0ThgoX.s:2892   .text.USB_DevConnect:00000000 $t
     /tmp/cc0ThgoX.s:2898   .text.USB_DevConnect:00000000 USB_DevConnect
     /tmp/cc0ThgoX.s:2928   .text.USB_DevDisconnect:00000000 $t
     /tmp/cc0ThgoX.s:2934   .text.USB_DevDisconnect:00000000 USB_DevDisconnect
     /tmp/cc0ThgoX.s:2964   .text.USB_ReadInterrupts:00000000 $t
     /tmp/cc0ThgoX.s:2970   .text.USB_ReadInterrupts:00000000 USB_ReadInterrupts
     /tmp/cc0ThgoX.s:2997   .text.USB_ReadChInterrupts:00000000 $t
ARM GAS  /tmp/cc0ThgoX.s 			page 160


     /tmp/cc0ThgoX.s:3003   .text.USB_ReadChInterrupts:00000000 USB_ReadChInterrupts
     /tmp/cc0ThgoX.s:3036   .text.USB_ReadDevAllOutEpInterrupt:00000000 $t
     /tmp/cc0ThgoX.s:3042   .text.USB_ReadDevAllOutEpInterrupt:00000000 USB_ReadDevAllOutEpInterrupt
     /tmp/cc0ThgoX.s:3075   .text.USB_ReadDevAllInEpInterrupt:00000000 $t
     /tmp/cc0ThgoX.s:3081   .text.USB_ReadDevAllInEpInterrupt:00000000 USB_ReadDevAllInEpInterrupt
     /tmp/cc0ThgoX.s:3114   .text.USB_ReadDevOutEPInterrupt:00000000 $t
     /tmp/cc0ThgoX.s:3120   .text.USB_ReadDevOutEPInterrupt:00000000 USB_ReadDevOutEPInterrupt
     /tmp/cc0ThgoX.s:3154   .text.USB_ReadDevInEPInterrupt:00000000 $t
     /tmp/cc0ThgoX.s:3160   .text.USB_ReadDevInEPInterrupt:00000000 USB_ReadDevInEPInterrupt
     /tmp/cc0ThgoX.s:3211   .text.USB_ClearInterrupts:00000000 $t
     /tmp/cc0ThgoX.s:3217   .text.USB_ClearInterrupts:00000000 USB_ClearInterrupts
     /tmp/cc0ThgoX.s:3237   .text.USB_GetMode:00000000 $t
     /tmp/cc0ThgoX.s:3243   .text.USB_GetMode:00000000 USB_GetMode
     /tmp/cc0ThgoX.s:3262   .text.USB_SetCurrentMode:00000000 $t
     /tmp/cc0ThgoX.s:3268   .text.USB_SetCurrentMode:00000000 USB_SetCurrentMode
     /tmp/cc0ThgoX.s:3388   .text.USB_ActivateSetup:00000000 $t
     /tmp/cc0ThgoX.s:3394   .text.USB_ActivateSetup:00000000 USB_ActivateSetup
     /tmp/cc0ThgoX.s:3425   .text.USB_EP0_OutStart:00000000 $t
     /tmp/cc0ThgoX.s:3431   .text.USB_EP0_OutStart:00000000 USB_EP0_OutStart
     /tmp/cc0ThgoX.s:3518   .text.USB_EP0_OutStart:0000005c $d
     /tmp/cc0ThgoX.s:3523   .text.USB_HostInit:00000000 $t
     /tmp/cc0ThgoX.s:3529   .text.USB_HostInit:00000000 USB_HostInit
     /tmp/cc0ThgoX.s:3716   .text.USB_HostInit:000000cc $d
     /tmp/cc0ThgoX.s:3722   .text.USB_InitFSLSPClkSel:00000000 $t
     /tmp/cc0ThgoX.s:3728   .text.USB_InitFSLSPClkSel:00000000 USB_InitFSLSPClkSel
     /tmp/cc0ThgoX.s:3791   .text.USB_ResetPort:00000000 $t
     /tmp/cc0ThgoX.s:3797   .text.USB_ResetPort:00000000 USB_ResetPort
     /tmp/cc0ThgoX.s:3866   .text.USB_DriveVbus:00000000 $t
     /tmp/cc0ThgoX.s:3872   .text.USB_DriveVbus:00000000 USB_DriveVbus
     /tmp/cc0ThgoX.s:3951   .text.USB_GetHostSpeed:00000000 $t
     /tmp/cc0ThgoX.s:3957   .text.USB_GetHostSpeed:00000000 USB_GetHostSpeed
     /tmp/cc0ThgoX.s:3995   .text.USB_GetCurrentFrame:00000000 $t
     /tmp/cc0ThgoX.s:4001   .text.USB_GetCurrentFrame:00000000 USB_GetCurrentFrame
     /tmp/cc0ThgoX.s:4024   .text.USB_HC_Init:00000000 $t
     /tmp/cc0ThgoX.s:4030   .text.USB_HC_Init:00000000 USB_HC_Init
     /tmp/cc0ThgoX.s:4072   .text.USB_HC_Init:00000022 $d
     /tmp/cc0ThgoX.s:4076   .text.USB_HC_Init:00000026 $t
     /tmp/cc0ThgoX.s:4270   .text.USB_HC_StartXfer:00000000 $t
     /tmp/cc0ThgoX.s:4276   .text.USB_HC_StartXfer:00000000 USB_HC_StartXfer
     /tmp/cc0ThgoX.s:4610   .text.USB_HC_StartXfer:00000178 $d
     /tmp/cc0ThgoX.s:4615   .text.USB_HC_StartXfer:0000017c $t
     /tmp/cc0ThgoX.s:4678   .text.USB_HC_StartXfer:000001c6 $d
     /tmp/cc0ThgoX.s:4682   .text.USB_HC_StartXfer:000001ca $t
     /tmp/cc0ThgoX.s:4839   .text.USB_HC_StartXfer:00000288 $d
     /tmp/cc0ThgoX.s:4844   .text.USB_HC_ReadInterrupt:00000000 $t
     /tmp/cc0ThgoX.s:4850   .text.USB_HC_ReadInterrupt:00000000 USB_HC_ReadInterrupt
     /tmp/cc0ThgoX.s:4873   .text.USB_HC_Halt:00000000 $t
     /tmp/cc0ThgoX.s:4879   .text.USB_HC_Halt:00000000 USB_HC_Halt
     /tmp/cc0ThgoX.s:5098   .text.USB_DoPing:00000000 $t
     /tmp/cc0ThgoX.s:5104   .text.USB_DoPing:00000000 USB_DoPing
     /tmp/cc0ThgoX.s:5144   .text.USB_DoPing:00000020 $d
     /tmp/cc0ThgoX.s:5149   .text.USB_StopHost:00000000 $t
     /tmp/cc0ThgoX.s:5155   .text.USB_StopHost:00000000 USB_StopHost
     /tmp/cc0ThgoX.s:5319   .text.USB_ActivateRemoteWakeup:00000000 $t
     /tmp/cc0ThgoX.s:5325   .text.USB_ActivateRemoteWakeup:00000000 USB_ActivateRemoteWakeup
     /tmp/cc0ThgoX.s:5360   .text.USB_DeActivateRemoteWakeup:00000000 $t
     /tmp/cc0ThgoX.s:5366   .text.USB_DeActivateRemoteWakeup:00000000 USB_DeActivateRemoteWakeup
ARM GAS  /tmp/cc0ThgoX.s 			page 161



UNDEFINED SYMBOLS
HAL_Delay
