ARM GAS  /tmp/ccAUMmuN.s 			page 1


   1              		.cpu cortex-m4
   2              		.arch armv7e-m
   3              		.fpu fpv4-sp-d16
   4              		.eabi_attribute 27, 1
   5              		.eabi_attribute 28, 1
   6              		.eabi_attribute 20, 1
   7              		.eabi_attribute 21, 1
   8              		.eabi_attribute 23, 3
   9              		.eabi_attribute 24, 1
  10              		.eabi_attribute 25, 1
  11              		.eabi_attribute 26, 1
  12              		.eabi_attribute 30, 1
  13              		.eabi_attribute 34, 1
  14              		.eabi_attribute 18, 4
  15              		.file	"stm32f4xx_hal_gpio.c"
  16              		.text
  17              	.Ltext0:
  18              		.cfi_sections	.debug_frame
  19              		.file 1 "Drivers/STM32F4xx_HAL_Driver/Src/stm32f4xx_hal_gpio.c"
  20              		.section	.text.HAL_GPIO_Init,"ax",%progbits
  21              		.align	1
  22              		.global	HAL_GPIO_Init
  23              		.syntax unified
  24              		.thumb
  25              		.thumb_func
  27              	HAL_GPIO_Init:
  28              	.LVL0:
  29              	.LFB134:
   1:Drivers/STM32F4xx_HAL_Driver/Src/stm32f4xx_hal_gpio.c **** /**
   2:Drivers/STM32F4xx_HAL_Driver/Src/stm32f4xx_hal_gpio.c ****   ******************************************************************************
   3:Drivers/STM32F4xx_HAL_Driver/Src/stm32f4xx_hal_gpio.c ****   * @file    stm32f4xx_hal_gpio.c
   4:Drivers/STM32F4xx_HAL_Driver/Src/stm32f4xx_hal_gpio.c ****   * @author  MCD Application Team
   5:Drivers/STM32F4xx_HAL_Driver/Src/stm32f4xx_hal_gpio.c ****   * @brief   GPIO HAL module driver.
   6:Drivers/STM32F4xx_HAL_Driver/Src/stm32f4xx_hal_gpio.c ****   *          This file provides firmware functions to manage the following 
   7:Drivers/STM32F4xx_HAL_Driver/Src/stm32f4xx_hal_gpio.c ****   *          functionalities of the General Purpose Input/Output (GPIO) peripheral:
   8:Drivers/STM32F4xx_HAL_Driver/Src/stm32f4xx_hal_gpio.c ****   *           + Initialization and de-initialization functions
   9:Drivers/STM32F4xx_HAL_Driver/Src/stm32f4xx_hal_gpio.c ****   *           + IO operation functions
  10:Drivers/STM32F4xx_HAL_Driver/Src/stm32f4xx_hal_gpio.c ****   *
  11:Drivers/STM32F4xx_HAL_Driver/Src/stm32f4xx_hal_gpio.c ****   ******************************************************************************
  12:Drivers/STM32F4xx_HAL_Driver/Src/stm32f4xx_hal_gpio.c ****   * @attention
  13:Drivers/STM32F4xx_HAL_Driver/Src/stm32f4xx_hal_gpio.c ****   *
  14:Drivers/STM32F4xx_HAL_Driver/Src/stm32f4xx_hal_gpio.c ****   * Copyright (c) 2017 STMicroelectronics.
  15:Drivers/STM32F4xx_HAL_Driver/Src/stm32f4xx_hal_gpio.c ****   * All rights reserved.
  16:Drivers/STM32F4xx_HAL_Driver/Src/stm32f4xx_hal_gpio.c ****   *
  17:Drivers/STM32F4xx_HAL_Driver/Src/stm32f4xx_hal_gpio.c ****   * This software is licensed under terms that can be found in the LICENSE file
  18:Drivers/STM32F4xx_HAL_Driver/Src/stm32f4xx_hal_gpio.c ****   * in the root directory of this software component.
  19:Drivers/STM32F4xx_HAL_Driver/Src/stm32f4xx_hal_gpio.c ****   * If no LICENSE file comes with this software, it is provided AS-IS.
  20:Drivers/STM32F4xx_HAL_Driver/Src/stm32f4xx_hal_gpio.c ****   *
  21:Drivers/STM32F4xx_HAL_Driver/Src/stm32f4xx_hal_gpio.c ****   ******************************************************************************
  22:Drivers/STM32F4xx_HAL_Driver/Src/stm32f4xx_hal_gpio.c ****   @verbatim
  23:Drivers/STM32F4xx_HAL_Driver/Src/stm32f4xx_hal_gpio.c ****   ==============================================================================
  24:Drivers/STM32F4xx_HAL_Driver/Src/stm32f4xx_hal_gpio.c ****                     ##### GPIO Peripheral features #####
  25:Drivers/STM32F4xx_HAL_Driver/Src/stm32f4xx_hal_gpio.c ****   ==============================================================================
  26:Drivers/STM32F4xx_HAL_Driver/Src/stm32f4xx_hal_gpio.c ****   [..] 
  27:Drivers/STM32F4xx_HAL_Driver/Src/stm32f4xx_hal_gpio.c ****   Subject to the specific hardware characteristics of each I/O port listed in the datasheet, each
  28:Drivers/STM32F4xx_HAL_Driver/Src/stm32f4xx_hal_gpio.c ****   port bit of the General Purpose IO (GPIO) Ports, can be individually configured by software
  29:Drivers/STM32F4xx_HAL_Driver/Src/stm32f4xx_hal_gpio.c ****   in several modes:
ARM GAS  /tmp/ccAUMmuN.s 			page 2


  30:Drivers/STM32F4xx_HAL_Driver/Src/stm32f4xx_hal_gpio.c ****   (+) Input mode 
  31:Drivers/STM32F4xx_HAL_Driver/Src/stm32f4xx_hal_gpio.c ****   (+) Analog mode
  32:Drivers/STM32F4xx_HAL_Driver/Src/stm32f4xx_hal_gpio.c ****   (+) Output mode
  33:Drivers/STM32F4xx_HAL_Driver/Src/stm32f4xx_hal_gpio.c ****   (+) Alternate function mode
  34:Drivers/STM32F4xx_HAL_Driver/Src/stm32f4xx_hal_gpio.c ****   (+) External interrupt/event lines
  35:Drivers/STM32F4xx_HAL_Driver/Src/stm32f4xx_hal_gpio.c **** 
  36:Drivers/STM32F4xx_HAL_Driver/Src/stm32f4xx_hal_gpio.c ****   [..]  
  37:Drivers/STM32F4xx_HAL_Driver/Src/stm32f4xx_hal_gpio.c ****   During and just after reset, the alternate functions and external interrupt  
  38:Drivers/STM32F4xx_HAL_Driver/Src/stm32f4xx_hal_gpio.c ****   lines are not active and the I/O ports are configured in input floating mode.
  39:Drivers/STM32F4xx_HAL_Driver/Src/stm32f4xx_hal_gpio.c ****   
  40:Drivers/STM32F4xx_HAL_Driver/Src/stm32f4xx_hal_gpio.c ****   [..]   
  41:Drivers/STM32F4xx_HAL_Driver/Src/stm32f4xx_hal_gpio.c ****   All GPIO pins have weak internal pull-up and pull-down resistors, which can be 
  42:Drivers/STM32F4xx_HAL_Driver/Src/stm32f4xx_hal_gpio.c ****   activated or not.
  43:Drivers/STM32F4xx_HAL_Driver/Src/stm32f4xx_hal_gpio.c **** 
  44:Drivers/STM32F4xx_HAL_Driver/Src/stm32f4xx_hal_gpio.c ****   [..]
  45:Drivers/STM32F4xx_HAL_Driver/Src/stm32f4xx_hal_gpio.c ****   In Output or Alternate mode, each IO can be configured on open-drain or push-pull
  46:Drivers/STM32F4xx_HAL_Driver/Src/stm32f4xx_hal_gpio.c ****   type and the IO speed can be selected depending on the VDD value.
  47:Drivers/STM32F4xx_HAL_Driver/Src/stm32f4xx_hal_gpio.c **** 
  48:Drivers/STM32F4xx_HAL_Driver/Src/stm32f4xx_hal_gpio.c ****   [..]  
  49:Drivers/STM32F4xx_HAL_Driver/Src/stm32f4xx_hal_gpio.c ****   All ports have external interrupt/event capability. To use external interrupt 
  50:Drivers/STM32F4xx_HAL_Driver/Src/stm32f4xx_hal_gpio.c ****   lines, the port must be configured in input mode. All available GPIO pins are 
  51:Drivers/STM32F4xx_HAL_Driver/Src/stm32f4xx_hal_gpio.c ****   connected to the 16 external interrupt/event lines from EXTI0 to EXTI15.
  52:Drivers/STM32F4xx_HAL_Driver/Src/stm32f4xx_hal_gpio.c ****   
  53:Drivers/STM32F4xx_HAL_Driver/Src/stm32f4xx_hal_gpio.c ****   [..]
  54:Drivers/STM32F4xx_HAL_Driver/Src/stm32f4xx_hal_gpio.c ****   The external interrupt/event controller consists of up to 23 edge detectors 
  55:Drivers/STM32F4xx_HAL_Driver/Src/stm32f4xx_hal_gpio.c ****   (16 lines are connected to GPIO) for generating event/interrupt requests (each 
  56:Drivers/STM32F4xx_HAL_Driver/Src/stm32f4xx_hal_gpio.c ****   input line can be independently configured to select the type (interrupt or event) 
  57:Drivers/STM32F4xx_HAL_Driver/Src/stm32f4xx_hal_gpio.c ****   and the corresponding trigger event (rising or falling or both). Each line can 
  58:Drivers/STM32F4xx_HAL_Driver/Src/stm32f4xx_hal_gpio.c ****   also be masked independently. 
  59:Drivers/STM32F4xx_HAL_Driver/Src/stm32f4xx_hal_gpio.c **** 
  60:Drivers/STM32F4xx_HAL_Driver/Src/stm32f4xx_hal_gpio.c ****                      ##### How to use this driver #####
  61:Drivers/STM32F4xx_HAL_Driver/Src/stm32f4xx_hal_gpio.c ****   ==============================================================================  
  62:Drivers/STM32F4xx_HAL_Driver/Src/stm32f4xx_hal_gpio.c ****   [..]
  63:Drivers/STM32F4xx_HAL_Driver/Src/stm32f4xx_hal_gpio.c ****     (#) Enable the GPIO AHB clock using the following function: __HAL_RCC_GPIOx_CLK_ENABLE(). 
  64:Drivers/STM32F4xx_HAL_Driver/Src/stm32f4xx_hal_gpio.c **** 
  65:Drivers/STM32F4xx_HAL_Driver/Src/stm32f4xx_hal_gpio.c ****     (#) Configure the GPIO pin(s) using HAL_GPIO_Init().
  66:Drivers/STM32F4xx_HAL_Driver/Src/stm32f4xx_hal_gpio.c ****         (++) Configure the IO mode using "Mode" member from GPIO_InitTypeDef structure
  67:Drivers/STM32F4xx_HAL_Driver/Src/stm32f4xx_hal_gpio.c ****         (++) Activate Pull-up, Pull-down resistor using "Pull" member from GPIO_InitTypeDef 
  68:Drivers/STM32F4xx_HAL_Driver/Src/stm32f4xx_hal_gpio.c ****              structure.
  69:Drivers/STM32F4xx_HAL_Driver/Src/stm32f4xx_hal_gpio.c ****         (++) In case of Output or alternate function mode selection: the speed is 
  70:Drivers/STM32F4xx_HAL_Driver/Src/stm32f4xx_hal_gpio.c ****              configured through "Speed" member from GPIO_InitTypeDef structure.
  71:Drivers/STM32F4xx_HAL_Driver/Src/stm32f4xx_hal_gpio.c ****         (++) In alternate mode is selection, the alternate function connected to the IO
  72:Drivers/STM32F4xx_HAL_Driver/Src/stm32f4xx_hal_gpio.c ****              is configured through "Alternate" member from GPIO_InitTypeDef structure.
  73:Drivers/STM32F4xx_HAL_Driver/Src/stm32f4xx_hal_gpio.c ****         (++) Analog mode is required when a pin is to be used as ADC channel 
  74:Drivers/STM32F4xx_HAL_Driver/Src/stm32f4xx_hal_gpio.c ****              or DAC output.
  75:Drivers/STM32F4xx_HAL_Driver/Src/stm32f4xx_hal_gpio.c ****         (++) In case of external interrupt/event selection the "Mode" member from 
  76:Drivers/STM32F4xx_HAL_Driver/Src/stm32f4xx_hal_gpio.c ****              GPIO_InitTypeDef structure select the type (interrupt or event) and 
  77:Drivers/STM32F4xx_HAL_Driver/Src/stm32f4xx_hal_gpio.c ****              the corresponding trigger event (rising or falling or both).
  78:Drivers/STM32F4xx_HAL_Driver/Src/stm32f4xx_hal_gpio.c **** 
  79:Drivers/STM32F4xx_HAL_Driver/Src/stm32f4xx_hal_gpio.c ****     (#) In case of external interrupt/event mode selection, configure NVIC IRQ priority 
  80:Drivers/STM32F4xx_HAL_Driver/Src/stm32f4xx_hal_gpio.c ****         mapped to the EXTI line using HAL_NVIC_SetPriority() and enable it using
  81:Drivers/STM32F4xx_HAL_Driver/Src/stm32f4xx_hal_gpio.c ****         HAL_NVIC_EnableIRQ().
  82:Drivers/STM32F4xx_HAL_Driver/Src/stm32f4xx_hal_gpio.c ****          
  83:Drivers/STM32F4xx_HAL_Driver/Src/stm32f4xx_hal_gpio.c ****     (#) To get the level of a pin configured in input mode use HAL_GPIO_ReadPin().
  84:Drivers/STM32F4xx_HAL_Driver/Src/stm32f4xx_hal_gpio.c ****             
  85:Drivers/STM32F4xx_HAL_Driver/Src/stm32f4xx_hal_gpio.c ****     (#) To set/reset the level of a pin configured in output mode use 
  86:Drivers/STM32F4xx_HAL_Driver/Src/stm32f4xx_hal_gpio.c ****         HAL_GPIO_WritePin()/HAL_GPIO_TogglePin().
ARM GAS  /tmp/ccAUMmuN.s 			page 3


  87:Drivers/STM32F4xx_HAL_Driver/Src/stm32f4xx_hal_gpio.c ****     
  88:Drivers/STM32F4xx_HAL_Driver/Src/stm32f4xx_hal_gpio.c ****     (#) To lock pin configuration until next reset use HAL_GPIO_LockPin().
  89:Drivers/STM32F4xx_HAL_Driver/Src/stm32f4xx_hal_gpio.c **** 
  90:Drivers/STM32F4xx_HAL_Driver/Src/stm32f4xx_hal_gpio.c ****                  
  91:Drivers/STM32F4xx_HAL_Driver/Src/stm32f4xx_hal_gpio.c ****     (#) During and just after reset, the alternate functions are not 
  92:Drivers/STM32F4xx_HAL_Driver/Src/stm32f4xx_hal_gpio.c ****         active and the GPIO pins are configured in input floating mode (except JTAG
  93:Drivers/STM32F4xx_HAL_Driver/Src/stm32f4xx_hal_gpio.c ****         pins).
  94:Drivers/STM32F4xx_HAL_Driver/Src/stm32f4xx_hal_gpio.c ****   
  95:Drivers/STM32F4xx_HAL_Driver/Src/stm32f4xx_hal_gpio.c ****     (#) The LSE oscillator pins OSC32_IN and OSC32_OUT can be used as general purpose 
  96:Drivers/STM32F4xx_HAL_Driver/Src/stm32f4xx_hal_gpio.c ****         (PC14 and PC15, respectively) when the LSE oscillator is off. The LSE has 
  97:Drivers/STM32F4xx_HAL_Driver/Src/stm32f4xx_hal_gpio.c ****         priority over the GPIO function.
  98:Drivers/STM32F4xx_HAL_Driver/Src/stm32f4xx_hal_gpio.c ****   
  99:Drivers/STM32F4xx_HAL_Driver/Src/stm32f4xx_hal_gpio.c ****     (#) The HSE oscillator pins OSC_IN/OSC_OUT can be used as 
 100:Drivers/STM32F4xx_HAL_Driver/Src/stm32f4xx_hal_gpio.c ****         general purpose PH0 and PH1, respectively, when the HSE oscillator is off. 
 101:Drivers/STM32F4xx_HAL_Driver/Src/stm32f4xx_hal_gpio.c ****         The HSE has priority over the GPIO function.
 102:Drivers/STM32F4xx_HAL_Driver/Src/stm32f4xx_hal_gpio.c ****   
 103:Drivers/STM32F4xx_HAL_Driver/Src/stm32f4xx_hal_gpio.c ****   @endverbatim
 104:Drivers/STM32F4xx_HAL_Driver/Src/stm32f4xx_hal_gpio.c ****   ******************************************************************************
 105:Drivers/STM32F4xx_HAL_Driver/Src/stm32f4xx_hal_gpio.c ****   */ 
 106:Drivers/STM32F4xx_HAL_Driver/Src/stm32f4xx_hal_gpio.c **** 
 107:Drivers/STM32F4xx_HAL_Driver/Src/stm32f4xx_hal_gpio.c **** /* Includes ------------------------------------------------------------------*/
 108:Drivers/STM32F4xx_HAL_Driver/Src/stm32f4xx_hal_gpio.c **** #include "stm32f4xx_hal.h"
 109:Drivers/STM32F4xx_HAL_Driver/Src/stm32f4xx_hal_gpio.c **** 
 110:Drivers/STM32F4xx_HAL_Driver/Src/stm32f4xx_hal_gpio.c **** /** @addtogroup STM32F4xx_HAL_Driver
 111:Drivers/STM32F4xx_HAL_Driver/Src/stm32f4xx_hal_gpio.c ****   * @{
 112:Drivers/STM32F4xx_HAL_Driver/Src/stm32f4xx_hal_gpio.c ****   */
 113:Drivers/STM32F4xx_HAL_Driver/Src/stm32f4xx_hal_gpio.c **** 
 114:Drivers/STM32F4xx_HAL_Driver/Src/stm32f4xx_hal_gpio.c **** /** @defgroup GPIO GPIO
 115:Drivers/STM32F4xx_HAL_Driver/Src/stm32f4xx_hal_gpio.c ****   * @brief GPIO HAL module driver
 116:Drivers/STM32F4xx_HAL_Driver/Src/stm32f4xx_hal_gpio.c ****   * @{
 117:Drivers/STM32F4xx_HAL_Driver/Src/stm32f4xx_hal_gpio.c ****   */
 118:Drivers/STM32F4xx_HAL_Driver/Src/stm32f4xx_hal_gpio.c **** 
 119:Drivers/STM32F4xx_HAL_Driver/Src/stm32f4xx_hal_gpio.c **** #ifdef HAL_GPIO_MODULE_ENABLED
 120:Drivers/STM32F4xx_HAL_Driver/Src/stm32f4xx_hal_gpio.c **** 
 121:Drivers/STM32F4xx_HAL_Driver/Src/stm32f4xx_hal_gpio.c **** /* Private typedef -----------------------------------------------------------*/
 122:Drivers/STM32F4xx_HAL_Driver/Src/stm32f4xx_hal_gpio.c **** /* Private define ------------------------------------------------------------*/
 123:Drivers/STM32F4xx_HAL_Driver/Src/stm32f4xx_hal_gpio.c **** /** @addtogroup GPIO_Private_Constants GPIO Private Constants
 124:Drivers/STM32F4xx_HAL_Driver/Src/stm32f4xx_hal_gpio.c ****   * @{
 125:Drivers/STM32F4xx_HAL_Driver/Src/stm32f4xx_hal_gpio.c ****   */
 126:Drivers/STM32F4xx_HAL_Driver/Src/stm32f4xx_hal_gpio.c **** 
 127:Drivers/STM32F4xx_HAL_Driver/Src/stm32f4xx_hal_gpio.c **** #define GPIO_NUMBER           16U
 128:Drivers/STM32F4xx_HAL_Driver/Src/stm32f4xx_hal_gpio.c **** /**
 129:Drivers/STM32F4xx_HAL_Driver/Src/stm32f4xx_hal_gpio.c ****   * @}
 130:Drivers/STM32F4xx_HAL_Driver/Src/stm32f4xx_hal_gpio.c ****   */
 131:Drivers/STM32F4xx_HAL_Driver/Src/stm32f4xx_hal_gpio.c **** /* Private macro -------------------------------------------------------------*/
 132:Drivers/STM32F4xx_HAL_Driver/Src/stm32f4xx_hal_gpio.c **** /* Private variables ---------------------------------------------------------*/
 133:Drivers/STM32F4xx_HAL_Driver/Src/stm32f4xx_hal_gpio.c **** /* Private function prototypes -----------------------------------------------*/
 134:Drivers/STM32F4xx_HAL_Driver/Src/stm32f4xx_hal_gpio.c **** /* Private functions ---------------------------------------------------------*/
 135:Drivers/STM32F4xx_HAL_Driver/Src/stm32f4xx_hal_gpio.c **** /* Exported functions --------------------------------------------------------*/
 136:Drivers/STM32F4xx_HAL_Driver/Src/stm32f4xx_hal_gpio.c **** /** @defgroup GPIO_Exported_Functions GPIO Exported Functions
 137:Drivers/STM32F4xx_HAL_Driver/Src/stm32f4xx_hal_gpio.c ****   * @{
 138:Drivers/STM32F4xx_HAL_Driver/Src/stm32f4xx_hal_gpio.c ****   */
 139:Drivers/STM32F4xx_HAL_Driver/Src/stm32f4xx_hal_gpio.c **** 
 140:Drivers/STM32F4xx_HAL_Driver/Src/stm32f4xx_hal_gpio.c **** /** @defgroup GPIO_Exported_Functions_Group1 Initialization and de-initialization functions
 141:Drivers/STM32F4xx_HAL_Driver/Src/stm32f4xx_hal_gpio.c ****   *  @brief    Initialization and Configuration functions
 142:Drivers/STM32F4xx_HAL_Driver/Src/stm32f4xx_hal_gpio.c ****   *
 143:Drivers/STM32F4xx_HAL_Driver/Src/stm32f4xx_hal_gpio.c **** @verbatim    
ARM GAS  /tmp/ccAUMmuN.s 			page 4


 144:Drivers/STM32F4xx_HAL_Driver/Src/stm32f4xx_hal_gpio.c ****  ===============================================================================
 145:Drivers/STM32F4xx_HAL_Driver/Src/stm32f4xx_hal_gpio.c ****               ##### Initialization and de-initialization functions #####
 146:Drivers/STM32F4xx_HAL_Driver/Src/stm32f4xx_hal_gpio.c ****  ===============================================================================
 147:Drivers/STM32F4xx_HAL_Driver/Src/stm32f4xx_hal_gpio.c ****   [..]
 148:Drivers/STM32F4xx_HAL_Driver/Src/stm32f4xx_hal_gpio.c ****     This section provides functions allowing to initialize and de-initialize the GPIOs
 149:Drivers/STM32F4xx_HAL_Driver/Src/stm32f4xx_hal_gpio.c ****     to be ready for use.
 150:Drivers/STM32F4xx_HAL_Driver/Src/stm32f4xx_hal_gpio.c ****  
 151:Drivers/STM32F4xx_HAL_Driver/Src/stm32f4xx_hal_gpio.c **** @endverbatim
 152:Drivers/STM32F4xx_HAL_Driver/Src/stm32f4xx_hal_gpio.c ****   * @{
 153:Drivers/STM32F4xx_HAL_Driver/Src/stm32f4xx_hal_gpio.c ****   */
 154:Drivers/STM32F4xx_HAL_Driver/Src/stm32f4xx_hal_gpio.c **** 
 155:Drivers/STM32F4xx_HAL_Driver/Src/stm32f4xx_hal_gpio.c **** 
 156:Drivers/STM32F4xx_HAL_Driver/Src/stm32f4xx_hal_gpio.c **** /**
 157:Drivers/STM32F4xx_HAL_Driver/Src/stm32f4xx_hal_gpio.c ****   * @brief  Initializes the GPIOx peripheral according to the specified parameters in the GPIO_Init
 158:Drivers/STM32F4xx_HAL_Driver/Src/stm32f4xx_hal_gpio.c ****   * @param  GPIOx where x can be (A..K) to select the GPIO peripheral for STM32F429X device or
 159:Drivers/STM32F4xx_HAL_Driver/Src/stm32f4xx_hal_gpio.c ****   *                      x can be (A..I) to select the GPIO peripheral for STM32F40XX and STM32F427
 160:Drivers/STM32F4xx_HAL_Driver/Src/stm32f4xx_hal_gpio.c ****   * @param  GPIO_Init pointer to a GPIO_InitTypeDef structure that contains
 161:Drivers/STM32F4xx_HAL_Driver/Src/stm32f4xx_hal_gpio.c ****   *         the configuration information for the specified GPIO peripheral.
 162:Drivers/STM32F4xx_HAL_Driver/Src/stm32f4xx_hal_gpio.c ****   * @retval None
 163:Drivers/STM32F4xx_HAL_Driver/Src/stm32f4xx_hal_gpio.c ****   */
 164:Drivers/STM32F4xx_HAL_Driver/Src/stm32f4xx_hal_gpio.c **** void HAL_GPIO_Init(GPIO_TypeDef  *GPIOx, GPIO_InitTypeDef *GPIO_Init)
 165:Drivers/STM32F4xx_HAL_Driver/Src/stm32f4xx_hal_gpio.c **** {
  30              		.loc 1 165 1 view -0
  31              		.cfi_startproc
  32              		@ args = 0, pretend = 0, frame = 8
  33              		@ frame_needed = 0, uses_anonymous_args = 0
  34              		.loc 1 165 1 is_stmt 0 view .LVU1
  35 0000 70B5     		push	{r4, r5, r6, lr}
  36              	.LCFI0:
  37              		.cfi_def_cfa_offset 16
  38              		.cfi_offset 4, -16
  39              		.cfi_offset 5, -12
  40              		.cfi_offset 6, -8
  41              		.cfi_offset 14, -4
  42 0002 82B0     		sub	sp, sp, #8
  43              	.LCFI1:
  44              		.cfi_def_cfa_offset 24
  45 0004 8E46     		mov	lr, r1
 166:Drivers/STM32F4xx_HAL_Driver/Src/stm32f4xx_hal_gpio.c ****   uint32_t position;
  46              		.loc 1 166 3 is_stmt 1 view .LVU2
 167:Drivers/STM32F4xx_HAL_Driver/Src/stm32f4xx_hal_gpio.c ****   uint32_t ioposition = 0x00U;
  47              		.loc 1 167 3 view .LVU3
  48              	.LVL1:
 168:Drivers/STM32F4xx_HAL_Driver/Src/stm32f4xx_hal_gpio.c ****   uint32_t iocurrent = 0x00U;
  49              		.loc 1 168 3 view .LVU4
 169:Drivers/STM32F4xx_HAL_Driver/Src/stm32f4xx_hal_gpio.c ****   uint32_t temp = 0x00U;
  50              		.loc 1 169 3 view .LVU5
 170:Drivers/STM32F4xx_HAL_Driver/Src/stm32f4xx_hal_gpio.c **** 
 171:Drivers/STM32F4xx_HAL_Driver/Src/stm32f4xx_hal_gpio.c ****   /* Check the parameters */
 172:Drivers/STM32F4xx_HAL_Driver/Src/stm32f4xx_hal_gpio.c ****   assert_param(IS_GPIO_ALL_INSTANCE(GPIOx));
  51              		.loc 1 172 3 view .LVU6
 173:Drivers/STM32F4xx_HAL_Driver/Src/stm32f4xx_hal_gpio.c ****   assert_param(IS_GPIO_PIN(GPIO_Init->Pin));
  52              		.loc 1 173 3 view .LVU7
 174:Drivers/STM32F4xx_HAL_Driver/Src/stm32f4xx_hal_gpio.c ****   assert_param(IS_GPIO_MODE(GPIO_Init->Mode));
  53              		.loc 1 174 3 view .LVU8
 175:Drivers/STM32F4xx_HAL_Driver/Src/stm32f4xx_hal_gpio.c **** 
 176:Drivers/STM32F4xx_HAL_Driver/Src/stm32f4xx_hal_gpio.c ****   /* Configure the port pins */
ARM GAS  /tmp/ccAUMmuN.s 			page 5


 177:Drivers/STM32F4xx_HAL_Driver/Src/stm32f4xx_hal_gpio.c ****   for(position = 0U; position < GPIO_NUMBER; position++)
  54              		.loc 1 177 3 view .LVU9
  55              		.loc 1 177 16 is_stmt 0 view .LVU10
  56 0006 0023     		movs	r3, #0
  57              		.loc 1 177 3 view .LVU11
  58 0008 69E0     		b	.L2
  59              	.LVL2:
  60              	.L22:
 178:Drivers/STM32F4xx_HAL_Driver/Src/stm32f4xx_hal_gpio.c ****   {
 179:Drivers/STM32F4xx_HAL_Driver/Src/stm32f4xx_hal_gpio.c ****     /* Get the IO position */
 180:Drivers/STM32F4xx_HAL_Driver/Src/stm32f4xx_hal_gpio.c ****     ioposition = 0x01U << position;
 181:Drivers/STM32F4xx_HAL_Driver/Src/stm32f4xx_hal_gpio.c ****     /* Get the current IO position */
 182:Drivers/STM32F4xx_HAL_Driver/Src/stm32f4xx_hal_gpio.c ****     iocurrent = (uint32_t)(GPIO_Init->Pin) & ioposition;
 183:Drivers/STM32F4xx_HAL_Driver/Src/stm32f4xx_hal_gpio.c **** 
 184:Drivers/STM32F4xx_HAL_Driver/Src/stm32f4xx_hal_gpio.c ****     if(iocurrent == ioposition)
 185:Drivers/STM32F4xx_HAL_Driver/Src/stm32f4xx_hal_gpio.c ****     {
 186:Drivers/STM32F4xx_HAL_Driver/Src/stm32f4xx_hal_gpio.c ****       /*--------------------- GPIO Mode Configuration ------------------------*/
 187:Drivers/STM32F4xx_HAL_Driver/Src/stm32f4xx_hal_gpio.c ****       /* In case of Output or Alternate function mode selection */
 188:Drivers/STM32F4xx_HAL_Driver/Src/stm32f4xx_hal_gpio.c ****       if(((GPIO_Init->Mode & GPIO_MODE) == MODE_OUTPUT) || \
 189:Drivers/STM32F4xx_HAL_Driver/Src/stm32f4xx_hal_gpio.c ****           (GPIO_Init->Mode & GPIO_MODE) == MODE_AF)
 190:Drivers/STM32F4xx_HAL_Driver/Src/stm32f4xx_hal_gpio.c ****       {
 191:Drivers/STM32F4xx_HAL_Driver/Src/stm32f4xx_hal_gpio.c ****         /* Check the Speed parameter */
 192:Drivers/STM32F4xx_HAL_Driver/Src/stm32f4xx_hal_gpio.c ****         assert_param(IS_GPIO_SPEED(GPIO_Init->Speed));
  61              		.loc 1 192 9 is_stmt 1 view .LVU12
 193:Drivers/STM32F4xx_HAL_Driver/Src/stm32f4xx_hal_gpio.c ****         /* Configure the IO Speed */
 194:Drivers/STM32F4xx_HAL_Driver/Src/stm32f4xx_hal_gpio.c ****         temp = GPIOx->OSPEEDR; 
  62              		.loc 1 194 9 view .LVU13
  63              		.loc 1 194 14 is_stmt 0 view .LVU14
  64 000a 8568     		ldr	r5, [r0, #8]
  65              	.LVL3:
 195:Drivers/STM32F4xx_HAL_Driver/Src/stm32f4xx_hal_gpio.c ****         temp &= ~(GPIO_OSPEEDER_OSPEEDR0 << (position * 2U));
  66              		.loc 1 195 9 is_stmt 1 view .LVU15
  67              		.loc 1 195 55 is_stmt 0 view .LVU16
  68 000c 4FEA430C 		lsl	ip, r3, #1
  69              		.loc 1 195 42 view .LVU17
  70 0010 0321     		movs	r1, #3
  71 0012 01FA0CF1 		lsl	r1, r1, ip
  72              		.loc 1 195 14 view .LVU18
  73 0016 25EA0105 		bic	r5, r5, r1
  74              	.LVL4:
 196:Drivers/STM32F4xx_HAL_Driver/Src/stm32f4xx_hal_gpio.c ****         temp |= (GPIO_Init->Speed << (position * 2U));
  75              		.loc 1 196 9 is_stmt 1 view .LVU19
  76              		.loc 1 196 27 is_stmt 0 view .LVU20
  77 001a DEF80C10 		ldr	r1, [lr, #12]
  78              		.loc 1 196 35 view .LVU21
  79 001e 01FA0CF1 		lsl	r1, r1, ip
  80              		.loc 1 196 14 view .LVU22
  81 0022 2943     		orrs	r1, r1, r5
  82              	.LVL5:
 197:Drivers/STM32F4xx_HAL_Driver/Src/stm32f4xx_hal_gpio.c ****         GPIOx->OSPEEDR = temp;
  83              		.loc 1 197 9 is_stmt 1 view .LVU23
  84              		.loc 1 197 24 is_stmt 0 view .LVU24
  85 0024 8160     		str	r1, [r0, #8]
 198:Drivers/STM32F4xx_HAL_Driver/Src/stm32f4xx_hal_gpio.c **** 
 199:Drivers/STM32F4xx_HAL_Driver/Src/stm32f4xx_hal_gpio.c ****         /* Configure the IO Output Type */
 200:Drivers/STM32F4xx_HAL_Driver/Src/stm32f4xx_hal_gpio.c ****         temp = GPIOx->OTYPER;
  86              		.loc 1 200 9 is_stmt 1 view .LVU25
ARM GAS  /tmp/ccAUMmuN.s 			page 6


  87              		.loc 1 200 14 is_stmt 0 view .LVU26
  88 0026 4168     		ldr	r1, [r0, #4]
  89              	.LVL6:
 201:Drivers/STM32F4xx_HAL_Driver/Src/stm32f4xx_hal_gpio.c ****         temp &= ~(GPIO_OTYPER_OT_0 << position) ;
  90              		.loc 1 201 9 is_stmt 1 view .LVU27
  91              		.loc 1 201 14 is_stmt 0 view .LVU28
  92 0028 21EA0201 		bic	r1, r1, r2
  93              	.LVL7:
 202:Drivers/STM32F4xx_HAL_Driver/Src/stm32f4xx_hal_gpio.c ****         temp |= (((GPIO_Init->Mode & OUTPUT_TYPE) >> OUTPUT_TYPE_Pos) << position);
  94              		.loc 1 202 9 is_stmt 1 view .LVU29
  95              		.loc 1 202 29 is_stmt 0 view .LVU30
  96 002c DEF80420 		ldr	r2, [lr, #4]
  97              	.LVL8:
  98              		.loc 1 202 51 view .LVU31
  99 0030 C2F30012 		ubfx	r2, r2, #4, #1
 100              		.loc 1 202 71 view .LVU32
 101 0034 9A40     		lsls	r2, r2, r3
 102              		.loc 1 202 14 view .LVU33
 103 0036 0A43     		orrs	r2, r2, r1
 104              	.LVL9:
 203:Drivers/STM32F4xx_HAL_Driver/Src/stm32f4xx_hal_gpio.c ****         GPIOx->OTYPER = temp;
 105              		.loc 1 203 9 is_stmt 1 view .LVU34
 106              		.loc 1 203 23 is_stmt 0 view .LVU35
 107 0038 4260     		str	r2, [r0, #4]
 108 003a 65E0     		b	.L4
 109              	.LVL10:
 110              	.L23:
 204:Drivers/STM32F4xx_HAL_Driver/Src/stm32f4xx_hal_gpio.c ****        }
 205:Drivers/STM32F4xx_HAL_Driver/Src/stm32f4xx_hal_gpio.c **** 
 206:Drivers/STM32F4xx_HAL_Driver/Src/stm32f4xx_hal_gpio.c ****       if((GPIO_Init->Mode & GPIO_MODE) != MODE_ANALOG)
 207:Drivers/STM32F4xx_HAL_Driver/Src/stm32f4xx_hal_gpio.c ****       {
 208:Drivers/STM32F4xx_HAL_Driver/Src/stm32f4xx_hal_gpio.c ****         /* Check the parameters */
 209:Drivers/STM32F4xx_HAL_Driver/Src/stm32f4xx_hal_gpio.c ****         assert_param(IS_GPIO_PULL(GPIO_Init->Pull));
 210:Drivers/STM32F4xx_HAL_Driver/Src/stm32f4xx_hal_gpio.c ****         
 211:Drivers/STM32F4xx_HAL_Driver/Src/stm32f4xx_hal_gpio.c ****         /* Activate the Pull-up or Pull down resistor for the current IO */
 212:Drivers/STM32F4xx_HAL_Driver/Src/stm32f4xx_hal_gpio.c ****         temp = GPIOx->PUPDR;
 213:Drivers/STM32F4xx_HAL_Driver/Src/stm32f4xx_hal_gpio.c ****         temp &= ~(GPIO_PUPDR_PUPDR0 << (position * 2U));
 214:Drivers/STM32F4xx_HAL_Driver/Src/stm32f4xx_hal_gpio.c ****         temp |= ((GPIO_Init->Pull) << (position * 2U));
 215:Drivers/STM32F4xx_HAL_Driver/Src/stm32f4xx_hal_gpio.c ****         GPIOx->PUPDR = temp;
 216:Drivers/STM32F4xx_HAL_Driver/Src/stm32f4xx_hal_gpio.c ****       }
 217:Drivers/STM32F4xx_HAL_Driver/Src/stm32f4xx_hal_gpio.c **** 
 218:Drivers/STM32F4xx_HAL_Driver/Src/stm32f4xx_hal_gpio.c ****       /* In case of Alternate function mode selection */
 219:Drivers/STM32F4xx_HAL_Driver/Src/stm32f4xx_hal_gpio.c ****       if((GPIO_Init->Mode & GPIO_MODE) == MODE_AF)
 220:Drivers/STM32F4xx_HAL_Driver/Src/stm32f4xx_hal_gpio.c ****       {
 221:Drivers/STM32F4xx_HAL_Driver/Src/stm32f4xx_hal_gpio.c ****         /* Check the Alternate function parameter */
 222:Drivers/STM32F4xx_HAL_Driver/Src/stm32f4xx_hal_gpio.c ****         assert_param(IS_GPIO_AF(GPIO_Init->Alternate));
 111              		.loc 1 222 9 is_stmt 1 view .LVU36
 223:Drivers/STM32F4xx_HAL_Driver/Src/stm32f4xx_hal_gpio.c ****         /* Configure Alternate function mapped with the current IO */
 224:Drivers/STM32F4xx_HAL_Driver/Src/stm32f4xx_hal_gpio.c ****         temp = GPIOx->AFR[position >> 3U];
 112              		.loc 1 224 9 view .LVU37
 113              		.loc 1 224 36 is_stmt 0 view .LVU38
 114 003c D908     		lsrs	r1, r3, #3
 115              		.loc 1 224 14 view .LVU39
 116 003e 0831     		adds	r1, r1, #8
 117 0040 50F82120 		ldr	r2, [r0, r1, lsl #2]
 118              	.LVL11:
 225:Drivers/STM32F4xx_HAL_Driver/Src/stm32f4xx_hal_gpio.c ****         temp &= ~(0xFU << ((uint32_t)(position & 0x07U) * 4U)) ;
ARM GAS  /tmp/ccAUMmuN.s 			page 7


 119              		.loc 1 225 9 is_stmt 1 view .LVU40
 120              		.loc 1 225 28 is_stmt 0 view .LVU41
 121 0044 03F00705 		and	r5, r3, #7
 122              		.loc 1 225 57 view .LVU42
 123 0048 AD00     		lsls	r5, r5, #2
 124              		.loc 1 225 24 view .LVU43
 125 004a 4FF00F0C 		mov	ip, #15
 126 004e 0CFA05FC 		lsl	ip, ip, r5
 127              		.loc 1 225 14 view .LVU44
 128 0052 22EA0C0C 		bic	ip, r2, ip
 129              	.LVL12:
 226:Drivers/STM32F4xx_HAL_Driver/Src/stm32f4xx_hal_gpio.c ****         temp |= ((uint32_t)(GPIO_Init->Alternate) << (((uint32_t)position & 0x07U) * 4U));
 130              		.loc 1 226 9 is_stmt 1 view .LVU45
 131              		.loc 1 226 38 is_stmt 0 view .LVU46
 132 0056 DEF81020 		ldr	r2, [lr, #16]
 133              		.loc 1 226 51 view .LVU47
 134 005a AA40     		lsls	r2, r2, r5
 135              		.loc 1 226 14 view .LVU48
 136 005c 42EA0C02 		orr	r2, r2, ip
 137              	.LVL13:
 227:Drivers/STM32F4xx_HAL_Driver/Src/stm32f4xx_hal_gpio.c ****         GPIOx->AFR[position >> 3U] = temp;
 138              		.loc 1 227 9 is_stmt 1 view .LVU49
 139              		.loc 1 227 36 is_stmt 0 view .LVU50
 140 0060 40F82120 		str	r2, [r0, r1, lsl #2]
 141 0064 67E0     		b	.L6
 142              	.LVL14:
 143              	.L24:
 228:Drivers/STM32F4xx_HAL_Driver/Src/stm32f4xx_hal_gpio.c ****       }
 229:Drivers/STM32F4xx_HAL_Driver/Src/stm32f4xx_hal_gpio.c **** 
 230:Drivers/STM32F4xx_HAL_Driver/Src/stm32f4xx_hal_gpio.c ****       /* Configure IO Direction mode (Input, Output, Alternate or Analog) */
 231:Drivers/STM32F4xx_HAL_Driver/Src/stm32f4xx_hal_gpio.c ****       temp = GPIOx->MODER;
 232:Drivers/STM32F4xx_HAL_Driver/Src/stm32f4xx_hal_gpio.c ****       temp &= ~(GPIO_MODER_MODER0 << (position * 2U));
 233:Drivers/STM32F4xx_HAL_Driver/Src/stm32f4xx_hal_gpio.c ****       temp |= ((GPIO_Init->Mode & GPIO_MODE) << (position * 2U));
 234:Drivers/STM32F4xx_HAL_Driver/Src/stm32f4xx_hal_gpio.c ****       GPIOx->MODER = temp;
 235:Drivers/STM32F4xx_HAL_Driver/Src/stm32f4xx_hal_gpio.c **** 
 236:Drivers/STM32F4xx_HAL_Driver/Src/stm32f4xx_hal_gpio.c ****       /*--------------------- EXTI Mode Configuration ------------------------*/
 237:Drivers/STM32F4xx_HAL_Driver/Src/stm32f4xx_hal_gpio.c ****       /* Configure the External Interrupt or event for the current IO */
 238:Drivers/STM32F4xx_HAL_Driver/Src/stm32f4xx_hal_gpio.c ****       if((GPIO_Init->Mode & EXTI_MODE) != 0x00U)
 239:Drivers/STM32F4xx_HAL_Driver/Src/stm32f4xx_hal_gpio.c ****       {
 240:Drivers/STM32F4xx_HAL_Driver/Src/stm32f4xx_hal_gpio.c ****         /* Enable SYSCFG Clock */
 241:Drivers/STM32F4xx_HAL_Driver/Src/stm32f4xx_hal_gpio.c ****         __HAL_RCC_SYSCFG_CLK_ENABLE();
 242:Drivers/STM32F4xx_HAL_Driver/Src/stm32f4xx_hal_gpio.c **** 
 243:Drivers/STM32F4xx_HAL_Driver/Src/stm32f4xx_hal_gpio.c ****         temp = SYSCFG->EXTICR[position >> 2U];
 244:Drivers/STM32F4xx_HAL_Driver/Src/stm32f4xx_hal_gpio.c ****         temp &= ~(0x0FU << (4U * (position & 0x03U)));
 245:Drivers/STM32F4xx_HAL_Driver/Src/stm32f4xx_hal_gpio.c ****         temp |= ((uint32_t)(GPIO_GET_INDEX(GPIOx)) << (4U * (position & 0x03U)));
 144              		.loc 1 245 18 discriminator 13 view .LVU51
 145 0066 0622     		movs	r2, #6
 146 0068 00E0     		b	.L7
 147              	.L13:
 148              		.loc 1 245 18 discriminator 2 view .LVU52
 149 006a 0022     		movs	r2, #0
 150              	.L7:
 151              		.loc 1 245 52 discriminator 15 view .LVU53
 152 006c 02FA0CF2 		lsl	r2, r2, ip
 153              		.loc 1 245 14 discriminator 15 view .LVU54
 154 0070 2A43     		orrs	r2, r2, r5
 155              	.LVL15:
ARM GAS  /tmp/ccAUMmuN.s 			page 8


 246:Drivers/STM32F4xx_HAL_Driver/Src/stm32f4xx_hal_gpio.c ****         SYSCFG->EXTICR[position >> 2U] = temp;
 156              		.loc 1 246 9 is_stmt 1 view .LVU55
 157              		.loc 1 246 40 is_stmt 0 view .LVU56
 158 0072 0231     		adds	r1, r1, #2
 159 0074 5D4D     		ldr	r5, .L25
 160 0076 45F82120 		str	r2, [r5, r1, lsl #2]
 247:Drivers/STM32F4xx_HAL_Driver/Src/stm32f4xx_hal_gpio.c **** 
 248:Drivers/STM32F4xx_HAL_Driver/Src/stm32f4xx_hal_gpio.c ****         /* Clear Rising Falling edge configuration */
 249:Drivers/STM32F4xx_HAL_Driver/Src/stm32f4xx_hal_gpio.c ****         temp = EXTI->RTSR;
 161              		.loc 1 249 9 is_stmt 1 view .LVU57
 162              		.loc 1 249 14 is_stmt 0 view .LVU58
 163 007a 5D4A     		ldr	r2, .L25+4
 164              	.LVL16:
 165              		.loc 1 249 14 view .LVU59
 166 007c 9168     		ldr	r1, [r2, #8]
 167              	.LVL17:
 250:Drivers/STM32F4xx_HAL_Driver/Src/stm32f4xx_hal_gpio.c ****         temp &= ~((uint32_t)iocurrent);
 168              		.loc 1 250 9 is_stmt 1 view .LVU60
 169              		.loc 1 250 17 is_stmt 0 view .LVU61
 170 007e E243     		mvns	r2, r4
 171              		.loc 1 250 14 view .LVU62
 172 0080 21EA0405 		bic	r5, r1, r4
 173              	.LVL18:
 251:Drivers/STM32F4xx_HAL_Driver/Src/stm32f4xx_hal_gpio.c ****         if((GPIO_Init->Mode & TRIGGER_RISING) != 0x00U)
 174              		.loc 1 251 9 is_stmt 1 view .LVU63
 175              		.loc 1 251 11 is_stmt 0 view .LVU64
 176 0084 DEF80460 		ldr	r6, [lr, #4]
 177 0088 16F4801F 		tst	r6, #1048576
 178 008c 01D0     		beq	.L8
 252:Drivers/STM32F4xx_HAL_Driver/Src/stm32f4xx_hal_gpio.c ****         {
 253:Drivers/STM32F4xx_HAL_Driver/Src/stm32f4xx_hal_gpio.c ****           temp |= iocurrent;
 179              		.loc 1 253 11 is_stmt 1 view .LVU65
 180              		.loc 1 253 16 is_stmt 0 view .LVU66
 181 008e 44EA0105 		orr	r5, r4, r1
 182              	.LVL19:
 183              	.L8:
 254:Drivers/STM32F4xx_HAL_Driver/Src/stm32f4xx_hal_gpio.c ****         }
 255:Drivers/STM32F4xx_HAL_Driver/Src/stm32f4xx_hal_gpio.c ****         EXTI->RTSR = temp;
 184              		.loc 1 255 9 is_stmt 1 view .LVU67
 185              		.loc 1 255 20 is_stmt 0 view .LVU68
 186 0092 5749     		ldr	r1, .L25+4
 187 0094 8D60     		str	r5, [r1, #8]
 256:Drivers/STM32F4xx_HAL_Driver/Src/stm32f4xx_hal_gpio.c **** 
 257:Drivers/STM32F4xx_HAL_Driver/Src/stm32f4xx_hal_gpio.c ****         temp = EXTI->FTSR;
 188              		.loc 1 257 9 is_stmt 1 view .LVU69
 189              		.loc 1 257 14 is_stmt 0 view .LVU70
 190 0096 C968     		ldr	r1, [r1, #12]
 191              	.LVL20:
 258:Drivers/STM32F4xx_HAL_Driver/Src/stm32f4xx_hal_gpio.c ****         temp &= ~((uint32_t)iocurrent);
 192              		.loc 1 258 9 is_stmt 1 view .LVU71
 193              		.loc 1 258 14 is_stmt 0 view .LVU72
 194 0098 02EA0105 		and	r5, r2, r1
 195              	.LVL21:
 259:Drivers/STM32F4xx_HAL_Driver/Src/stm32f4xx_hal_gpio.c ****         if((GPIO_Init->Mode & TRIGGER_FALLING) != 0x00U)
 196              		.loc 1 259 9 is_stmt 1 view .LVU73
 197              		.loc 1 259 11 is_stmt 0 view .LVU74
 198 009c DEF80460 		ldr	r6, [lr, #4]
ARM GAS  /tmp/ccAUMmuN.s 			page 9


 199 00a0 16F4001F 		tst	r6, #2097152
 200 00a4 01D0     		beq	.L9
 260:Drivers/STM32F4xx_HAL_Driver/Src/stm32f4xx_hal_gpio.c ****         {
 261:Drivers/STM32F4xx_HAL_Driver/Src/stm32f4xx_hal_gpio.c ****           temp |= iocurrent;
 201              		.loc 1 261 11 is_stmt 1 view .LVU75
 202              		.loc 1 261 16 is_stmt 0 view .LVU76
 203 00a6 44EA0105 		orr	r5, r4, r1
 204              	.LVL22:
 205              	.L9:
 262:Drivers/STM32F4xx_HAL_Driver/Src/stm32f4xx_hal_gpio.c ****         }
 263:Drivers/STM32F4xx_HAL_Driver/Src/stm32f4xx_hal_gpio.c ****         EXTI->FTSR = temp;
 206              		.loc 1 263 9 is_stmt 1 view .LVU77
 207              		.loc 1 263 20 is_stmt 0 view .LVU78
 208 00aa 5149     		ldr	r1, .L25+4
 209 00ac CD60     		str	r5, [r1, #12]
 264:Drivers/STM32F4xx_HAL_Driver/Src/stm32f4xx_hal_gpio.c **** 
 265:Drivers/STM32F4xx_HAL_Driver/Src/stm32f4xx_hal_gpio.c ****         temp = EXTI->EMR;
 210              		.loc 1 265 9 is_stmt 1 view .LVU79
 211              		.loc 1 265 14 is_stmt 0 view .LVU80
 212 00ae 4968     		ldr	r1, [r1, #4]
 213              	.LVL23:
 266:Drivers/STM32F4xx_HAL_Driver/Src/stm32f4xx_hal_gpio.c ****         temp &= ~((uint32_t)iocurrent);
 214              		.loc 1 266 9 is_stmt 1 view .LVU81
 215              		.loc 1 266 14 is_stmt 0 view .LVU82
 216 00b0 02EA0105 		and	r5, r2, r1
 217              	.LVL24:
 267:Drivers/STM32F4xx_HAL_Driver/Src/stm32f4xx_hal_gpio.c ****         if((GPIO_Init->Mode & EXTI_EVT) != 0x00U)
 218              		.loc 1 267 9 is_stmt 1 view .LVU83
 219              		.loc 1 267 11 is_stmt 0 view .LVU84
 220 00b4 DEF80460 		ldr	r6, [lr, #4]
 221 00b8 16F4003F 		tst	r6, #131072
 222 00bc 01D0     		beq	.L10
 268:Drivers/STM32F4xx_HAL_Driver/Src/stm32f4xx_hal_gpio.c ****         {
 269:Drivers/STM32F4xx_HAL_Driver/Src/stm32f4xx_hal_gpio.c ****           temp |= iocurrent;
 223              		.loc 1 269 11 is_stmt 1 view .LVU85
 224              		.loc 1 269 16 is_stmt 0 view .LVU86
 225 00be 44EA0105 		orr	r5, r4, r1
 226              	.LVL25:
 227              	.L10:
 270:Drivers/STM32F4xx_HAL_Driver/Src/stm32f4xx_hal_gpio.c ****         }
 271:Drivers/STM32F4xx_HAL_Driver/Src/stm32f4xx_hal_gpio.c ****         EXTI->EMR = temp;
 228              		.loc 1 271 9 is_stmt 1 view .LVU87
 229              		.loc 1 271 19 is_stmt 0 view .LVU88
 230 00c2 4B49     		ldr	r1, .L25+4
 231 00c4 4D60     		str	r5, [r1, #4]
 272:Drivers/STM32F4xx_HAL_Driver/Src/stm32f4xx_hal_gpio.c **** 
 273:Drivers/STM32F4xx_HAL_Driver/Src/stm32f4xx_hal_gpio.c ****         /* Clear EXTI line configuration */
 274:Drivers/STM32F4xx_HAL_Driver/Src/stm32f4xx_hal_gpio.c ****         temp = EXTI->IMR;
 232              		.loc 1 274 9 is_stmt 1 view .LVU89
 233              		.loc 1 274 14 is_stmt 0 view .LVU90
 234 00c6 0968     		ldr	r1, [r1]
 235              	.LVL26:
 275:Drivers/STM32F4xx_HAL_Driver/Src/stm32f4xx_hal_gpio.c ****         temp &= ~((uint32_t)iocurrent);
 236              		.loc 1 275 9 is_stmt 1 view .LVU91
 237              		.loc 1 275 14 is_stmt 0 view .LVU92
 238 00c8 0A40     		ands	r2, r2, r1
 239              	.LVL27:
ARM GAS  /tmp/ccAUMmuN.s 			page 10


 276:Drivers/STM32F4xx_HAL_Driver/Src/stm32f4xx_hal_gpio.c ****         if((GPIO_Init->Mode & EXTI_IT) != 0x00U)
 240              		.loc 1 276 9 is_stmt 1 view .LVU93
 241              		.loc 1 276 22 is_stmt 0 view .LVU94
 242 00ca DEF80450 		ldr	r5, [lr, #4]
 243              		.loc 1 276 11 view .LVU95
 244 00ce 15F4803F 		tst	r5, #65536
 245 00d2 01D0     		beq	.L11
 277:Drivers/STM32F4xx_HAL_Driver/Src/stm32f4xx_hal_gpio.c ****         {
 278:Drivers/STM32F4xx_HAL_Driver/Src/stm32f4xx_hal_gpio.c ****           temp |= iocurrent;
 246              		.loc 1 278 11 is_stmt 1 view .LVU96
 247              		.loc 1 278 16 is_stmt 0 view .LVU97
 248 00d4 44EA0102 		orr	r2, r4, r1
 249              	.LVL28:
 250              	.L11:
 279:Drivers/STM32F4xx_HAL_Driver/Src/stm32f4xx_hal_gpio.c ****         }
 280:Drivers/STM32F4xx_HAL_Driver/Src/stm32f4xx_hal_gpio.c ****         EXTI->IMR = temp;
 251              		.loc 1 280 9 is_stmt 1 view .LVU98
 252              		.loc 1 280 19 is_stmt 0 view .LVU99
 253 00d8 4549     		ldr	r1, .L25+4
 254 00da 0A60     		str	r2, [r1]
 255              	.LVL29:
 256              	.L3:
 177:Drivers/STM32F4xx_HAL_Driver/Src/stm32f4xx_hal_gpio.c ****   {
 257              		.loc 1 177 54 is_stmt 1 discriminator 2 view .LVU100
 258 00dc 0133     		adds	r3, r3, #1
 259              	.LVL30:
 260              	.L2:
 177:Drivers/STM32F4xx_HAL_Driver/Src/stm32f4xx_hal_gpio.c ****   {
 261              		.loc 1 177 31 discriminator 1 view .LVU101
 262 00de 0F2B     		cmp	r3, #15
 263 00e0 00F28180 		bhi	.L21
 180:Drivers/STM32F4xx_HAL_Driver/Src/stm32f4xx_hal_gpio.c ****     /* Get the current IO position */
 264              		.loc 1 180 5 view .LVU102
 180:Drivers/STM32F4xx_HAL_Driver/Src/stm32f4xx_hal_gpio.c ****     /* Get the current IO position */
 265              		.loc 1 180 16 is_stmt 0 view .LVU103
 266 00e4 0122     		movs	r2, #1
 267 00e6 9A40     		lsls	r2, r2, r3
 268              	.LVL31:
 182:Drivers/STM32F4xx_HAL_Driver/Src/stm32f4xx_hal_gpio.c **** 
 269              		.loc 1 182 5 is_stmt 1 view .LVU104
 182:Drivers/STM32F4xx_HAL_Driver/Src/stm32f4xx_hal_gpio.c **** 
 270              		.loc 1 182 37 is_stmt 0 view .LVU105
 271 00e8 DEF80010 		ldr	r1, [lr]
 182:Drivers/STM32F4xx_HAL_Driver/Src/stm32f4xx_hal_gpio.c **** 
 272              		.loc 1 182 15 view .LVU106
 273 00ec 01EA0204 		and	r4, r1, r2
 274              	.LVL32:
 184:Drivers/STM32F4xx_HAL_Driver/Src/stm32f4xx_hal_gpio.c ****     {
 275              		.loc 1 184 5 is_stmt 1 view .LVU107
 184:Drivers/STM32F4xx_HAL_Driver/Src/stm32f4xx_hal_gpio.c ****     {
 276              		.loc 1 184 7 is_stmt 0 view .LVU108
 277 00f0 32EA0101 		bics	r1, r2, r1
 278 00f4 F2D1     		bne	.L3
 188:Drivers/STM32F4xx_HAL_Driver/Src/stm32f4xx_hal_gpio.c ****           (GPIO_Init->Mode & GPIO_MODE) == MODE_AF)
 279              		.loc 1 188 7 is_stmt 1 view .LVU109
 188:Drivers/STM32F4xx_HAL_Driver/Src/stm32f4xx_hal_gpio.c ****           (GPIO_Init->Mode & GPIO_MODE) == MODE_AF)
 280              		.loc 1 188 28 is_stmt 0 view .LVU110
ARM GAS  /tmp/ccAUMmuN.s 			page 11


 281 00f6 DEF80410 		ldr	r1, [lr, #4]
 282 00fa 01F0030C 		and	ip, r1, #3
 188:Drivers/STM32F4xx_HAL_Driver/Src/stm32f4xx_hal_gpio.c ****           (GPIO_Init->Mode & GPIO_MODE) == MODE_AF)
 283              		.loc 1 188 57 view .LVU111
 284 00fe 0CF1FF3C 		add	ip, ip, #-1
 188:Drivers/STM32F4xx_HAL_Driver/Src/stm32f4xx_hal_gpio.c ****           (GPIO_Init->Mode & GPIO_MODE) == MODE_AF)
 285              		.loc 1 188 9 view .LVU112
 286 0102 BCF1010F 		cmp	ip, #1
 287 0106 80D9     		bls	.L22
 288              	.LVL33:
 289              	.L4:
 206:Drivers/STM32F4xx_HAL_Driver/Src/stm32f4xx_hal_gpio.c ****       {
 290              		.loc 1 206 7 is_stmt 1 view .LVU113
 206:Drivers/STM32F4xx_HAL_Driver/Src/stm32f4xx_hal_gpio.c ****       {
 291              		.loc 1 206 20 is_stmt 0 view .LVU114
 292 0108 DEF80420 		ldr	r2, [lr, #4]
 206:Drivers/STM32F4xx_HAL_Driver/Src/stm32f4xx_hal_gpio.c ****       {
 293              		.loc 1 206 27 view .LVU115
 294 010c 02F00302 		and	r2, r2, #3
 206:Drivers/STM32F4xx_HAL_Driver/Src/stm32f4xx_hal_gpio.c ****       {
 295              		.loc 1 206 9 view .LVU116
 296 0110 032A     		cmp	r2, #3
 297 0112 0AD0     		beq	.L5
 209:Drivers/STM32F4xx_HAL_Driver/Src/stm32f4xx_hal_gpio.c ****         
 298              		.loc 1 209 9 is_stmt 1 view .LVU117
 212:Drivers/STM32F4xx_HAL_Driver/Src/stm32f4xx_hal_gpio.c ****         temp &= ~(GPIO_PUPDR_PUPDR0 << (position * 2U));
 299              		.loc 1 212 9 view .LVU118
 212:Drivers/STM32F4xx_HAL_Driver/Src/stm32f4xx_hal_gpio.c ****         temp &= ~(GPIO_PUPDR_PUPDR0 << (position * 2U));
 300              		.loc 1 212 14 is_stmt 0 view .LVU119
 301 0114 C168     		ldr	r1, [r0, #12]
 302              	.LVL34:
 213:Drivers/STM32F4xx_HAL_Driver/Src/stm32f4xx_hal_gpio.c ****         temp |= ((GPIO_Init->Pull) << (position * 2U));
 303              		.loc 1 213 9 is_stmt 1 view .LVU120
 213:Drivers/STM32F4xx_HAL_Driver/Src/stm32f4xx_hal_gpio.c ****         temp |= ((GPIO_Init->Pull) << (position * 2U));
 304              		.loc 1 213 50 is_stmt 0 view .LVU121
 305 0116 5D00     		lsls	r5, r3, #1
 213:Drivers/STM32F4xx_HAL_Driver/Src/stm32f4xx_hal_gpio.c ****         temp |= ((GPIO_Init->Pull) << (position * 2U));
 306              		.loc 1 213 37 view .LVU122
 307 0118 0322     		movs	r2, #3
 308 011a AA40     		lsls	r2, r2, r5
 213:Drivers/STM32F4xx_HAL_Driver/Src/stm32f4xx_hal_gpio.c ****         temp |= ((GPIO_Init->Pull) << (position * 2U));
 309              		.loc 1 213 14 view .LVU123
 310 011c 21EA0201 		bic	r1, r1, r2
 311              	.LVL35:
 214:Drivers/STM32F4xx_HAL_Driver/Src/stm32f4xx_hal_gpio.c ****         GPIOx->PUPDR = temp;
 312              		.loc 1 214 9 is_stmt 1 view .LVU124
 214:Drivers/STM32F4xx_HAL_Driver/Src/stm32f4xx_hal_gpio.c ****         GPIOx->PUPDR = temp;
 313              		.loc 1 214 28 is_stmt 0 view .LVU125
 314 0120 DEF80820 		ldr	r2, [lr, #8]
 214:Drivers/STM32F4xx_HAL_Driver/Src/stm32f4xx_hal_gpio.c ****         GPIOx->PUPDR = temp;
 315              		.loc 1 214 36 view .LVU126
 316 0124 AA40     		lsls	r2, r2, r5
 214:Drivers/STM32F4xx_HAL_Driver/Src/stm32f4xx_hal_gpio.c ****         GPIOx->PUPDR = temp;
 317              		.loc 1 214 14 view .LVU127
 318 0126 0A43     		orrs	r2, r2, r1
 319              	.LVL36:
 215:Drivers/STM32F4xx_HAL_Driver/Src/stm32f4xx_hal_gpio.c ****       }
ARM GAS  /tmp/ccAUMmuN.s 			page 12


 320              		.loc 1 215 9 is_stmt 1 view .LVU128
 215:Drivers/STM32F4xx_HAL_Driver/Src/stm32f4xx_hal_gpio.c ****       }
 321              		.loc 1 215 22 is_stmt 0 view .LVU129
 322 0128 C260     		str	r2, [r0, #12]
 323              	.LVL37:
 324              	.L5:
 219:Drivers/STM32F4xx_HAL_Driver/Src/stm32f4xx_hal_gpio.c ****       {
 325              		.loc 1 219 7 is_stmt 1 view .LVU130
 219:Drivers/STM32F4xx_HAL_Driver/Src/stm32f4xx_hal_gpio.c ****       {
 326              		.loc 1 219 20 is_stmt 0 view .LVU131
 327 012a DEF80420 		ldr	r2, [lr, #4]
 219:Drivers/STM32F4xx_HAL_Driver/Src/stm32f4xx_hal_gpio.c ****       {
 328              		.loc 1 219 27 view .LVU132
 329 012e 02F00302 		and	r2, r2, #3
 219:Drivers/STM32F4xx_HAL_Driver/Src/stm32f4xx_hal_gpio.c ****       {
 330              		.loc 1 219 9 view .LVU133
 331 0132 022A     		cmp	r2, #2
 332 0134 82D0     		beq	.L23
 333              	.L6:
 231:Drivers/STM32F4xx_HAL_Driver/Src/stm32f4xx_hal_gpio.c ****       temp &= ~(GPIO_MODER_MODER0 << (position * 2U));
 334              		.loc 1 231 7 is_stmt 1 view .LVU134
 231:Drivers/STM32F4xx_HAL_Driver/Src/stm32f4xx_hal_gpio.c ****       temp &= ~(GPIO_MODER_MODER0 << (position * 2U));
 335              		.loc 1 231 12 is_stmt 0 view .LVU135
 336 0136 0168     		ldr	r1, [r0]
 337              	.LVL38:
 232:Drivers/STM32F4xx_HAL_Driver/Src/stm32f4xx_hal_gpio.c ****       temp |= ((GPIO_Init->Mode & GPIO_MODE) << (position * 2U));
 338              		.loc 1 232 7 is_stmt 1 view .LVU136
 232:Drivers/STM32F4xx_HAL_Driver/Src/stm32f4xx_hal_gpio.c ****       temp |= ((GPIO_Init->Mode & GPIO_MODE) << (position * 2U));
 339              		.loc 1 232 48 is_stmt 0 view .LVU137
 340 0138 4FEA430C 		lsl	ip, r3, #1
 232:Drivers/STM32F4xx_HAL_Driver/Src/stm32f4xx_hal_gpio.c ****       temp |= ((GPIO_Init->Mode & GPIO_MODE) << (position * 2U));
 341              		.loc 1 232 35 view .LVU138
 342 013c 0322     		movs	r2, #3
 343 013e 02FA0CF2 		lsl	r2, r2, ip
 232:Drivers/STM32F4xx_HAL_Driver/Src/stm32f4xx_hal_gpio.c ****       temp |= ((GPIO_Init->Mode & GPIO_MODE) << (position * 2U));
 344              		.loc 1 232 12 view .LVU139
 345 0142 21EA0201 		bic	r1, r1, r2
 346              	.LVL39:
 233:Drivers/STM32F4xx_HAL_Driver/Src/stm32f4xx_hal_gpio.c ****       GPIOx->MODER = temp;
 347              		.loc 1 233 7 is_stmt 1 view .LVU140
 233:Drivers/STM32F4xx_HAL_Driver/Src/stm32f4xx_hal_gpio.c ****       GPIOx->MODER = temp;
 348              		.loc 1 233 26 is_stmt 0 view .LVU141
 349 0146 DEF80420 		ldr	r2, [lr, #4]
 233:Drivers/STM32F4xx_HAL_Driver/Src/stm32f4xx_hal_gpio.c ****       GPIOx->MODER = temp;
 350              		.loc 1 233 33 view .LVU142
 351 014a 02F00302 		and	r2, r2, #3
 233:Drivers/STM32F4xx_HAL_Driver/Src/stm32f4xx_hal_gpio.c ****       GPIOx->MODER = temp;
 352              		.loc 1 233 46 view .LVU143
 353 014e 02FA0CF2 		lsl	r2, r2, ip
 233:Drivers/STM32F4xx_HAL_Driver/Src/stm32f4xx_hal_gpio.c ****       GPIOx->MODER = temp;
 354              		.loc 1 233 12 view .LVU144
 355 0152 0A43     		orrs	r2, r2, r1
 356              	.LVL40:
 234:Drivers/STM32F4xx_HAL_Driver/Src/stm32f4xx_hal_gpio.c **** 
 357              		.loc 1 234 7 is_stmt 1 view .LVU145
 234:Drivers/STM32F4xx_HAL_Driver/Src/stm32f4xx_hal_gpio.c **** 
 358              		.loc 1 234 20 is_stmt 0 view .LVU146
ARM GAS  /tmp/ccAUMmuN.s 			page 13


 359 0154 0260     		str	r2, [r0]
 238:Drivers/STM32F4xx_HAL_Driver/Src/stm32f4xx_hal_gpio.c ****       {
 360              		.loc 1 238 7 is_stmt 1 view .LVU147
 238:Drivers/STM32F4xx_HAL_Driver/Src/stm32f4xx_hal_gpio.c ****       {
 361              		.loc 1 238 20 is_stmt 0 view .LVU148
 362 0156 DEF80420 		ldr	r2, [lr, #4]
 363              	.LVL41:
 238:Drivers/STM32F4xx_HAL_Driver/Src/stm32f4xx_hal_gpio.c ****       {
 364              		.loc 1 238 9 view .LVU149
 365 015a 12F4403F 		tst	r2, #196608
 366 015e BDD0     		beq	.L3
 241:Drivers/STM32F4xx_HAL_Driver/Src/stm32f4xx_hal_gpio.c **** 
 367              		.loc 1 241 9 is_stmt 1 view .LVU150
 368              	.LBB2:
 241:Drivers/STM32F4xx_HAL_Driver/Src/stm32f4xx_hal_gpio.c **** 
 369              		.loc 1 241 9 view .LVU151
 370 0160 0022     		movs	r2, #0
 371 0162 0192     		str	r2, [sp, #4]
 372              	.LVL42:
 241:Drivers/STM32F4xx_HAL_Driver/Src/stm32f4xx_hal_gpio.c **** 
 373              		.loc 1 241 9 view .LVU152
 374 0164 234A     		ldr	r2, .L25+8
 375 0166 516C     		ldr	r1, [r2, #68]
 376 0168 41F48041 		orr	r1, r1, #16384
 377 016c 5164     		str	r1, [r2, #68]
 241:Drivers/STM32F4xx_HAL_Driver/Src/stm32f4xx_hal_gpio.c **** 
 378              		.loc 1 241 9 view .LVU153
 379 016e 526C     		ldr	r2, [r2, #68]
 380 0170 02F48042 		and	r2, r2, #16384
 381 0174 0192     		str	r2, [sp, #4]
 241:Drivers/STM32F4xx_HAL_Driver/Src/stm32f4xx_hal_gpio.c **** 
 382              		.loc 1 241 9 view .LVU154
 383 0176 019A     		ldr	r2, [sp, #4]
 384              	.LBE2:
 241:Drivers/STM32F4xx_HAL_Driver/Src/stm32f4xx_hal_gpio.c **** 
 385              		.loc 1 241 9 view .LVU155
 243:Drivers/STM32F4xx_HAL_Driver/Src/stm32f4xx_hal_gpio.c ****         temp &= ~(0x0FU << (4U * (position & 0x03U)));
 386              		.loc 1 243 9 view .LVU156
 243:Drivers/STM32F4xx_HAL_Driver/Src/stm32f4xx_hal_gpio.c ****         temp &= ~(0x0FU << (4U * (position & 0x03U)));
 387              		.loc 1 243 40 is_stmt 0 view .LVU157
 388 0178 9908     		lsrs	r1, r3, #2
 243:Drivers/STM32F4xx_HAL_Driver/Src/stm32f4xx_hal_gpio.c ****         temp &= ~(0x0FU << (4U * (position & 0x03U)));
 389              		.loc 1 243 14 view .LVU158
 390 017a 8D1C     		adds	r5, r1, #2
 391 017c 1B4A     		ldr	r2, .L25
 392 017e 52F82550 		ldr	r5, [r2, r5, lsl #2]
 393              	.LVL43:
 244:Drivers/STM32F4xx_HAL_Driver/Src/stm32f4xx_hal_gpio.c ****         temp |= ((uint32_t)(GPIO_GET_INDEX(GPIOx)) << (4U * (position & 0x03U)));
 394              		.loc 1 244 9 is_stmt 1 view .LVU159
 244:Drivers/STM32F4xx_HAL_Driver/Src/stm32f4xx_hal_gpio.c ****         temp |= ((uint32_t)(GPIO_GET_INDEX(GPIOx)) << (4U * (position & 0x03U)));
 395              		.loc 1 244 44 is_stmt 0 view .LVU160
 396 0182 03F0030C 		and	ip, r3, #3
 244:Drivers/STM32F4xx_HAL_Driver/Src/stm32f4xx_hal_gpio.c ****         temp |= ((uint32_t)(GPIO_GET_INDEX(GPIOx)) << (4U * (position & 0x03U)));
 397              		.loc 1 244 32 view .LVU161
 398 0186 4FEA8C0C 		lsl	ip, ip, #2
 244:Drivers/STM32F4xx_HAL_Driver/Src/stm32f4xx_hal_gpio.c ****         temp |= ((uint32_t)(GPIO_GET_INDEX(GPIOx)) << (4U * (position & 0x03U)));
 399              		.loc 1 244 25 view .LVU162
ARM GAS  /tmp/ccAUMmuN.s 			page 14


 400 018a 0F22     		movs	r2, #15
 401 018c 02FA0CF2 		lsl	r2, r2, ip
 244:Drivers/STM32F4xx_HAL_Driver/Src/stm32f4xx_hal_gpio.c ****         temp |= ((uint32_t)(GPIO_GET_INDEX(GPIOx)) << (4U * (position & 0x03U)));
 402              		.loc 1 244 14 view .LVU163
 403 0190 25EA0205 		bic	r5, r5, r2
 404              	.LVL44:
 245:Drivers/STM32F4xx_HAL_Driver/Src/stm32f4xx_hal_gpio.c ****         SYSCFG->EXTICR[position >> 2U] = temp;
 405              		.loc 1 245 9 is_stmt 1 view .LVU164
 245:Drivers/STM32F4xx_HAL_Driver/Src/stm32f4xx_hal_gpio.c ****         SYSCFG->EXTICR[position >> 2U] = temp;
 406              		.loc 1 245 18 is_stmt 0 view .LVU165
 407 0194 184A     		ldr	r2, .L25+12
 408 0196 9042     		cmp	r0, r2
 409 0198 3FF467AF 		beq	.L13
 245:Drivers/STM32F4xx_HAL_Driver/Src/stm32f4xx_hal_gpio.c ****         SYSCFG->EXTICR[position >> 2U] = temp;
 410              		.loc 1 245 29 discriminator 1 view .LVU166
 411 019c 02F58062 		add	r2, r2, #1024
 412 01a0 9042     		cmp	r0, r2
 413 01a2 16D0     		beq	.L14
 245:Drivers/STM32F4xx_HAL_Driver/Src/stm32f4xx_hal_gpio.c ****         SYSCFG->EXTICR[position >> 2U] = temp;
 414              		.loc 1 245 29 discriminator 3 view .LVU167
 415 01a4 02F58062 		add	r2, r2, #1024
 416 01a8 9042     		cmp	r0, r2
 417 01aa 14D0     		beq	.L15
 245:Drivers/STM32F4xx_HAL_Driver/Src/stm32f4xx_hal_gpio.c ****         SYSCFG->EXTICR[position >> 2U] = temp;
 418              		.loc 1 245 29 discriminator 5 view .LVU168
 419 01ac 02F58062 		add	r2, r2, #1024
 420 01b0 9042     		cmp	r0, r2
 421 01b2 12D0     		beq	.L16
 245:Drivers/STM32F4xx_HAL_Driver/Src/stm32f4xx_hal_gpio.c ****         SYSCFG->EXTICR[position >> 2U] = temp;
 422              		.loc 1 245 29 discriminator 7 view .LVU169
 423 01b4 02F58062 		add	r2, r2, #1024
 424 01b8 9042     		cmp	r0, r2
 425 01ba 10D0     		beq	.L17
 245:Drivers/STM32F4xx_HAL_Driver/Src/stm32f4xx_hal_gpio.c ****         SYSCFG->EXTICR[position >> 2U] = temp;
 426              		.loc 1 245 29 discriminator 9 view .LVU170
 427 01bc 02F58062 		add	r2, r2, #1024
 428 01c0 9042     		cmp	r0, r2
 429 01c2 0ED0     		beq	.L18
 245:Drivers/STM32F4xx_HAL_Driver/Src/stm32f4xx_hal_gpio.c ****         SYSCFG->EXTICR[position >> 2U] = temp;
 430              		.loc 1 245 29 discriminator 11 view .LVU171
 431 01c4 02F58062 		add	r2, r2, #1024
 432 01c8 9042     		cmp	r0, r2
 433 01ca 3FF44CAF 		beq	.L24
 245:Drivers/STM32F4xx_HAL_Driver/Src/stm32f4xx_hal_gpio.c ****         SYSCFG->EXTICR[position >> 2U] = temp;
 434              		.loc 1 245 18 discriminator 14 view .LVU172
 435 01ce 0722     		movs	r2, #7
 436 01d0 4CE7     		b	.L7
 437              	.L14:
 245:Drivers/STM32F4xx_HAL_Driver/Src/stm32f4xx_hal_gpio.c ****         SYSCFG->EXTICR[position >> 2U] = temp;
 438              		.loc 1 245 18 discriminator 4 view .LVU173
 439 01d2 0122     		movs	r2, #1
 440              	.LVL45:
 245:Drivers/STM32F4xx_HAL_Driver/Src/stm32f4xx_hal_gpio.c ****         SYSCFG->EXTICR[position >> 2U] = temp;
 441              		.loc 1 245 18 discriminator 4 view .LVU174
 442 01d4 4AE7     		b	.L7
 443              	.LVL46:
 444              	.L15:
ARM GAS  /tmp/ccAUMmuN.s 			page 15


 245:Drivers/STM32F4xx_HAL_Driver/Src/stm32f4xx_hal_gpio.c ****         SYSCFG->EXTICR[position >> 2U] = temp;
 445              		.loc 1 245 18 discriminator 6 view .LVU175
 446 01d6 0222     		movs	r2, #2
 447 01d8 48E7     		b	.L7
 448              	.L16:
 245:Drivers/STM32F4xx_HAL_Driver/Src/stm32f4xx_hal_gpio.c ****         SYSCFG->EXTICR[position >> 2U] = temp;
 449              		.loc 1 245 18 discriminator 8 view .LVU176
 450 01da 0322     		movs	r2, #3
 451 01dc 46E7     		b	.L7
 452              	.L17:
 245:Drivers/STM32F4xx_HAL_Driver/Src/stm32f4xx_hal_gpio.c ****         SYSCFG->EXTICR[position >> 2U] = temp;
 453              		.loc 1 245 18 discriminator 10 view .LVU177
 454 01de 0422     		movs	r2, #4
 455 01e0 44E7     		b	.L7
 456              	.L18:
 245:Drivers/STM32F4xx_HAL_Driver/Src/stm32f4xx_hal_gpio.c ****         SYSCFG->EXTICR[position >> 2U] = temp;
 457              		.loc 1 245 18 discriminator 12 view .LVU178
 458 01e2 0522     		movs	r2, #5
 459 01e4 42E7     		b	.L7
 460              	.LVL47:
 461              	.L21:
 281:Drivers/STM32F4xx_HAL_Driver/Src/stm32f4xx_hal_gpio.c ****       }
 282:Drivers/STM32F4xx_HAL_Driver/Src/stm32f4xx_hal_gpio.c ****     }
 283:Drivers/STM32F4xx_HAL_Driver/Src/stm32f4xx_hal_gpio.c ****   }
 284:Drivers/STM32F4xx_HAL_Driver/Src/stm32f4xx_hal_gpio.c **** }
 462              		.loc 1 284 1 view .LVU179
 463 01e6 02B0     		add	sp, sp, #8
 464              	.LCFI2:
 465              		.cfi_def_cfa_offset 16
 466              		@ sp needed
 467 01e8 70BD     		pop	{r4, r5, r6, pc}
 468              	.L26:
 469 01ea 00BF     		.align	2
 470              	.L25:
 471 01ec 00380140 		.word	1073821696
 472 01f0 003C0140 		.word	1073822720
 473 01f4 00380240 		.word	1073887232
 474 01f8 00000240 		.word	1073872896
 475              		.cfi_endproc
 476              	.LFE134:
 478              		.section	.text.HAL_GPIO_DeInit,"ax",%progbits
 479              		.align	1
 480              		.global	HAL_GPIO_DeInit
 481              		.syntax unified
 482              		.thumb
 483              		.thumb_func
 485              	HAL_GPIO_DeInit:
 486              	.LVL48:
 487              	.LFB135:
 285:Drivers/STM32F4xx_HAL_Driver/Src/stm32f4xx_hal_gpio.c **** 
 286:Drivers/STM32F4xx_HAL_Driver/Src/stm32f4xx_hal_gpio.c **** /**
 287:Drivers/STM32F4xx_HAL_Driver/Src/stm32f4xx_hal_gpio.c ****   * @brief  De-initializes the GPIOx peripheral registers to their default reset values.
 288:Drivers/STM32F4xx_HAL_Driver/Src/stm32f4xx_hal_gpio.c ****   * @param  GPIOx where x can be (A..K) to select the GPIO peripheral for STM32F429X device or
 289:Drivers/STM32F4xx_HAL_Driver/Src/stm32f4xx_hal_gpio.c ****   *                      x can be (A..I) to select the GPIO peripheral for STM32F40XX and STM32F427
 290:Drivers/STM32F4xx_HAL_Driver/Src/stm32f4xx_hal_gpio.c ****   * @param  GPIO_Pin specifies the port bit to be written.
 291:Drivers/STM32F4xx_HAL_Driver/Src/stm32f4xx_hal_gpio.c ****   *          This parameter can be one of GPIO_PIN_x where x can be (0..15).
 292:Drivers/STM32F4xx_HAL_Driver/Src/stm32f4xx_hal_gpio.c ****   * @retval None
ARM GAS  /tmp/ccAUMmuN.s 			page 16


 293:Drivers/STM32F4xx_HAL_Driver/Src/stm32f4xx_hal_gpio.c ****   */
 294:Drivers/STM32F4xx_HAL_Driver/Src/stm32f4xx_hal_gpio.c **** void HAL_GPIO_DeInit(GPIO_TypeDef  *GPIOx, uint32_t GPIO_Pin)
 295:Drivers/STM32F4xx_HAL_Driver/Src/stm32f4xx_hal_gpio.c **** {
 488              		.loc 1 295 1 is_stmt 1 view -0
 489              		.cfi_startproc
 490              		@ args = 0, pretend = 0, frame = 0
 491              		@ frame_needed = 0, uses_anonymous_args = 0
 296:Drivers/STM32F4xx_HAL_Driver/Src/stm32f4xx_hal_gpio.c ****   uint32_t position;
 492              		.loc 1 296 3 view .LVU181
 297:Drivers/STM32F4xx_HAL_Driver/Src/stm32f4xx_hal_gpio.c ****   uint32_t ioposition = 0x00U;
 493              		.loc 1 297 3 view .LVU182
 298:Drivers/STM32F4xx_HAL_Driver/Src/stm32f4xx_hal_gpio.c ****   uint32_t iocurrent = 0x00U;
 494              		.loc 1 298 3 view .LVU183
 299:Drivers/STM32F4xx_HAL_Driver/Src/stm32f4xx_hal_gpio.c ****   uint32_t tmp = 0x00U;
 495              		.loc 1 299 3 view .LVU184
 300:Drivers/STM32F4xx_HAL_Driver/Src/stm32f4xx_hal_gpio.c **** 
 301:Drivers/STM32F4xx_HAL_Driver/Src/stm32f4xx_hal_gpio.c ****   /* Check the parameters */
 302:Drivers/STM32F4xx_HAL_Driver/Src/stm32f4xx_hal_gpio.c ****   assert_param(IS_GPIO_ALL_INSTANCE(GPIOx));
 496              		.loc 1 302 3 view .LVU185
 303:Drivers/STM32F4xx_HAL_Driver/Src/stm32f4xx_hal_gpio.c ****   
 304:Drivers/STM32F4xx_HAL_Driver/Src/stm32f4xx_hal_gpio.c ****   /* Configure the port pins */
 305:Drivers/STM32F4xx_HAL_Driver/Src/stm32f4xx_hal_gpio.c ****   for(position = 0U; position < GPIO_NUMBER; position++)
 497              		.loc 1 305 3 view .LVU186
 498              		.loc 1 305 16 is_stmt 0 view .LVU187
 499 0000 0023     		movs	r3, #0
 500              	.LVL49:
 501              		.loc 1 305 31 is_stmt 1 discriminator 1 view .LVU188
 502 0002 0F2B     		cmp	r3, #15
 503 0004 00F28980 		bhi	.L43
 295:Drivers/STM32F4xx_HAL_Driver/Src/stm32f4xx_hal_gpio.c ****   uint32_t position;
 504              		.loc 1 295 1 is_stmt 0 view .LVU189
 505 0008 F0B5     		push	{r4, r5, r6, r7, lr}
 506              	.LCFI3:
 507              		.cfi_def_cfa_offset 20
 508              		.cfi_offset 4, -20
 509              		.cfi_offset 5, -16
 510              		.cfi_offset 6, -12
 511              		.cfi_offset 7, -8
 512              		.cfi_offset 14, -4
 513 000a 2DE0     		b	.L32
 514              	.LVL50:
 515              	.L46:
 306:Drivers/STM32F4xx_HAL_Driver/Src/stm32f4xx_hal_gpio.c ****   {
 307:Drivers/STM32F4xx_HAL_Driver/Src/stm32f4xx_hal_gpio.c ****     /* Get the IO position */
 308:Drivers/STM32F4xx_HAL_Driver/Src/stm32f4xx_hal_gpio.c ****     ioposition = 0x01U << position;
 309:Drivers/STM32F4xx_HAL_Driver/Src/stm32f4xx_hal_gpio.c ****     /* Get the current IO position */
 310:Drivers/STM32F4xx_HAL_Driver/Src/stm32f4xx_hal_gpio.c ****     iocurrent = (GPIO_Pin) & ioposition;
 311:Drivers/STM32F4xx_HAL_Driver/Src/stm32f4xx_hal_gpio.c **** 
 312:Drivers/STM32F4xx_HAL_Driver/Src/stm32f4xx_hal_gpio.c ****     if(iocurrent == ioposition)
 313:Drivers/STM32F4xx_HAL_Driver/Src/stm32f4xx_hal_gpio.c ****     {
 314:Drivers/STM32F4xx_HAL_Driver/Src/stm32f4xx_hal_gpio.c ****       /*------------------------- EXTI Mode Configuration --------------------*/
 315:Drivers/STM32F4xx_HAL_Driver/Src/stm32f4xx_hal_gpio.c ****       tmp = SYSCFG->EXTICR[position >> 2U];
 316:Drivers/STM32F4xx_HAL_Driver/Src/stm32f4xx_hal_gpio.c ****       tmp &= (0x0FU << (4U * (position & 0x03U)));
 317:Drivers/STM32F4xx_HAL_Driver/Src/stm32f4xx_hal_gpio.c ****       if(tmp == ((uint32_t)(GPIO_GET_INDEX(GPIOx)) << (4U * (position & 0x03U))))
 516              		.loc 1 317 18 discriminator 13 view .LVU190
 517 000c 0625     		movs	r5, #6
 518 000e 00E0     		b	.L30
ARM GAS  /tmp/ccAUMmuN.s 			page 17


 519              	.L33:
 520              		.loc 1 317 18 discriminator 2 view .LVU191
 521 0010 0025     		movs	r5, #0
 522              	.L30:
 523              		.loc 1 317 52 discriminator 15 view .LVU192
 524 0012 05FA0CF5 		lsl	r5, r5, ip
 525              		.loc 1 317 9 discriminator 15 view .LVU193
 526 0016 A542     		cmp	r5, r4
 527 0018 63D0     		beq	.L44
 528              	.LVL51:
 529              	.L31:
 318:Drivers/STM32F4xx_HAL_Driver/Src/stm32f4xx_hal_gpio.c ****       {
 319:Drivers/STM32F4xx_HAL_Driver/Src/stm32f4xx_hal_gpio.c ****         /* Clear EXTI line configuration */
 320:Drivers/STM32F4xx_HAL_Driver/Src/stm32f4xx_hal_gpio.c ****         EXTI->IMR &= ~((uint32_t)iocurrent);
 321:Drivers/STM32F4xx_HAL_Driver/Src/stm32f4xx_hal_gpio.c ****         EXTI->EMR &= ~((uint32_t)iocurrent);
 322:Drivers/STM32F4xx_HAL_Driver/Src/stm32f4xx_hal_gpio.c ****         
 323:Drivers/STM32F4xx_HAL_Driver/Src/stm32f4xx_hal_gpio.c ****         /* Clear Rising Falling edge configuration */
 324:Drivers/STM32F4xx_HAL_Driver/Src/stm32f4xx_hal_gpio.c ****         EXTI->FTSR &= ~((uint32_t)iocurrent);
 325:Drivers/STM32F4xx_HAL_Driver/Src/stm32f4xx_hal_gpio.c ****         EXTI->RTSR &= ~((uint32_t)iocurrent);
 326:Drivers/STM32F4xx_HAL_Driver/Src/stm32f4xx_hal_gpio.c **** 
 327:Drivers/STM32F4xx_HAL_Driver/Src/stm32f4xx_hal_gpio.c ****         /* Configure the External Interrupt or event for the current IO */
 328:Drivers/STM32F4xx_HAL_Driver/Src/stm32f4xx_hal_gpio.c ****         tmp = 0x0FU << (4U * (position & 0x03U));
 329:Drivers/STM32F4xx_HAL_Driver/Src/stm32f4xx_hal_gpio.c ****         SYSCFG->EXTICR[position >> 2U] &= ~tmp;
 330:Drivers/STM32F4xx_HAL_Driver/Src/stm32f4xx_hal_gpio.c ****       }
 331:Drivers/STM32F4xx_HAL_Driver/Src/stm32f4xx_hal_gpio.c **** 
 332:Drivers/STM32F4xx_HAL_Driver/Src/stm32f4xx_hal_gpio.c ****       /*------------------------- GPIO Mode Configuration --------------------*/
 333:Drivers/STM32F4xx_HAL_Driver/Src/stm32f4xx_hal_gpio.c ****       /* Configure IO Direction in Input Floating Mode */
 334:Drivers/STM32F4xx_HAL_Driver/Src/stm32f4xx_hal_gpio.c ****       GPIOx->MODER &= ~(GPIO_MODER_MODER0 << (position * 2U));
 530              		.loc 1 334 7 is_stmt 1 view .LVU194
 531              		.loc 1 334 12 is_stmt 0 view .LVU195
 532 001a 0468     		ldr	r4, [r0]
 533              		.loc 1 334 56 view .LVU196
 534 001c 5D00     		lsls	r5, r3, #1
 535              		.loc 1 334 43 view .LVU197
 536 001e 4FF0030C 		mov	ip, #3
 537 0022 0CFA05FC 		lsl	ip, ip, r5
 538              		.loc 1 334 20 view .LVU198
 539 0026 24EA0C04 		bic	r4, r4, ip
 540 002a 0460     		str	r4, [r0]
 335:Drivers/STM32F4xx_HAL_Driver/Src/stm32f4xx_hal_gpio.c **** 
 336:Drivers/STM32F4xx_HAL_Driver/Src/stm32f4xx_hal_gpio.c ****       /* Configure the default Alternate Function in current IO */
 337:Drivers/STM32F4xx_HAL_Driver/Src/stm32f4xx_hal_gpio.c ****       GPIOx->AFR[position >> 3U] &= ~(0xFU << ((uint32_t)(position & 0x07U) * 4U)) ;
 541              		.loc 1 337 7 is_stmt 1 view .LVU199
 542              		.loc 1 337 17 is_stmt 0 view .LVU200
 543 002c 4FEAD30E 		lsr	lr, r3, #3
 544 0030 0EF1080E 		add	lr, lr, #8
 545 0034 50F82E40 		ldr	r4, [r0, lr, lsl #2]
 546              		.loc 1 337 48 view .LVU201
 547 0038 03F00706 		and	r6, r3, #7
 548              		.loc 1 337 77 view .LVU202
 549 003c B600     		lsls	r6, r6, #2
 550              		.loc 1 337 44 view .LVU203
 551 003e 0F25     		movs	r5, #15
 552 0040 B540     		lsls	r5, r5, r6
 553              		.loc 1 337 34 view .LVU204
 554 0042 24EA0504 		bic	r4, r4, r5
 555 0046 40F82E40 		str	r4, [r0, lr, lsl #2]
ARM GAS  /tmp/ccAUMmuN.s 			page 18


 338:Drivers/STM32F4xx_HAL_Driver/Src/stm32f4xx_hal_gpio.c **** 
 339:Drivers/STM32F4xx_HAL_Driver/Src/stm32f4xx_hal_gpio.c ****       /* Deactivate the Pull-up and Pull-down resistor for the current IO */
 340:Drivers/STM32F4xx_HAL_Driver/Src/stm32f4xx_hal_gpio.c ****       GPIOx->PUPDR &= ~(GPIO_PUPDR_PUPDR0 << (position * 2U));
 556              		.loc 1 340 7 is_stmt 1 view .LVU205
 557              		.loc 1 340 12 is_stmt 0 view .LVU206
 558 004a C468     		ldr	r4, [r0, #12]
 559              		.loc 1 340 20 view .LVU207
 560 004c 24EA0C04 		bic	r4, r4, ip
 561 0050 C460     		str	r4, [r0, #12]
 341:Drivers/STM32F4xx_HAL_Driver/Src/stm32f4xx_hal_gpio.c **** 
 342:Drivers/STM32F4xx_HAL_Driver/Src/stm32f4xx_hal_gpio.c ****       /* Configure the default value IO Output Type */
 343:Drivers/STM32F4xx_HAL_Driver/Src/stm32f4xx_hal_gpio.c ****       GPIOx->OTYPER  &= ~(GPIO_OTYPER_OT_0 << position) ;
 562              		.loc 1 343 7 is_stmt 1 view .LVU208
 563              		.loc 1 343 12 is_stmt 0 view .LVU209
 564 0052 4468     		ldr	r4, [r0, #4]
 565              		.loc 1 343 22 view .LVU210
 566 0054 24EA0202 		bic	r2, r4, r2
 567              	.LVL52:
 568              		.loc 1 343 22 view .LVU211
 569 0058 4260     		str	r2, [r0, #4]
 344:Drivers/STM32F4xx_HAL_Driver/Src/stm32f4xx_hal_gpio.c **** 
 345:Drivers/STM32F4xx_HAL_Driver/Src/stm32f4xx_hal_gpio.c ****       /* Configure the default value for IO Speed */
 346:Drivers/STM32F4xx_HAL_Driver/Src/stm32f4xx_hal_gpio.c ****       GPIOx->OSPEEDR &= ~(GPIO_OSPEEDER_OSPEEDR0 << (position * 2U));
 570              		.loc 1 346 7 is_stmt 1 view .LVU212
 571              		.loc 1 346 12 is_stmt 0 view .LVU213
 572 005a 8268     		ldr	r2, [r0, #8]
 573              		.loc 1 346 22 view .LVU214
 574 005c 22EA0C02 		bic	r2, r2, ip
 575 0060 8260     		str	r2, [r0, #8]
 576              	.L29:
 305:Drivers/STM32F4xx_HAL_Driver/Src/stm32f4xx_hal_gpio.c ****   {
 577              		.loc 1 305 54 is_stmt 1 discriminator 2 view .LVU215
 578 0062 0133     		adds	r3, r3, #1
 579              	.LVL53:
 305:Drivers/STM32F4xx_HAL_Driver/Src/stm32f4xx_hal_gpio.c ****   {
 580              		.loc 1 305 31 discriminator 1 view .LVU216
 581 0064 0F2B     		cmp	r3, #15
 582 0066 57D8     		bhi	.L45
 583              	.LVL54:
 584              	.L32:
 308:Drivers/STM32F4xx_HAL_Driver/Src/stm32f4xx_hal_gpio.c ****     /* Get the current IO position */
 585              		.loc 1 308 5 view .LVU217
 308:Drivers/STM32F4xx_HAL_Driver/Src/stm32f4xx_hal_gpio.c ****     /* Get the current IO position */
 586              		.loc 1 308 16 is_stmt 0 view .LVU218
 587 0068 0122     		movs	r2, #1
 588 006a 9A40     		lsls	r2, r2, r3
 589              	.LVL55:
 310:Drivers/STM32F4xx_HAL_Driver/Src/stm32f4xx_hal_gpio.c **** 
 590              		.loc 1 310 5 is_stmt 1 view .LVU219
 310:Drivers/STM32F4xx_HAL_Driver/Src/stm32f4xx_hal_gpio.c **** 
 591              		.loc 1 310 15 is_stmt 0 view .LVU220
 592 006c 02EA0106 		and	r6, r2, r1
 593              	.LVL56:
 312:Drivers/STM32F4xx_HAL_Driver/Src/stm32f4xx_hal_gpio.c ****     {
 594              		.loc 1 312 5 is_stmt 1 view .LVU221
 312:Drivers/STM32F4xx_HAL_Driver/Src/stm32f4xx_hal_gpio.c ****     {
 595              		.loc 1 312 7 is_stmt 0 view .LVU222
ARM GAS  /tmp/ccAUMmuN.s 			page 19


 596 0070 32EA0104 		bics	r4, r2, r1
 597 0074 F5D1     		bne	.L29
 315:Drivers/STM32F4xx_HAL_Driver/Src/stm32f4xx_hal_gpio.c ****       tmp &= (0x0FU << (4U * (position & 0x03U)));
 598              		.loc 1 315 7 is_stmt 1 view .LVU223
 315:Drivers/STM32F4xx_HAL_Driver/Src/stm32f4xx_hal_gpio.c ****       tmp &= (0x0FU << (4U * (position & 0x03U)));
 599              		.loc 1 315 37 is_stmt 0 view .LVU224
 600 0076 4FEA930E 		lsr	lr, r3, #2
 315:Drivers/STM32F4xx_HAL_Driver/Src/stm32f4xx_hal_gpio.c ****       tmp &= (0x0FU << (4U * (position & 0x03U)));
 601              		.loc 1 315 11 view .LVU225
 602 007a 0EF10205 		add	r5, lr, #2
 603 007e 274C     		ldr	r4, .L47
 604 0080 54F82540 		ldr	r4, [r4, r5, lsl #2]
 605              	.LVL57:
 316:Drivers/STM32F4xx_HAL_Driver/Src/stm32f4xx_hal_gpio.c ****       if(tmp == ((uint32_t)(GPIO_GET_INDEX(GPIOx)) << (4U * (position & 0x03U))))
 606              		.loc 1 316 7 is_stmt 1 view .LVU226
 316:Drivers/STM32F4xx_HAL_Driver/Src/stm32f4xx_hal_gpio.c ****       if(tmp == ((uint32_t)(GPIO_GET_INDEX(GPIOx)) << (4U * (position & 0x03U))))
 607              		.loc 1 316 40 is_stmt 0 view .LVU227
 608 0084 03F0030C 		and	ip, r3, #3
 316:Drivers/STM32F4xx_HAL_Driver/Src/stm32f4xx_hal_gpio.c ****       if(tmp == ((uint32_t)(GPIO_GET_INDEX(GPIOx)) << (4U * (position & 0x03U))))
 609              		.loc 1 316 28 view .LVU228
 610 0088 4FEA8C0C 		lsl	ip, ip, #2
 316:Drivers/STM32F4xx_HAL_Driver/Src/stm32f4xx_hal_gpio.c ****       if(tmp == ((uint32_t)(GPIO_GET_INDEX(GPIOx)) << (4U * (position & 0x03U))))
 611              		.loc 1 316 21 view .LVU229
 612 008c 0F25     		movs	r5, #15
 613 008e 05FA0CF7 		lsl	r7, r5, ip
 316:Drivers/STM32F4xx_HAL_Driver/Src/stm32f4xx_hal_gpio.c ****       if(tmp == ((uint32_t)(GPIO_GET_INDEX(GPIOx)) << (4U * (position & 0x03U))))
 614              		.loc 1 316 11 view .LVU230
 615 0092 3C40     		ands	r4, r4, r7
 616              	.LVL58:
 317:Drivers/STM32F4xx_HAL_Driver/Src/stm32f4xx_hal_gpio.c ****       {
 617              		.loc 1 317 7 is_stmt 1 view .LVU231
 317:Drivers/STM32F4xx_HAL_Driver/Src/stm32f4xx_hal_gpio.c ****       {
 618              		.loc 1 317 18 is_stmt 0 view .LVU232
 619 0094 224D     		ldr	r5, .L47+4
 620 0096 A842     		cmp	r0, r5
 621 0098 BAD0     		beq	.L33
 317:Drivers/STM32F4xx_HAL_Driver/Src/stm32f4xx_hal_gpio.c ****       {
 622              		.loc 1 317 29 discriminator 1 view .LVU233
 623 009a 05F58065 		add	r5, r5, #1024
 624 009e A842     		cmp	r0, r5
 625 00a0 15D0     		beq	.L34
 317:Drivers/STM32F4xx_HAL_Driver/Src/stm32f4xx_hal_gpio.c ****       {
 626              		.loc 1 317 29 discriminator 3 view .LVU234
 627 00a2 05F58065 		add	r5, r5, #1024
 628 00a6 A842     		cmp	r0, r5
 629 00a8 13D0     		beq	.L35
 317:Drivers/STM32F4xx_HAL_Driver/Src/stm32f4xx_hal_gpio.c ****       {
 630              		.loc 1 317 29 discriminator 5 view .LVU235
 631 00aa 05F58065 		add	r5, r5, #1024
 632 00ae A842     		cmp	r0, r5
 633 00b0 11D0     		beq	.L36
 317:Drivers/STM32F4xx_HAL_Driver/Src/stm32f4xx_hal_gpio.c ****       {
 634              		.loc 1 317 29 discriminator 7 view .LVU236
 635 00b2 05F58065 		add	r5, r5, #1024
 636 00b6 A842     		cmp	r0, r5
 637 00b8 0FD0     		beq	.L37
 317:Drivers/STM32F4xx_HAL_Driver/Src/stm32f4xx_hal_gpio.c ****       {
ARM GAS  /tmp/ccAUMmuN.s 			page 20


 638              		.loc 1 317 29 discriminator 9 view .LVU237
 639 00ba 05F58065 		add	r5, r5, #1024
 640 00be A842     		cmp	r0, r5
 641 00c0 0DD0     		beq	.L38
 317:Drivers/STM32F4xx_HAL_Driver/Src/stm32f4xx_hal_gpio.c ****       {
 642              		.loc 1 317 29 discriminator 11 view .LVU238
 643 00c2 05F58065 		add	r5, r5, #1024
 644 00c6 A842     		cmp	r0, r5
 645 00c8 A0D0     		beq	.L46
 317:Drivers/STM32F4xx_HAL_Driver/Src/stm32f4xx_hal_gpio.c ****       {
 646              		.loc 1 317 18 discriminator 14 view .LVU239
 647 00ca 0725     		movs	r5, #7
 648 00cc A1E7     		b	.L30
 649              	.L34:
 317:Drivers/STM32F4xx_HAL_Driver/Src/stm32f4xx_hal_gpio.c ****       {
 650              		.loc 1 317 18 discriminator 4 view .LVU240
 651 00ce 0125     		movs	r5, #1
 652 00d0 9FE7     		b	.L30
 653              	.L35:
 317:Drivers/STM32F4xx_HAL_Driver/Src/stm32f4xx_hal_gpio.c ****       {
 654              		.loc 1 317 18 discriminator 6 view .LVU241
 655 00d2 0225     		movs	r5, #2
 656 00d4 9DE7     		b	.L30
 657              	.L36:
 317:Drivers/STM32F4xx_HAL_Driver/Src/stm32f4xx_hal_gpio.c ****       {
 658              		.loc 1 317 18 discriminator 8 view .LVU242
 659 00d6 0325     		movs	r5, #3
 660 00d8 9BE7     		b	.L30
 661              	.L37:
 317:Drivers/STM32F4xx_HAL_Driver/Src/stm32f4xx_hal_gpio.c ****       {
 662              		.loc 1 317 18 discriminator 10 view .LVU243
 663 00da 0425     		movs	r5, #4
 664 00dc 99E7     		b	.L30
 665              	.L38:
 317:Drivers/STM32F4xx_HAL_Driver/Src/stm32f4xx_hal_gpio.c ****       {
 666              		.loc 1 317 18 discriminator 12 view .LVU244
 667 00de 0525     		movs	r5, #5
 668 00e0 97E7     		b	.L30
 669              	.L44:
 320:Drivers/STM32F4xx_HAL_Driver/Src/stm32f4xx_hal_gpio.c ****         EXTI->EMR &= ~((uint32_t)iocurrent);
 670              		.loc 1 320 9 is_stmt 1 view .LVU245
 320:Drivers/STM32F4xx_HAL_Driver/Src/stm32f4xx_hal_gpio.c ****         EXTI->EMR &= ~((uint32_t)iocurrent);
 671              		.loc 1 320 13 is_stmt 0 view .LVU246
 672 00e2 104C     		ldr	r4, .L47+8
 673              	.LVL59:
 320:Drivers/STM32F4xx_HAL_Driver/Src/stm32f4xx_hal_gpio.c ****         EXTI->EMR &= ~((uint32_t)iocurrent);
 674              		.loc 1 320 13 view .LVU247
 675 00e4 2568     		ldr	r5, [r4]
 320:Drivers/STM32F4xx_HAL_Driver/Src/stm32f4xx_hal_gpio.c ****         EXTI->EMR &= ~((uint32_t)iocurrent);
 676              		.loc 1 320 19 view .LVU248
 677 00e6 25EA0605 		bic	r5, r5, r6
 678 00ea 2560     		str	r5, [r4]
 321:Drivers/STM32F4xx_HAL_Driver/Src/stm32f4xx_hal_gpio.c ****         
 679              		.loc 1 321 9 is_stmt 1 view .LVU249
 321:Drivers/STM32F4xx_HAL_Driver/Src/stm32f4xx_hal_gpio.c ****         
 680              		.loc 1 321 13 is_stmt 0 view .LVU250
 681 00ec 6568     		ldr	r5, [r4, #4]
ARM GAS  /tmp/ccAUMmuN.s 			page 21


 321:Drivers/STM32F4xx_HAL_Driver/Src/stm32f4xx_hal_gpio.c ****         
 682              		.loc 1 321 19 view .LVU251
 683 00ee 25EA0605 		bic	r5, r5, r6
 684 00f2 6560     		str	r5, [r4, #4]
 324:Drivers/STM32F4xx_HAL_Driver/Src/stm32f4xx_hal_gpio.c ****         EXTI->RTSR &= ~((uint32_t)iocurrent);
 685              		.loc 1 324 9 is_stmt 1 view .LVU252
 324:Drivers/STM32F4xx_HAL_Driver/Src/stm32f4xx_hal_gpio.c ****         EXTI->RTSR &= ~((uint32_t)iocurrent);
 686              		.loc 1 324 13 is_stmt 0 view .LVU253
 687 00f4 E568     		ldr	r5, [r4, #12]
 324:Drivers/STM32F4xx_HAL_Driver/Src/stm32f4xx_hal_gpio.c ****         EXTI->RTSR &= ~((uint32_t)iocurrent);
 688              		.loc 1 324 20 view .LVU254
 689 00f6 25EA0605 		bic	r5, r5, r6
 690 00fa E560     		str	r5, [r4, #12]
 325:Drivers/STM32F4xx_HAL_Driver/Src/stm32f4xx_hal_gpio.c **** 
 691              		.loc 1 325 9 is_stmt 1 view .LVU255
 325:Drivers/STM32F4xx_HAL_Driver/Src/stm32f4xx_hal_gpio.c **** 
 692              		.loc 1 325 13 is_stmt 0 view .LVU256
 693 00fc A568     		ldr	r5, [r4, #8]
 325:Drivers/STM32F4xx_HAL_Driver/Src/stm32f4xx_hal_gpio.c **** 
 694              		.loc 1 325 20 view .LVU257
 695 00fe 25EA0605 		bic	r5, r5, r6
 696 0102 A560     		str	r5, [r4, #8]
 328:Drivers/STM32F4xx_HAL_Driver/Src/stm32f4xx_hal_gpio.c ****         SYSCFG->EXTICR[position >> 2U] &= ~tmp;
 697              		.loc 1 328 9 is_stmt 1 view .LVU258
 698              	.LVL60:
 329:Drivers/STM32F4xx_HAL_Driver/Src/stm32f4xx_hal_gpio.c ****       }
 699              		.loc 1 329 9 view .LVU259
 329:Drivers/STM32F4xx_HAL_Driver/Src/stm32f4xx_hal_gpio.c ****       }
 700              		.loc 1 329 23 is_stmt 0 view .LVU260
 701 0104 054E     		ldr	r6, .L47
 702              	.LVL61:
 329:Drivers/STM32F4xx_HAL_Driver/Src/stm32f4xx_hal_gpio.c ****       }
 703              		.loc 1 329 23 view .LVU261
 704 0106 0EF10204 		add	r4, lr, #2
 705 010a 56F82450 		ldr	r5, [r6, r4, lsl #2]
 329:Drivers/STM32F4xx_HAL_Driver/Src/stm32f4xx_hal_gpio.c ****       }
 706              		.loc 1 329 40 view .LVU262
 707 010e 25EA0705 		bic	r5, r5, r7
 708 0112 46F82450 		str	r5, [r6, r4, lsl #2]
 709 0116 80E7     		b	.L31
 710              	.LVL62:
 711              	.L45:
 347:Drivers/STM32F4xx_HAL_Driver/Src/stm32f4xx_hal_gpio.c ****     }
 348:Drivers/STM32F4xx_HAL_Driver/Src/stm32f4xx_hal_gpio.c ****   }
 349:Drivers/STM32F4xx_HAL_Driver/Src/stm32f4xx_hal_gpio.c **** }
 712              		.loc 1 349 1 view .LVU263
 713 0118 F0BD     		pop	{r4, r5, r6, r7, pc}
 714              	.LVL63:
 715              	.L43:
 716              	.LCFI4:
 717              		.cfi_def_cfa_offset 0
 718              		.cfi_restore 4
 719              		.cfi_restore 5
 720              		.cfi_restore 6
 721              		.cfi_restore 7
 722              		.cfi_restore 14
 723              		.loc 1 349 1 view .LVU264
ARM GAS  /tmp/ccAUMmuN.s 			page 22


 724 011a 7047     		bx	lr
 725              	.L48:
 726              		.align	2
 727              	.L47:
 728 011c 00380140 		.word	1073821696
 729 0120 00000240 		.word	1073872896
 730 0124 003C0140 		.word	1073822720
 731              		.cfi_endproc
 732              	.LFE135:
 734              		.section	.text.HAL_GPIO_ReadPin,"ax",%progbits
 735              		.align	1
 736              		.global	HAL_GPIO_ReadPin
 737              		.syntax unified
 738              		.thumb
 739              		.thumb_func
 741              	HAL_GPIO_ReadPin:
 742              	.LVL64:
 743              	.LFB136:
 350:Drivers/STM32F4xx_HAL_Driver/Src/stm32f4xx_hal_gpio.c **** 
 351:Drivers/STM32F4xx_HAL_Driver/Src/stm32f4xx_hal_gpio.c **** /**
 352:Drivers/STM32F4xx_HAL_Driver/Src/stm32f4xx_hal_gpio.c ****   * @}
 353:Drivers/STM32F4xx_HAL_Driver/Src/stm32f4xx_hal_gpio.c ****   */
 354:Drivers/STM32F4xx_HAL_Driver/Src/stm32f4xx_hal_gpio.c **** 
 355:Drivers/STM32F4xx_HAL_Driver/Src/stm32f4xx_hal_gpio.c **** /** @defgroup GPIO_Exported_Functions_Group2 IO operation functions 
 356:Drivers/STM32F4xx_HAL_Driver/Src/stm32f4xx_hal_gpio.c ****   *  @brief   GPIO Read and Write
 357:Drivers/STM32F4xx_HAL_Driver/Src/stm32f4xx_hal_gpio.c ****   *
 358:Drivers/STM32F4xx_HAL_Driver/Src/stm32f4xx_hal_gpio.c **** @verbatim
 359:Drivers/STM32F4xx_HAL_Driver/Src/stm32f4xx_hal_gpio.c ****  ===============================================================================
 360:Drivers/STM32F4xx_HAL_Driver/Src/stm32f4xx_hal_gpio.c ****                        ##### IO operation functions #####
 361:Drivers/STM32F4xx_HAL_Driver/Src/stm32f4xx_hal_gpio.c ****  ===============================================================================
 362:Drivers/STM32F4xx_HAL_Driver/Src/stm32f4xx_hal_gpio.c **** 
 363:Drivers/STM32F4xx_HAL_Driver/Src/stm32f4xx_hal_gpio.c **** @endverbatim
 364:Drivers/STM32F4xx_HAL_Driver/Src/stm32f4xx_hal_gpio.c ****   * @{
 365:Drivers/STM32F4xx_HAL_Driver/Src/stm32f4xx_hal_gpio.c ****   */
 366:Drivers/STM32F4xx_HAL_Driver/Src/stm32f4xx_hal_gpio.c **** 
 367:Drivers/STM32F4xx_HAL_Driver/Src/stm32f4xx_hal_gpio.c **** /**
 368:Drivers/STM32F4xx_HAL_Driver/Src/stm32f4xx_hal_gpio.c ****   * @brief  Reads the specified input port pin.
 369:Drivers/STM32F4xx_HAL_Driver/Src/stm32f4xx_hal_gpio.c ****   * @param  GPIOx where x can be (A..K) to select the GPIO peripheral for STM32F429X device or
 370:Drivers/STM32F4xx_HAL_Driver/Src/stm32f4xx_hal_gpio.c ****   *                      x can be (A..I) to select the GPIO peripheral for STM32F40XX and STM32F427
 371:Drivers/STM32F4xx_HAL_Driver/Src/stm32f4xx_hal_gpio.c ****   * @param  GPIO_Pin specifies the port bit to read.
 372:Drivers/STM32F4xx_HAL_Driver/Src/stm32f4xx_hal_gpio.c ****   *         This parameter can be GPIO_PIN_x where x can be (0..15).
 373:Drivers/STM32F4xx_HAL_Driver/Src/stm32f4xx_hal_gpio.c ****   * @retval The input port pin value.
 374:Drivers/STM32F4xx_HAL_Driver/Src/stm32f4xx_hal_gpio.c ****   */
 375:Drivers/STM32F4xx_HAL_Driver/Src/stm32f4xx_hal_gpio.c **** GPIO_PinState HAL_GPIO_ReadPin(GPIO_TypeDef* GPIOx, uint16_t GPIO_Pin)
 376:Drivers/STM32F4xx_HAL_Driver/Src/stm32f4xx_hal_gpio.c **** {
 744              		.loc 1 376 1 is_stmt 1 view -0
 745              		.cfi_startproc
 746              		@ args = 0, pretend = 0, frame = 0
 747              		@ frame_needed = 0, uses_anonymous_args = 0
 748              		@ link register save eliminated.
 377:Drivers/STM32F4xx_HAL_Driver/Src/stm32f4xx_hal_gpio.c ****   GPIO_PinState bitstatus;
 749              		.loc 1 377 3 view .LVU266
 378:Drivers/STM32F4xx_HAL_Driver/Src/stm32f4xx_hal_gpio.c **** 
 379:Drivers/STM32F4xx_HAL_Driver/Src/stm32f4xx_hal_gpio.c ****   /* Check the parameters */
 380:Drivers/STM32F4xx_HAL_Driver/Src/stm32f4xx_hal_gpio.c ****   assert_param(IS_GPIO_PIN(GPIO_Pin));
 750              		.loc 1 380 3 view .LVU267
 381:Drivers/STM32F4xx_HAL_Driver/Src/stm32f4xx_hal_gpio.c **** 
ARM GAS  /tmp/ccAUMmuN.s 			page 23


 382:Drivers/STM32F4xx_HAL_Driver/Src/stm32f4xx_hal_gpio.c ****   if((GPIOx->IDR & GPIO_Pin) != (uint32_t)GPIO_PIN_RESET)
 751              		.loc 1 382 3 view .LVU268
 752              		.loc 1 382 12 is_stmt 0 view .LVU269
 753 0000 0369     		ldr	r3, [r0, #16]
 754              		.loc 1 382 5 view .LVU270
 755 0002 1942     		tst	r1, r3
 756 0004 01D0     		beq	.L51
 383:Drivers/STM32F4xx_HAL_Driver/Src/stm32f4xx_hal_gpio.c ****   {
 384:Drivers/STM32F4xx_HAL_Driver/Src/stm32f4xx_hal_gpio.c ****     bitstatus = GPIO_PIN_SET;
 757              		.loc 1 384 15 view .LVU271
 758 0006 0120     		movs	r0, #1
 759              	.LVL65:
 760              		.loc 1 384 15 view .LVU272
 761 0008 7047     		bx	lr
 762              	.LVL66:
 763              	.L51:
 385:Drivers/STM32F4xx_HAL_Driver/Src/stm32f4xx_hal_gpio.c ****   }
 386:Drivers/STM32F4xx_HAL_Driver/Src/stm32f4xx_hal_gpio.c ****   else
 387:Drivers/STM32F4xx_HAL_Driver/Src/stm32f4xx_hal_gpio.c ****   {
 388:Drivers/STM32F4xx_HAL_Driver/Src/stm32f4xx_hal_gpio.c ****     bitstatus = GPIO_PIN_RESET;
 764              		.loc 1 388 15 view .LVU273
 765 000a 0020     		movs	r0, #0
 766              	.LVL67:
 389:Drivers/STM32F4xx_HAL_Driver/Src/stm32f4xx_hal_gpio.c ****   }
 390:Drivers/STM32F4xx_HAL_Driver/Src/stm32f4xx_hal_gpio.c ****   return bitstatus;
 767              		.loc 1 390 3 is_stmt 1 view .LVU274
 391:Drivers/STM32F4xx_HAL_Driver/Src/stm32f4xx_hal_gpio.c **** }
 768              		.loc 1 391 1 is_stmt 0 view .LVU275
 769 000c 7047     		bx	lr
 770              		.cfi_endproc
 771              	.LFE136:
 773              		.section	.text.HAL_GPIO_WritePin,"ax",%progbits
 774              		.align	1
 775              		.global	HAL_GPIO_WritePin
 776              		.syntax unified
 777              		.thumb
 778              		.thumb_func
 780              	HAL_GPIO_WritePin:
 781              	.LVL68:
 782              	.LFB137:
 392:Drivers/STM32F4xx_HAL_Driver/Src/stm32f4xx_hal_gpio.c **** 
 393:Drivers/STM32F4xx_HAL_Driver/Src/stm32f4xx_hal_gpio.c **** /**
 394:Drivers/STM32F4xx_HAL_Driver/Src/stm32f4xx_hal_gpio.c ****   * @brief  Sets or clears the selected data port bit.
 395:Drivers/STM32F4xx_HAL_Driver/Src/stm32f4xx_hal_gpio.c ****   *
 396:Drivers/STM32F4xx_HAL_Driver/Src/stm32f4xx_hal_gpio.c ****   * @note   This function uses GPIOx_BSRR register to allow atomic read/modify
 397:Drivers/STM32F4xx_HAL_Driver/Src/stm32f4xx_hal_gpio.c ****   *         accesses. In this way, there is no risk of an IRQ occurring between
 398:Drivers/STM32F4xx_HAL_Driver/Src/stm32f4xx_hal_gpio.c ****   *         the read and the modify access.
 399:Drivers/STM32F4xx_HAL_Driver/Src/stm32f4xx_hal_gpio.c ****   *
 400:Drivers/STM32F4xx_HAL_Driver/Src/stm32f4xx_hal_gpio.c ****   * @param  GPIOx where x can be (A..K) to select the GPIO peripheral for STM32F429X device or
 401:Drivers/STM32F4xx_HAL_Driver/Src/stm32f4xx_hal_gpio.c ****   *                      x can be (A..I) to select the GPIO peripheral for STM32F40XX and STM32F427
 402:Drivers/STM32F4xx_HAL_Driver/Src/stm32f4xx_hal_gpio.c ****   * @param  GPIO_Pin specifies the port bit to be written.
 403:Drivers/STM32F4xx_HAL_Driver/Src/stm32f4xx_hal_gpio.c ****   *          This parameter can be one of GPIO_PIN_x where x can be (0..15).
 404:Drivers/STM32F4xx_HAL_Driver/Src/stm32f4xx_hal_gpio.c ****   * @param  PinState specifies the value to be written to the selected bit.
 405:Drivers/STM32F4xx_HAL_Driver/Src/stm32f4xx_hal_gpio.c ****   *          This parameter can be one of the GPIO_PinState enum values:
 406:Drivers/STM32F4xx_HAL_Driver/Src/stm32f4xx_hal_gpio.c ****   *            @arg GPIO_PIN_RESET: to clear the port pin
 407:Drivers/STM32F4xx_HAL_Driver/Src/stm32f4xx_hal_gpio.c ****   *            @arg GPIO_PIN_SET: to set the port pin
 408:Drivers/STM32F4xx_HAL_Driver/Src/stm32f4xx_hal_gpio.c ****   * @retval None
ARM GAS  /tmp/ccAUMmuN.s 			page 24


 409:Drivers/STM32F4xx_HAL_Driver/Src/stm32f4xx_hal_gpio.c ****   */
 410:Drivers/STM32F4xx_HAL_Driver/Src/stm32f4xx_hal_gpio.c **** void HAL_GPIO_WritePin(GPIO_TypeDef* GPIOx, uint16_t GPIO_Pin, GPIO_PinState PinState)
 411:Drivers/STM32F4xx_HAL_Driver/Src/stm32f4xx_hal_gpio.c **** {
 783              		.loc 1 411 1 is_stmt 1 view -0
 784              		.cfi_startproc
 785              		@ args = 0, pretend = 0, frame = 0
 786              		@ frame_needed = 0, uses_anonymous_args = 0
 787              		@ link register save eliminated.
 412:Drivers/STM32F4xx_HAL_Driver/Src/stm32f4xx_hal_gpio.c ****   /* Check the parameters */
 413:Drivers/STM32F4xx_HAL_Driver/Src/stm32f4xx_hal_gpio.c ****   assert_param(IS_GPIO_PIN(GPIO_Pin));
 788              		.loc 1 413 3 view .LVU277
 414:Drivers/STM32F4xx_HAL_Driver/Src/stm32f4xx_hal_gpio.c ****   assert_param(IS_GPIO_PIN_ACTION(PinState));
 789              		.loc 1 414 3 view .LVU278
 415:Drivers/STM32F4xx_HAL_Driver/Src/stm32f4xx_hal_gpio.c **** 
 416:Drivers/STM32F4xx_HAL_Driver/Src/stm32f4xx_hal_gpio.c ****   if(PinState != GPIO_PIN_RESET)
 790              		.loc 1 416 3 view .LVU279
 791              		.loc 1 416 5 is_stmt 0 view .LVU280
 792 0000 0AB1     		cbz	r2, .L53
 417:Drivers/STM32F4xx_HAL_Driver/Src/stm32f4xx_hal_gpio.c ****   {
 418:Drivers/STM32F4xx_HAL_Driver/Src/stm32f4xx_hal_gpio.c ****     GPIOx->BSRR = GPIO_Pin;
 793              		.loc 1 418 5 is_stmt 1 view .LVU281
 794              		.loc 1 418 17 is_stmt 0 view .LVU282
 795 0002 8161     		str	r1, [r0, #24]
 796 0004 7047     		bx	lr
 797              	.L53:
 419:Drivers/STM32F4xx_HAL_Driver/Src/stm32f4xx_hal_gpio.c ****   }
 420:Drivers/STM32F4xx_HAL_Driver/Src/stm32f4xx_hal_gpio.c ****   else
 421:Drivers/STM32F4xx_HAL_Driver/Src/stm32f4xx_hal_gpio.c ****   {
 422:Drivers/STM32F4xx_HAL_Driver/Src/stm32f4xx_hal_gpio.c ****     GPIOx->BSRR = (uint32_t)GPIO_Pin << 16U;
 798              		.loc 1 422 5 is_stmt 1 view .LVU283
 799              		.loc 1 422 38 is_stmt 0 view .LVU284
 800 0006 0904     		lsls	r1, r1, #16
 801              	.LVL69:
 802              		.loc 1 422 17 view .LVU285
 803 0008 8161     		str	r1, [r0, #24]
 423:Drivers/STM32F4xx_HAL_Driver/Src/stm32f4xx_hal_gpio.c ****   }
 424:Drivers/STM32F4xx_HAL_Driver/Src/stm32f4xx_hal_gpio.c **** }
 804              		.loc 1 424 1 view .LVU286
 805 000a 7047     		bx	lr
 806              		.cfi_endproc
 807              	.LFE137:
 809              		.section	.text.HAL_GPIO_TogglePin,"ax",%progbits
 810              		.align	1
 811              		.global	HAL_GPIO_TogglePin
 812              		.syntax unified
 813              		.thumb
 814              		.thumb_func
 816              	HAL_GPIO_TogglePin:
 817              	.LVL70:
 818              	.LFB138:
 425:Drivers/STM32F4xx_HAL_Driver/Src/stm32f4xx_hal_gpio.c **** 
 426:Drivers/STM32F4xx_HAL_Driver/Src/stm32f4xx_hal_gpio.c **** /**
 427:Drivers/STM32F4xx_HAL_Driver/Src/stm32f4xx_hal_gpio.c ****   * @brief  Toggles the specified GPIO pins.
 428:Drivers/STM32F4xx_HAL_Driver/Src/stm32f4xx_hal_gpio.c ****   * @param  GPIOx Where x can be (A..K) to select the GPIO peripheral for STM32F429X device or
 429:Drivers/STM32F4xx_HAL_Driver/Src/stm32f4xx_hal_gpio.c ****   *                      x can be (A..I) to select the GPIO peripheral for STM32F40XX and STM32F427
 430:Drivers/STM32F4xx_HAL_Driver/Src/stm32f4xx_hal_gpio.c ****   * @param  GPIO_Pin Specifies the pins to be toggled.
 431:Drivers/STM32F4xx_HAL_Driver/Src/stm32f4xx_hal_gpio.c ****   * @retval None
ARM GAS  /tmp/ccAUMmuN.s 			page 25


 432:Drivers/STM32F4xx_HAL_Driver/Src/stm32f4xx_hal_gpio.c ****   */
 433:Drivers/STM32F4xx_HAL_Driver/Src/stm32f4xx_hal_gpio.c **** void HAL_GPIO_TogglePin(GPIO_TypeDef* GPIOx, uint16_t GPIO_Pin)
 434:Drivers/STM32F4xx_HAL_Driver/Src/stm32f4xx_hal_gpio.c **** {
 819              		.loc 1 434 1 is_stmt 1 view -0
 820              		.cfi_startproc
 821              		@ args = 0, pretend = 0, frame = 0
 822              		@ frame_needed = 0, uses_anonymous_args = 0
 823              		@ link register save eliminated.
 435:Drivers/STM32F4xx_HAL_Driver/Src/stm32f4xx_hal_gpio.c ****   uint32_t odr;
 824              		.loc 1 435 3 view .LVU288
 436:Drivers/STM32F4xx_HAL_Driver/Src/stm32f4xx_hal_gpio.c **** 
 437:Drivers/STM32F4xx_HAL_Driver/Src/stm32f4xx_hal_gpio.c ****   /* Check the parameters */
 438:Drivers/STM32F4xx_HAL_Driver/Src/stm32f4xx_hal_gpio.c ****   assert_param(IS_GPIO_PIN(GPIO_Pin));
 825              		.loc 1 438 3 view .LVU289
 439:Drivers/STM32F4xx_HAL_Driver/Src/stm32f4xx_hal_gpio.c **** 
 440:Drivers/STM32F4xx_HAL_Driver/Src/stm32f4xx_hal_gpio.c ****   /* get current Output Data Register value */
 441:Drivers/STM32F4xx_HAL_Driver/Src/stm32f4xx_hal_gpio.c ****   odr = GPIOx->ODR;
 826              		.loc 1 441 3 view .LVU290
 827              		.loc 1 441 7 is_stmt 0 view .LVU291
 828 0000 4369     		ldr	r3, [r0, #20]
 829              	.LVL71:
 442:Drivers/STM32F4xx_HAL_Driver/Src/stm32f4xx_hal_gpio.c **** 
 443:Drivers/STM32F4xx_HAL_Driver/Src/stm32f4xx_hal_gpio.c ****   /* Set selected pins that were at low level, and reset ones that were high */
 444:Drivers/STM32F4xx_HAL_Driver/Src/stm32f4xx_hal_gpio.c ****   GPIOx->BSRR = ((odr & GPIO_Pin) << GPIO_NUMBER) | (~odr & GPIO_Pin);
 830              		.loc 1 444 3 is_stmt 1 view .LVU292
 831              		.loc 1 444 23 is_stmt 0 view .LVU293
 832 0002 01EA0302 		and	r2, r1, r3
 833              		.loc 1 444 59 view .LVU294
 834 0006 21EA0301 		bic	r1, r1, r3
 835              	.LVL72:
 836              		.loc 1 444 51 view .LVU295
 837 000a 41EA0241 		orr	r1, r1, r2, lsl #16
 838              		.loc 1 444 15 view .LVU296
 839 000e 8161     		str	r1, [r0, #24]
 445:Drivers/STM32F4xx_HAL_Driver/Src/stm32f4xx_hal_gpio.c **** }
 840              		.loc 1 445 1 view .LVU297
 841 0010 7047     		bx	lr
 842              		.cfi_endproc
 843              	.LFE138:
 845              		.section	.text.HAL_GPIO_LockPin,"ax",%progbits
 846              		.align	1
 847              		.global	HAL_GPIO_LockPin
 848              		.syntax unified
 849              		.thumb
 850              		.thumb_func
 852              	HAL_GPIO_LockPin:
 853              	.LVL73:
 854              	.LFB139:
 446:Drivers/STM32F4xx_HAL_Driver/Src/stm32f4xx_hal_gpio.c **** 
 447:Drivers/STM32F4xx_HAL_Driver/Src/stm32f4xx_hal_gpio.c **** /**
 448:Drivers/STM32F4xx_HAL_Driver/Src/stm32f4xx_hal_gpio.c ****   * @brief  Locks GPIO Pins configuration registers.
 449:Drivers/STM32F4xx_HAL_Driver/Src/stm32f4xx_hal_gpio.c ****   * @note   The locked registers are GPIOx_MODER, GPIOx_OTYPER, GPIOx_OSPEEDR,
 450:Drivers/STM32F4xx_HAL_Driver/Src/stm32f4xx_hal_gpio.c ****   *         GPIOx_PUPDR, GPIOx_AFRL and GPIOx_AFRH.
 451:Drivers/STM32F4xx_HAL_Driver/Src/stm32f4xx_hal_gpio.c ****   * @note   The configuration of the locked GPIO pins can no longer be modified
 452:Drivers/STM32F4xx_HAL_Driver/Src/stm32f4xx_hal_gpio.c ****   *         until the next reset.
 453:Drivers/STM32F4xx_HAL_Driver/Src/stm32f4xx_hal_gpio.c ****   * @param  GPIOx where x can be (A..F) to select the GPIO peripheral for STM32F4 family
 454:Drivers/STM32F4xx_HAL_Driver/Src/stm32f4xx_hal_gpio.c ****   * @param  GPIO_Pin specifies the port bit to be locked.
ARM GAS  /tmp/ccAUMmuN.s 			page 26


 455:Drivers/STM32F4xx_HAL_Driver/Src/stm32f4xx_hal_gpio.c ****   *         This parameter can be any combination of GPIO_PIN_x where x can be (0..15).
 456:Drivers/STM32F4xx_HAL_Driver/Src/stm32f4xx_hal_gpio.c ****   * @retval None
 457:Drivers/STM32F4xx_HAL_Driver/Src/stm32f4xx_hal_gpio.c ****   */
 458:Drivers/STM32F4xx_HAL_Driver/Src/stm32f4xx_hal_gpio.c **** HAL_StatusTypeDef HAL_GPIO_LockPin(GPIO_TypeDef* GPIOx, uint16_t GPIO_Pin)
 459:Drivers/STM32F4xx_HAL_Driver/Src/stm32f4xx_hal_gpio.c **** {
 855              		.loc 1 459 1 is_stmt 1 view -0
 856              		.cfi_startproc
 857              		@ args = 0, pretend = 0, frame = 8
 858              		@ frame_needed = 0, uses_anonymous_args = 0
 859              		@ link register save eliminated.
 860              		.loc 1 459 1 is_stmt 0 view .LVU299
 861 0000 82B0     		sub	sp, sp, #8
 862              	.LCFI5:
 863              		.cfi_def_cfa_offset 8
 460:Drivers/STM32F4xx_HAL_Driver/Src/stm32f4xx_hal_gpio.c ****   __IO uint32_t tmp = GPIO_LCKR_LCKK;
 864              		.loc 1 460 3 is_stmt 1 view .LVU300
 865              		.loc 1 460 17 is_stmt 0 view .LVU301
 866 0002 4FF48033 		mov	r3, #65536
 867 0006 0193     		str	r3, [sp, #4]
 461:Drivers/STM32F4xx_HAL_Driver/Src/stm32f4xx_hal_gpio.c **** 
 462:Drivers/STM32F4xx_HAL_Driver/Src/stm32f4xx_hal_gpio.c ****   /* Check the parameters */
 463:Drivers/STM32F4xx_HAL_Driver/Src/stm32f4xx_hal_gpio.c ****   assert_param(IS_GPIO_PIN(GPIO_Pin));
 868              		.loc 1 463 3 is_stmt 1 view .LVU302
 464:Drivers/STM32F4xx_HAL_Driver/Src/stm32f4xx_hal_gpio.c **** 
 465:Drivers/STM32F4xx_HAL_Driver/Src/stm32f4xx_hal_gpio.c ****   /* Apply lock key write sequence */
 466:Drivers/STM32F4xx_HAL_Driver/Src/stm32f4xx_hal_gpio.c ****   tmp |= GPIO_Pin;
 869              		.loc 1 466 3 view .LVU303
 870              		.loc 1 466 7 is_stmt 0 view .LVU304
 871 0008 019B     		ldr	r3, [sp, #4]
 872 000a 0B43     		orrs	r3, r3, r1
 873 000c 0193     		str	r3, [sp, #4]
 467:Drivers/STM32F4xx_HAL_Driver/Src/stm32f4xx_hal_gpio.c ****   /* Set LCKx bit(s): LCKK='1' + LCK[15-0] */
 468:Drivers/STM32F4xx_HAL_Driver/Src/stm32f4xx_hal_gpio.c ****   GPIOx->LCKR = tmp;
 874              		.loc 1 468 3 is_stmt 1 view .LVU305
 875              		.loc 1 468 15 is_stmt 0 view .LVU306
 876 000e 019B     		ldr	r3, [sp, #4]
 877 0010 C361     		str	r3, [r0, #28]
 469:Drivers/STM32F4xx_HAL_Driver/Src/stm32f4xx_hal_gpio.c ****   /* Reset LCKx bit(s): LCKK='0' + LCK[15-0] */
 470:Drivers/STM32F4xx_HAL_Driver/Src/stm32f4xx_hal_gpio.c ****   GPIOx->LCKR = GPIO_Pin;
 878              		.loc 1 470 3 is_stmt 1 view .LVU307
 879              		.loc 1 470 15 is_stmt 0 view .LVU308
 880 0012 C161     		str	r1, [r0, #28]
 471:Drivers/STM32F4xx_HAL_Driver/Src/stm32f4xx_hal_gpio.c ****   /* Set LCKx bit(s): LCKK='1' + LCK[15-0] */
 472:Drivers/STM32F4xx_HAL_Driver/Src/stm32f4xx_hal_gpio.c ****   GPIOx->LCKR = tmp;
 881              		.loc 1 472 3 is_stmt 1 view .LVU309
 882              		.loc 1 472 15 is_stmt 0 view .LVU310
 883 0014 019B     		ldr	r3, [sp, #4]
 884 0016 C361     		str	r3, [r0, #28]
 473:Drivers/STM32F4xx_HAL_Driver/Src/stm32f4xx_hal_gpio.c ****   /* Read LCKR register. This read is mandatory to complete key lock sequence */
 474:Drivers/STM32F4xx_HAL_Driver/Src/stm32f4xx_hal_gpio.c ****   tmp = GPIOx->LCKR;
 885              		.loc 1 474 3 is_stmt 1 view .LVU311
 886              		.loc 1 474 14 is_stmt 0 view .LVU312
 887 0018 C369     		ldr	r3, [r0, #28]
 888              		.loc 1 474 7 view .LVU313
 889 001a 0193     		str	r3, [sp, #4]
 475:Drivers/STM32F4xx_HAL_Driver/Src/stm32f4xx_hal_gpio.c **** 
 476:Drivers/STM32F4xx_HAL_Driver/Src/stm32f4xx_hal_gpio.c ****   /* Read again in order to confirm lock is active */
ARM GAS  /tmp/ccAUMmuN.s 			page 27


 477:Drivers/STM32F4xx_HAL_Driver/Src/stm32f4xx_hal_gpio.c ****  if((GPIOx->LCKR & GPIO_LCKR_LCKK) != RESET)
 890              		.loc 1 477 2 is_stmt 1 view .LVU314
 891              		.loc 1 477 11 is_stmt 0 view .LVU315
 892 001c C369     		ldr	r3, [r0, #28]
 893              		.loc 1 477 4 view .LVU316
 894 001e 13F4803F 		tst	r3, #65536
 895 0022 02D0     		beq	.L58
 478:Drivers/STM32F4xx_HAL_Driver/Src/stm32f4xx_hal_gpio.c ****   {
 479:Drivers/STM32F4xx_HAL_Driver/Src/stm32f4xx_hal_gpio.c ****     return HAL_OK;
 896              		.loc 1 479 12 view .LVU317
 897 0024 0020     		movs	r0, #0
 898              	.LVL74:
 899              	.L57:
 480:Drivers/STM32F4xx_HAL_Driver/Src/stm32f4xx_hal_gpio.c ****   }
 481:Drivers/STM32F4xx_HAL_Driver/Src/stm32f4xx_hal_gpio.c ****   else
 482:Drivers/STM32F4xx_HAL_Driver/Src/stm32f4xx_hal_gpio.c ****   {
 483:Drivers/STM32F4xx_HAL_Driver/Src/stm32f4xx_hal_gpio.c ****     return HAL_ERROR;
 484:Drivers/STM32F4xx_HAL_Driver/Src/stm32f4xx_hal_gpio.c ****   }
 485:Drivers/STM32F4xx_HAL_Driver/Src/stm32f4xx_hal_gpio.c **** }
 900              		.loc 1 485 1 view .LVU318
 901 0026 02B0     		add	sp, sp, #8
 902              	.LCFI6:
 903              		.cfi_remember_state
 904              		.cfi_def_cfa_offset 0
 905              		@ sp needed
 906 0028 7047     		bx	lr
 907              	.LVL75:
 908              	.L58:
 909              	.LCFI7:
 910              		.cfi_restore_state
 483:Drivers/STM32F4xx_HAL_Driver/Src/stm32f4xx_hal_gpio.c ****   }
 911              		.loc 1 483 12 view .LVU319
 912 002a 0120     		movs	r0, #1
 913              	.LVL76:
 483:Drivers/STM32F4xx_HAL_Driver/Src/stm32f4xx_hal_gpio.c ****   }
 914              		.loc 1 483 12 view .LVU320
 915 002c FBE7     		b	.L57
 916              		.cfi_endproc
 917              	.LFE139:
 919              		.section	.text.HAL_GPIO_EXTI_Callback,"ax",%progbits
 920              		.align	1
 921              		.weak	HAL_GPIO_EXTI_Callback
 922              		.syntax unified
 923              		.thumb
 924              		.thumb_func
 926              	HAL_GPIO_EXTI_Callback:
 927              	.LVL77:
 928              	.LFB141:
 486:Drivers/STM32F4xx_HAL_Driver/Src/stm32f4xx_hal_gpio.c **** 
 487:Drivers/STM32F4xx_HAL_Driver/Src/stm32f4xx_hal_gpio.c **** /**
 488:Drivers/STM32F4xx_HAL_Driver/Src/stm32f4xx_hal_gpio.c ****   * @brief  This function handles EXTI interrupt request.
 489:Drivers/STM32F4xx_HAL_Driver/Src/stm32f4xx_hal_gpio.c ****   * @param  GPIO_Pin Specifies the pins connected EXTI line
 490:Drivers/STM32F4xx_HAL_Driver/Src/stm32f4xx_hal_gpio.c ****   * @retval None
 491:Drivers/STM32F4xx_HAL_Driver/Src/stm32f4xx_hal_gpio.c ****   */
 492:Drivers/STM32F4xx_HAL_Driver/Src/stm32f4xx_hal_gpio.c **** void HAL_GPIO_EXTI_IRQHandler(uint16_t GPIO_Pin)
 493:Drivers/STM32F4xx_HAL_Driver/Src/stm32f4xx_hal_gpio.c **** {
 494:Drivers/STM32F4xx_HAL_Driver/Src/stm32f4xx_hal_gpio.c ****   /* EXTI line interrupt detected */
ARM GAS  /tmp/ccAUMmuN.s 			page 28


 495:Drivers/STM32F4xx_HAL_Driver/Src/stm32f4xx_hal_gpio.c ****   if(__HAL_GPIO_EXTI_GET_IT(GPIO_Pin) != RESET)
 496:Drivers/STM32F4xx_HAL_Driver/Src/stm32f4xx_hal_gpio.c ****   {
 497:Drivers/STM32F4xx_HAL_Driver/Src/stm32f4xx_hal_gpio.c ****     __HAL_GPIO_EXTI_CLEAR_IT(GPIO_Pin);
 498:Drivers/STM32F4xx_HAL_Driver/Src/stm32f4xx_hal_gpio.c ****     HAL_GPIO_EXTI_Callback(GPIO_Pin);
 499:Drivers/STM32F4xx_HAL_Driver/Src/stm32f4xx_hal_gpio.c ****   }
 500:Drivers/STM32F4xx_HAL_Driver/Src/stm32f4xx_hal_gpio.c **** }
 501:Drivers/STM32F4xx_HAL_Driver/Src/stm32f4xx_hal_gpio.c **** 
 502:Drivers/STM32F4xx_HAL_Driver/Src/stm32f4xx_hal_gpio.c **** /**
 503:Drivers/STM32F4xx_HAL_Driver/Src/stm32f4xx_hal_gpio.c ****   * @brief  EXTI line detection callbacks.
 504:Drivers/STM32F4xx_HAL_Driver/Src/stm32f4xx_hal_gpio.c ****   * @param  GPIO_Pin Specifies the pins connected EXTI line
 505:Drivers/STM32F4xx_HAL_Driver/Src/stm32f4xx_hal_gpio.c ****   * @retval None
 506:Drivers/STM32F4xx_HAL_Driver/Src/stm32f4xx_hal_gpio.c ****   */
 507:Drivers/STM32F4xx_HAL_Driver/Src/stm32f4xx_hal_gpio.c **** __weak void HAL_GPIO_EXTI_Callback(uint16_t GPIO_Pin)
 508:Drivers/STM32F4xx_HAL_Driver/Src/stm32f4xx_hal_gpio.c **** {
 929              		.loc 1 508 1 is_stmt 1 view -0
 930              		.cfi_startproc
 931              		@ args = 0, pretend = 0, frame = 0
 932              		@ frame_needed = 0, uses_anonymous_args = 0
 933              		@ link register save eliminated.
 509:Drivers/STM32F4xx_HAL_Driver/Src/stm32f4xx_hal_gpio.c ****   /* Prevent unused argument(s) compilation warning */
 510:Drivers/STM32F4xx_HAL_Driver/Src/stm32f4xx_hal_gpio.c ****   UNUSED(GPIO_Pin);
 934              		.loc 1 510 3 view .LVU322
 511:Drivers/STM32F4xx_HAL_Driver/Src/stm32f4xx_hal_gpio.c ****   /* NOTE: This function Should not be modified, when the callback is needed,
 512:Drivers/STM32F4xx_HAL_Driver/Src/stm32f4xx_hal_gpio.c ****            the HAL_GPIO_EXTI_Callback could be implemented in the user file
 513:Drivers/STM32F4xx_HAL_Driver/Src/stm32f4xx_hal_gpio.c ****    */
 514:Drivers/STM32F4xx_HAL_Driver/Src/stm32f4xx_hal_gpio.c **** }
 935              		.loc 1 514 1 is_stmt 0 view .LVU323
 936 0000 7047     		bx	lr
 937              		.cfi_endproc
 938              	.LFE141:
 940              		.section	.text.HAL_GPIO_EXTI_IRQHandler,"ax",%progbits
 941              		.align	1
 942              		.global	HAL_GPIO_EXTI_IRQHandler
 943              		.syntax unified
 944              		.thumb
 945              		.thumb_func
 947              	HAL_GPIO_EXTI_IRQHandler:
 948              	.LVL78:
 949              	.LFB140:
 493:Drivers/STM32F4xx_HAL_Driver/Src/stm32f4xx_hal_gpio.c ****   /* EXTI line interrupt detected */
 950              		.loc 1 493 1 is_stmt 1 view -0
 951              		.cfi_startproc
 952              		@ args = 0, pretend = 0, frame = 0
 953              		@ frame_needed = 0, uses_anonymous_args = 0
 493:Drivers/STM32F4xx_HAL_Driver/Src/stm32f4xx_hal_gpio.c ****   /* EXTI line interrupt detected */
 954              		.loc 1 493 1 is_stmt 0 view .LVU325
 955 0000 08B5     		push	{r3, lr}
 956              	.LCFI8:
 957              		.cfi_def_cfa_offset 8
 958              		.cfi_offset 3, -8
 959              		.cfi_offset 14, -4
 495:Drivers/STM32F4xx_HAL_Driver/Src/stm32f4xx_hal_gpio.c ****   {
 960              		.loc 1 495 3 is_stmt 1 view .LVU326
 495:Drivers/STM32F4xx_HAL_Driver/Src/stm32f4xx_hal_gpio.c ****   {
 961              		.loc 1 495 6 is_stmt 0 view .LVU327
 962 0002 054B     		ldr	r3, .L65
 963 0004 5B69     		ldr	r3, [r3, #20]
ARM GAS  /tmp/ccAUMmuN.s 			page 29


 495:Drivers/STM32F4xx_HAL_Driver/Src/stm32f4xx_hal_gpio.c ****   {
 964              		.loc 1 495 5 view .LVU328
 965 0006 0342     		tst	r3, r0
 966 0008 00D1     		bne	.L64
 967              	.LVL79:
 968              	.L61:
 500:Drivers/STM32F4xx_HAL_Driver/Src/stm32f4xx_hal_gpio.c **** 
 969              		.loc 1 500 1 view .LVU329
 970 000a 08BD     		pop	{r3, pc}
 971              	.LVL80:
 972              	.L64:
 497:Drivers/STM32F4xx_HAL_Driver/Src/stm32f4xx_hal_gpio.c ****     HAL_GPIO_EXTI_Callback(GPIO_Pin);
 973              		.loc 1 497 5 is_stmt 1 view .LVU330
 974 000c 024B     		ldr	r3, .L65
 975 000e 5861     		str	r0, [r3, #20]
 498:Drivers/STM32F4xx_HAL_Driver/Src/stm32f4xx_hal_gpio.c ****   }
 976              		.loc 1 498 5 view .LVU331
 977 0010 FFF7FEFF 		bl	HAL_GPIO_EXTI_Callback
 978              	.LVL81:
 500:Drivers/STM32F4xx_HAL_Driver/Src/stm32f4xx_hal_gpio.c **** 
 979              		.loc 1 500 1 is_stmt 0 view .LVU332
 980 0014 F9E7     		b	.L61
 981              	.L66:
 982 0016 00BF     		.align	2
 983              	.L65:
 984 0018 003C0140 		.word	1073822720
 985              		.cfi_endproc
 986              	.LFE140:
 988              		.text
 989              	.Letext0:
 990              		.file 2 "/usr/arm-none-eabi/include/machine/_default_types.h"
 991              		.file 3 "/usr/arm-none-eabi/include/sys/_stdint.h"
 992              		.file 4 "Drivers/CMSIS/Device/ST/STM32F4xx/Include/stm32f413xx.h"
 993              		.file 5 "Drivers/CMSIS/Device/ST/STM32F4xx/Include/stm32f4xx.h"
 994              		.file 6 "Drivers/STM32F4xx_HAL_Driver/Inc/stm32f4xx_hal_def.h"
 995              		.file 7 "Drivers/STM32F4xx_HAL_Driver/Inc/stm32f4xx_hal_gpio.h"
ARM GAS  /tmp/ccAUMmuN.s 			page 30

